(lp0
I199
aI215
aI103
aI226
aI221
aI221
aI97
aI106
aI113
aI222
aI107
aI212
aI215
aI88
aI213
aI80
aI209
aI192
aI197
aI111
aI113
aI154
aI110
aI160
aI156
aI119
aI208
aI173
aI134
aI126
aI113
aI165
aI85
aI80
aI84
aI165
aI226
aI82
aI80
aI144
aI90
aI189
aI174
aI194
aI78
aI113
aI164
aI89
aI93
aI145
aI176
aI182
aI120
aI196
aI110
aI224
aI109
aI132
aI210
aI125
aI137
aI205
aI208
aI181
aI190
aI172
aI92
aI108
aI120
aI158
aI207
aI142
aI199
aI206
aI194
aI196
aI78
aI192
aI179
aI209
aI210
aI94
aI130
aI221
aI87
aI167
aI122
aI150
aI217
aI176
aI87
aI220
aI207
aI225
aI214
aI192
aI141
aI201
aI191
aI159
aI82
aI158
aI168
aI83
aI188
aI158
aI168
aI117
aI170
aI178
aI80
aI166
aI179
aI88
aI104
aI192
aI151
aI196
aI168
aI155
aI115
aI171
aI221
aI97
aI156
aI197
aI226
aI75
aI161
aI127
aI163
aI96
aI107
aI223
aI211
aI137
aI200
aI221
aI191
aI191
aI115
aI183
aI197
aI160
aI189
aI88
aI107
aI82
aI163
aI217
aI174
aI115
aI138
aI179
aI222
aI225
aI140
aI140
aI165
aI88
aI102
aI84
aI105
aI139
aI130
aI166
aI128
aI105
aI165
aI75
aI160
aI100
aI170
aI96
aI190
aI104
aI137
aI193
aI128
aI212
aI210
aI134
aI89
aI224
aI205
aI182
aI121
aI221
aI223
aI148
aI169
aI95
aI127
aI221
aI182
aI126
aI154
aI132
aI100
aI165
aI180
aI89
aI181
aI180
aI141
aI185
aI95
aI98
aI112
aI211
aI80
aI200
aI222
aI131
aI125
aI202
aI194
aI152
aI157
aI173
aI195
aI160
aI176
aI99
aI166
aI103
aI207
aI141
aI195
aI118
aI144
aI80
aI149
aI76
aI116
aI144
aI188
aI204
aI163
aI103
aI159
aI166
aI167
aI142
aI133
aI111
aI146
aI209
aI225
aI223
aI188
aI194
aI115
aI92
aI121
aI184
aI96
aI224
aI106
aI163
aI144
aI185
aI93
aI165
aI95
aI79
aI222
aI158
aI222
aI213
aI144
aI77
aI166
aI112
aI175
aI209
aI194
aI118
aI127
aI209
aI216
aI222
aI149
aI134
aI185
aI205
aI113
aI182
aI186
aI118
aI210
aI100
aI205
aI147
aI146
aI151
aI172
aI82
aI180
aI183
aI161
aI127
aI81
aI167
aI140
aI96
aI117
aI184
aI214
aI173
aI186
aI110
aI157
aI126
aI95
aI191
aI151
aI88
aI225
aI106
aI87
aI76
aI199
aI207
aI224
aI143
aI104
aI91
aI117
aI219
aI135
aI161
aI96
aI194
aI86
aI127
aI205
aI95
aI202
aI190
aI226
aI95
aI153
aI205
aI111
aI203
aI90
aI182
aI137
aI151
aI125
aI127
aI104
aI208
aI170
aI94
aI211
aI83
aI138
aI218
aI166
aI81
aI92
aI82
aI199
aI145
aI148
aI124
aI213
aI159
aI210
aI169
aI76
aI226
aI198
aI135
aI212
aI222
aI90
aI92
aI128
aI88
aI205
aI76
aI150
aI222
aI145
aI221
aI81
aI150
aI182
aI169
aI212
aI217
aI84
aI95
aI215
aI193
aI146
aI200
aI143
aI89
aI153
aI86
aI157
aI169
aI77
aI79
aI140
aI107
aI155
aI154
aI152
aI164
aI185
aI219
aI198
aI96
aI141
aI202
aI145
aI157
aI132
aI216
aI175
aI178
aI102
aI149
aI182
aI100
aI107
aI93
aI160
aI99
aI99
aI92
aI125
aI196
aI79
aI224
aI133
aI178
aI156
aI184
aI134
aI103
aI204
aI120
aI152
aI215
aI94
aI85
aI191
aI139
aI134
aI200
aI191
aI139
aI152
aI116
aI222
aI211
aI153
aI173
aI223
aI153
aI103
aI138
aI201
aI166
aI208
aI198
aI148
aI149
aI171
aI131
aI81
aI98
aI160
aI218
aI165
aI177
aI206
aI116
aI75
aI123
aI186
aI102
aI93
aI224
aI82
aI86
aI185
aI91
aI81
aI181
aI176
aI151
aI99
aI198
aI109
aI152
aI151
aI141
aI87
aI153
aI196
aI127
aI95
aI129
aI131
aI152
aI76
aI218
aI204
aI209
aI190
aI146
aI196
aI174
aI110
aI94
aI87
aI130
aI204
aI110
aI206
aI114
aI129
aI107
aI134
aI216
aI167
aI217
aI118
aI195
aI101
aI79
aI223
aI189
aI111
aI143
aI202
aI199
aI116
aI156
aI160
aI79
aI105
aI118
aI219
aI141
aI115
aI207
aI79
aI75
aI149
aI83
aI189
aI153
aI122
aI145
aI107
aI122
aI207
aI151
aI195
aI112
aI154
aI167
aI101
aI174
aI204
aI90
aI120
aI203
aI96
aI85
aI77
aI171
aI175
aI209
aI154
aI207
aI151
aI202
aI84
aI136
aI151
aI207
aI219
aI184
aI184
aI132
aI126
aI170
aI202
aI223
aI214
aI105
aI123
aI102
aI218
aI102
aI95
aI216
aI109
aI148
aI127
aI80
aI130
aI148
aI114
aI79
aI208
aI198
aI148
aI226
aI165
aI81
aI218
aI201
aI90
aI144
aI97
aI158
aI215
aI181
aI211
aI163
aI126
aI109
aI195
aI116
aI199
aI218
aI134
aI151
aI78
aI192
aI96
aI91
aI193
aI175
aI215
aI84
aI75
aI128
aI199
aI205
aI94
aI119
aI145
aI147
aI118
aI172
aI98
aI222
aI187
aI208
aI148
aI151
aI163
aI93
aI92
aI195
aI152
aI111
aI122
aI98
aI190
aI211
aI91
aI118
aI123
aI187
aI110
aI204
aI108
aI84
aI170
aI218
aI218
aI100
aI162
aI153
aI198
aI206
aI205
aI205
aI84
aI118
aI133
aI168
aI151
aI113
aI221
aI113
aI214
aI160
aI139
aI87
aI221
aI91
aI166
aI105
aI190
aI105
aI197
aI224
aI88
aI220
aI161
aI137
aI186
aI91
aI92
aI183
aI174
aI212
aI85
aI211
aI102
aI131
aI127
aI143
aI178
aI86
aI223
aI95
aI75
aI153
aI181
aI138
aI177
aI138
aI78
aI215
aI120
aI111
aI190
aI171
aI134
aI178
aI186
aI202
aI83
aI79
aI144
aI187
aI126
aI218
aI157
aI210
aI77
aI197
aI98
aI159
aI187
aI80
aI190
aI86
aI155
aI177
aI139
aI151
aI143
aI203
aI118
aI192
aI184
aI206
aI148
aI107
aI139
aI108
aI124
aI93
aI85
aI199
aI85
aI152
aI123
aI200
aI198
aI171
aI220
aI166
aI156
aI185
aI148
aI107
aI77
aI177
aI176
aI118
aI84
aI124
aI212
aI148
aI106
aI131
aI91
aI127
aI217
aI162
aI176
aI85
aI199
aI209
aI93
aI198
aI118
aI224
aI106
aI173
aI157
aI132
aI219
aI117
aI216
aI170
aI181
aI136
aI154
aI159
aI119
aI165
aI211
aI212
aI164
aI208
aI172
aI219
aI201
aI225
aI81
aI109
aI145
aI215
aI217
aI118
aI144
aI124
aI157
aI90
aI184
aI139
aI173
aI156
aI92
aI81
aI131
aI129
aI139
aI168
aI141
aI216
aI170
aI175
aI161
aI83
aI133
aI197
aI99
aI180
aI136
aI197
aI163
aI215
aI132
aI100
aI218
aI225
aI157
aI176
aI115
aI179
aI141
aI140
aI119
aI129
aI125
aI119
aI77
aI189
aI90
aI128
aI110
aI168
aI194
aI156
aI122
aI148
aI154
aI154
aI202
aI97
aI212
aI116
aI95
aI213
aI81
aI158
aI222
aI144
aI146
aI194
aI192
aI155
aI190
aI203
aI195
aI81
aI96
aI113
aI173
aI213
aI174
aI138
aI177
aI123
aI220
aI162
aI213
aI84
aI144
aI93
aI212
aI137
aI139
aI139
aI85
aI168
aI191
aI106
aI187
aI207
aI180
aI190
aI211
aI120
aI174
aI120
aI192
aI125
aI207
aI208
aI76
aI93
aI81
aI138
aI175
aI112
aI99
aI147
aI122
aI143
aI210
aI221
aI111
aI196
aI169
aI110
aI146
aI225
aI220
aI192
aI80
aI142
aI182
aI199
aI129
aI154
aI225
aI123
aI79
aI141
aI122
aI121
aI217
aI214
aI183
aI225
aI159
aI127
aI195
aI117
aI155
aI79
aI118
aI212
aI187
aI122
aI221
aI118
aI104
aI207
aI104
aI167
aI156
aI111
aI120
aI183
aI150
aI106
aI187
aI150
aI137
aI208
aI222
aI160
aI80
aI141
aI94
aI177
aI135
aI113
aI199
aI116
aI101
aI181
aI177
aI100
aI113
aI212
aI201
aI93
aI81
aI120
aI124
aI197
aI168
aI118
aI124
aI212
aI138
aI135
aI187
aI88
aI100
aI132
aI75
aI202
aI140
aI192
aI164
aI144
aI82
aI143
aI89
aI204
aI79
aI176
aI160
aI129
aI161
aI105
aI182
aI185
aI75
aI98
aI213
aI223
aI125
aI115
aI147
aI221
aI208
aI180
aI111
aI76
aI154
aI88
aI226
aI203
aI178
aI116
aI207
aI101
aI193
aI209
aI155
aI164
aI208
aI105
aI94
aI158
aI221
aI220
aI92
aI101
aI138
aI148
aI82
aI199
aI95
aI135
aI146
aI164
aI185
aI217
aI192
aI177
aI173
aI75
aI139
aI226
aI146
aI75
aI159
aI150
aI171
aI85
aI194
aI170
aI180
aI211
aI137
aI152
aI103
aI185
aI127
aI86
aI117
aI154
aI143
aI117
aI91
aI223
aI135
aI193
aI90
aI111
aI203
aI196
aI87
aI102
aI151
aI148
aI168
aI77
aI77
aI143
aI86
aI77
aI177
aI139
aI90
aI134
aI130
aI99
aI176
aI95
aI175
aI161
aI76
aI136
aI120
aI209
aI92
aI170
aI165
aI173
aI76
aI114
aI127
aI107
aI212
aI203
aI140
aI222
aI200
aI143
aI221
aI202
aI124
aI94
aI191
aI193
aI189
aI115
aI169
aI87
aI113
aI217
aI76
aI156
aI197
aI151
aI197
aI137
aI110
aI83
aI133
aI167
aI172
aI117
aI144
aI165
aI114
aI88
aI200
aI128
aI217
aI197
aI161
aI225
aI125
aI116
aI106
aI211
aI104
aI195
aI143
aI141
aI172
aI105
aI200
aI185
aI88
aI95
aI225
aI188
aI184
aI80
aI177
aI219
aI113
aI117
aI115
aI181
aI186
aI177
aI168
aI184
aI128
aI100
aI201
aI106
aI117
aI82
aI132
aI84
aI182
aI82
aI226
aI131
aI88
aI108
aI121
aI120
aI137
aI214
aI175
aI159
aI157
aI222
aI150
aI162
aI75
aI89
aI106
aI104
aI115
aI218
aI115
aI155
aI106
aI95
aI120
aI191
aI195
aI107
aI150
aI153
aI224
aI141
aI213
aI89
aI118
aI218
aI187
aI175
aI98
aI209
aI211
aI215
aI183
aI114
aI90
aI154
aI79
aI188
aI111
aI90
aI78
aI105
aI129
aI120
aI221
aI218
aI180
aI165
aI158
aI140
aI173
aI212
aI80
aI120
aI182
aI177
aI199
aI202
aI157
aI224
aI170
aI113
aI128
aI99
aI133
aI172
aI185
aI194
aI160
aI196
aI94
aI205
aI126
aI129
aI176
aI199
aI181
aI177
aI200
aI197
aI110
aI197
aI185
aI206
aI131
aI179
aI123
aI119
aI83
aI147
aI176
aI168
aI190
aI129
aI102
aI165
aI193
aI153
aI176
aI162
aI106
aI212
aI218
aI85
aI93
aI177
aI83
aI176
aI106
aI190
aI171
aI163
aI194
aI213
aI105
aI168
aI139
aI205
aI106
aI223
aI180
aI91
aI130
aI213
aI135
aI97
aI203
aI115
aI174
aI133
aI177
aI207
aI162
aI111
aI224
aI183
aI102
aI194
aI216
aI138
aI148
aI109
aI149
aI215
aI142
aI117
aI89
aI137
aI89
aI184
aI217
aI123
aI202
aI105
aI186
aI77
aI113
aI220
aI181
aI162
aI77
aI127
aI130
aI142
aI139
aI208
aI87
aI125
aI109
aI177
aI156
aI153
aI106
aI177
aI75
aI127
aI120
aI123
aI162
aI159
aI197
aI104
aI211
aI80
aI132
aI177
aI203
aI221
aI220
aI181
aI101
aI204
aI119
aI206
aI209
aI168
aI178
aI176
aI205
aI203
aI204
aI186
aI164
aI158
aI141
aI145
aI132
aI190
aI122
aI215
aI183
aI104
aI134
aI168
aI156
aI175
aI95
aI100
aI151
aI110
aI178
aI143
aI102
aI141
aI143
aI221
aI129
aI106
aI113
aI175
aI201
aI75
aI204
aI134
aI147
aI194
aI106
aI106
aI108
aI178
aI106
aI84
aI161
aI148
aI104
aI79
aI208
aI151
aI154
aI91
aI83
aI144
aI142
aI123
aI121
aI163
aI162
aI226
aI133
aI200
aI135
aI200
aI178
aI193
aI172
aI125
aI187
aI118
aI141
aI151
aI155
aI147
aI185
aI210
aI164
aI162
aI112
aI121
aI79
aI80
aI209
aI77
aI158
aI101
aI97
aI185
aI138
aI218
aI217
aI204
aI99
aI183
aI112
aI87
aI109
aI218
aI222
aI137
aI93
aI209
aI194
aI204
aI95
aI174
aI154
aI107
aI87
aI101
aI90
aI150
aI171
aI220
aI109
aI104
aI147
aI213
aI175
aI152
aI225
aI174
aI182
aI130
aI98
aI217
aI213
aI220
aI132
aI204
aI204
aI140
aI96
aI76
aI162
aI211
aI79
aI201
aI119
aI155
aI103
aI207
aI100
aI220
aI131
aI158
aI93
aI212
aI204
aI128
aI80
aI225
aI215
aI131
aI135
aI143
aI186
aI102
aI150
aI120
aI150
aI94
aI200
aI225
aI207
aI137
aI156
aI118
aI186
aI192
aI191
aI142
aI191
aI108
aI124
aI146
aI173
aI97
aI177
aI117
aI190
aI162
aI152
aI217
aI181
aI136
aI77
aI77
aI128
aI100
aI77
aI204
aI119
aI96
aI194
aI111
aI122
aI172
aI177
aI218
aI151
aI136
aI107
aI126
aI198
aI191
aI219
aI149
aI208
aI173
aI94
aI100
aI94
aI201
aI128
aI145
aI202
aI220
aI188
aI200
aI189
aI187
aI124
aI100
aI110
aI194
aI175
aI156
aI126
aI99
aI93
aI111
aI113
aI170
aI203
aI148
aI116
aI110
aI85
aI146
aI168
aI201
aI216
aI115
aI99
aI210
aI160
aI75
aI133
aI116
aI128
aI177
aI195
aI130
aI130
aI140
aI81
aI198
aI121
aI191
aI203
aI154
aI150
aI159
aI90
aI122
aI163
aI221
aI129
aI101
aI215
aI78
aI87
aI143
aI224
aI142
aI91
aI181
aI103
aI218
aI211
aI118
aI213
aI108
aI224
aI171
aI207
aI77
aI192
aI84
aI216
aI193
aI137
aI83
aI216
aI109
aI112
aI134
aI207
aI220
aI137
aI111
aI195
aI119
aI224
aI150
aI145
aI123
aI127
aI146
aI95
aI169
aI121
aI222
aI222
aI207
aI164
aI171
aI108
aI216
aI140
aI131
aI105
aI128
aI100
aI157
aI88
aI82
aI103
aI195
aI89
aI172
aI186
aI138
aI177
aI181
aI141
aI225
aI182
aI201
aI162
aI91
aI86
aI153
aI225
aI80
aI142
aI76
aI179
aI84
aI141
aI175
aI163
aI145
aI190
aI222
aI181
aI79
aI104
aI162
aI192
aI154
aI120
aI162
aI121
aI103
aI160
aI198
aI190
aI220
aI109
aI188
aI78
aI221
aI160
aI199
aI113
aI157
aI177
aI181
aI158
aI203
aI213
aI124
aI160
aI186
aI112
aI132
aI224
aI185
aI207
aI90
aI206
aI110
aI133
aI130
aI194
aI200
aI166
aI160
aI101
aI140
aI101
aI156
aI119
aI213
aI108
aI147
aI133
aI149
aI200
aI209
aI141
aI93
aI193
aI226
aI140
aI151
aI163
aI204
aI213
aI187
aI131
aI180
aI152
aI144
aI81
aI205
aI100
aI178
aI217
aI130
aI198
aI170
aI137
aI224
aI175
aI88
aI181
aI222
aI161
aI174
aI164
aI129
aI131
aI130
aI126
aI78
aI189
aI188
aI217
aI125
aI127
aI90
aI211
aI224
aI142
aI162
aI202
aI161
aI165
aI178
aI146
aI139
aI198
aI203
aI202
aI148
aI154
aI128
aI91
aI109
aI206
aI177
aI82
aI77
aI197
aI163
aI94
aI134
aI209
aI75
aI158
aI125
aI177
aI89
aI83
aI183
aI190
aI182
aI208
aI146
aI101
aI83
aI111
aI176
aI207
aI159
aI141
aI118
aI153
aI96
aI110
aI160
aI175
aI167
aI132
aI209
aI154
aI97
aI155
aI113
aI85
aI113
aI172
aI93
aI150
aI150
aI158
aI177
aI203
aI94
aI185
aI209
aI100
aI75
aI75
aI128
aI113
aI198
aI145
aI111
aI92
aI117
aI104
aI179
aI112
aI75
aI119
aI206
aI202
aI121
aI178
aI186
aI142
aI137
aI117
aI99
aI214
aI156
aI225
aI100
aI114
aI214
aI98
aI193
aI142
aI97
aI137
aI96
aI91
aI168
aI189
aI162
aI107
aI146
aI97
aI153
aI103
aI82
aI214
aI204
aI157
aI132
aI199
aI130
aI189
aI147
aI220
aI210
aI87
aI112
aI142
aI77
aI115
aI115
aI85
aI130
aI134
aI86
aI114
aI188
aI122
aI123
aI184
aI80
aI133
aI158
aI144
aI154
aI218
aI209
aI186
aI122
aI165
aI162
aI132
aI212
aI139
aI139
aI150
aI184
aI121
aI89
aI215
aI148
aI185
aI177
aI139
aI174
aI166
aI76
aI167
aI174
aI184
aI206
aI98
aI82
aI138
aI153
aI208
aI214
aI200
aI90
aI88
aI84
aI123
aI191
aI119
aI156
aI82
aI196
aI220
aI210
aI99
aI205
aI217
aI122
aI196
aI179
aI163
aI179
aI122
aI130
aI168
aI152
aI173
aI95
aI166
aI211
aI112
aI142
aI126
aI99
aI95
aI215
aI146
aI76
aI208
aI186
aI222
aI142
aI204
aI178
aI156
aI203
aI187
aI139
aI147
aI90
aI217
aI221
aI141
aI221
aI142
aI108
aI196
aI129
aI213
aI189
aI142
aI141
aI132
aI132
aI75
aI216
aI136
aI197
aI224
aI114
aI139
aI163
aI203
aI193
aI203
aI219
aI177
aI205
aI118
aI168
aI151
aI173
aI87
aI116
aI155
aI139
aI213
aI113
aI95
aI96
aI97
aI84
aI129
aI128
aI107
aI101
aI99
aI186
aI142
aI158
aI158
aI137
aI158
aI225
aI224
aI173
aI87
aI98
aI150
aI124
aI221
aI175
aI167
aI95
aI87
aI159
aI185
aI173
aI150
aI192
aI161
aI147
aI126
aI118
aI89
aI151
aI174
aI153
aI207
aI118
aI159
aI184
aI165
aI177
aI108
aI101
aI190
aI190
aI145
aI95
aI131
aI148
aI158
aI78
aI166
aI124
aI205
aI110
aI152
aI223
aI126
aI137
aI206
aI163
aI100
aI190
aI110
aI153
aI226
aI112
aI92
aI145
aI163
aI207
aI153
aI181
aI226
aI101
aI188
aI209
aI217
aI105
aI186
aI108
aI130
aI171
aI184
aI208
aI205
aI106
aI201
aI177
aI149
aI201
aI133
aI113
aI205
aI158
aI222
aI217
aI216
aI206
aI106
aI113
aI225
aI109
aI185
aI175
aI105
aI205
aI100
aI132
aI189
aI191
aI93
aI76
aI83
aI91
aI124
aI130
aI220
aI100
aI208
aI96
aI85
aI198
aI225
aI222
aI112
aI225
aI99
aI141
aI134
aI146
aI100
aI140
aI195
aI155
aI104
aI79
aI127
aI164
aI223
aI133
aI119
aI82
aI217
aI102
aI142
aI91
aI167
aI210
aI149
aI129
aI88
aI216
aI172
aI99
aI185
aI222
aI189
aI93
aI173
aI101
aI195
aI201
aI218
aI124
aI134
aI139
aI225
aI192
aI114
aI78
aI90
aI160
aI153
aI163
aI135
aI225
aI205
aI177
aI126
aI137
aI128
aI167
aI102
aI202
aI147
aI85
aI219
aI79
aI100
aI145
aI146
aI221
aI176
aI183
aI149
aI122
aI204
aI162
aI212
aI198
aI210
aI180
aI158
aI201
aI154
aI92
aI199
aI144
aI98
aI226
aI130
aI76
aI99
aI183
aI216
aI174
aI157
aI99
aI136
aI112
aI139
aI216
aI76
aI199
aI167
aI116
aI91
aI123
aI156
aI201
aI178
aI104
aI75
aI203
aI145
aI155
aI110
aI134
aI155
aI88
aI151
aI105
aI206
aI194
aI222
aI130
aI131
aI171
aI79
aI196
aI201
aI225
aI180
aI214
aI97
aI111
aI198
aI110
aI160
aI213
aI119
aI124
aI188
aI125
aI102
aI118
aI141
aI187
aI196
aI191
aI114
aI147
aI120
aI152
aI130
aI120
aI201
aI98
aI167
aI219
aI182
aI151
aI130
aI210
aI175
aI130
aI162
aI98
aI203
aI123
aI198
aI178
aI152
aI125
aI120
aI118
aI198
aI201
aI212
aI159
aI89
aI139
aI157
aI118
aI164
aI114
aI90
aI124
aI156
aI123
aI219
aI118
aI147
aI220
aI128
aI179
aI190
aI182
aI79
aI76
aI98
aI132
aI182
aI78
aI76
aI218
aI85
aI169
aI92
aI78
aI94
aI126
aI100
aI119
aI173
aI128
aI161
aI113
aI207
aI210
aI220
aI160
aI130
aI145
aI166
aI174
aI88
aI140
aI182
aI125
aI186
aI98
aI216
aI211
aI81
aI223
aI132
aI81
aI168
aI185
aI172
aI77
aI132
aI212
aI162
aI209
aI185
aI191
aI179
aI178
aI80
aI197
aI174
aI180
aI170
aI178
aI171
aI102
aI100
aI136
aI132
aI173
aI115
aI126
aI142
aI143
aI139
aI201
aI116
aI167
aI169
aI225
aI213
aI132
aI171
aI91
aI226
aI226
aI154
aI81
aI150
aI92
aI91
aI162
aI125
aI146
aI142
aI77
aI150
aI165
aI161
aI185
aI148
aI193
aI138
aI86
aI102
aI200
aI104
aI208
aI75
aI225
aI76
aI132
aI221
aI152
aI150
aI186
aI113
aI156
aI128
aI115
aI186
aI176
aI145
aI192
aI142
aI99
aI161
aI129
aI166
aI157
aI223
aI128
aI94
aI130
aI100
aI216
aI206
aI191
aI201
aI166
aI101
aI138
aI143
aI157
aI223
aI121
aI144
aI182
aI124
aI179
aI163
aI141
aI161
aI126
aI186
aI141
aI187
aI186
aI118
aI79
aI201
aI116
aI179
aI138
aI186
aI112
aI191
aI179
aI106
aI112
aI90
aI109
aI139
aI131
aI158
aI125
aI212
aI198
aI102
aI137
aI138
aI162
aI219
aI169
aI204
aI135
aI111
aI143
aI115
aI94
aI160
aI87
aI171
aI101
aI183
aI95
aI124
aI101
aI176
aI95
aI224
aI218
aI99
aI196
aI137
aI156
aI104
aI115
aI173
aI222
aI192
aI205
aI179
aI153
aI135
aI125
aI145
aI177
aI106
aI178
aI206
aI196
aI163
aI192
aI109
aI124
aI121
aI170
aI112
aI89
aI159
aI152
aI225
aI140
aI93
aI115
aI78
aI176
aI80
aI176
aI124
aI107
aI122
aI126
aI208
aI118
aI132
aI91
aI117
aI131
aI89
aI186
aI139
aI196
aI220
aI97
aI169
aI100
aI103
aI131
aI119
aI156
aI175
aI110
aI114
aI121
aI131
aI129
aI180
aI131
aI134
aI205
aI111
aI118
aI122
aI209
aI118
aI176
aI127
aI161
aI214
aI134
aI96
aI149
aI170
aI204
aI208
aI83
aI132
aI89
aI125
aI133
aI108
aI133
aI173
aI144
aI109
aI116
aI130
aI156
aI185
aI75
aI207
aI84
aI102
aI76
aI193
aI93
aI100
aI176
aI94
aI154
aI160
aI153
aI131
aI171
aI114
aI217
aI115
aI221
aI139
aI104
aI77
aI194
aI144
aI202
aI213
aI108
aI187
aI178
aI80
aI166
aI168
aI204
aI126
aI222
aI169
aI159
aI214
aI134
aI111
aI200
aI179
aI81
aI104
aI79
aI200
aI162
aI199
aI120
aI96
aI211
aI91
aI128
aI194
aI160
aI114
aI146
aI197
aI204
aI131
aI139
aI77
aI191
aI189
aI180
aI120
aI132
aI139
aI91
aI148
aI78
aI164
aI147
aI180
aI180
aI144
aI92
aI129
aI131
aI155
aI179
aI192
aI135
aI148
aI154
aI172
aI138
aI126
aI97
aI132
aI215
aI195
aI169
aI139
aI97
aI149
aI219
aI158
aI170
aI158
aI131
aI158
aI221
aI175
aI137
aI200
aI167
aI190
aI97
aI180
aI99
aI214
aI94
aI192
aI110
aI145
aI190
aI173
aI124
aI88
aI204
aI88
aI133
aI100
aI162
aI124
aI215
aI110
aI106
aI182
aI92
aI158
aI81
aI224
aI121
aI158
aI224
aI206
aI199
aI187
aI171
aI98
aI142
aI127
aI191
aI210
aI225
aI78
aI210
aI137
aI224
aI135
aI226
aI136
aI122
aI165
aI224
aI190
aI195
aI78
aI96
aI214
aI129
aI198
aI182
aI204
aI160
aI162
aI191
aI88
aI218
aI130
aI105
aI116
aI134
aI124
aI144
aI78
aI115
aI211
aI222
aI105
aI116
aI93
aI114
aI109
aI100
aI173
aI226
aI119
aI173
aI152
aI180
aI142
aI102
aI183
aI188
aI211
aI189
aI187
aI189
aI192
aI163
aI119
aI217
aI108
aI127
aI75
aI195
aI163
aI85
aI134
aI91
aI226
aI163
aI147
aI151
aI180
aI80
aI211
aI123
aI185
aI130
aI106
aI158
aI179
aI217
aI223
aI172
aI76
aI104
aI140
aI79
aI156
aI162
aI200
aI215
aI147
aI86
aI214
aI90
aI80
aI142
aI187
aI111
aI96
aI95
aI192
aI89
aI219
aI89
aI216
aI114
aI213
aI152
aI225
aI149
aI130
aI207
aI105
aI113
aI188
aI176
aI79
aI138
aI175
aI165
aI113
aI210
aI165
aI77
aI137
aI183
aI159
aI107
aI207
aI158
aI140
aI200
aI211
aI162
aI177
aI145
aI120
aI205
aI82
aI116
aI215
aI178
aI168
aI111
aI147
aI90
aI134
aI141
aI209
aI123
aI170
aI94
aI122
aI177
aI80
aI122
aI119
aI200
aI76
aI220
aI203
aI161
aI110
aI146
aI78
aI155
aI86
aI202
aI211
aI198
aI98
aI207
aI148
aI223
aI95
aI203
aI97
aI219
aI83
aI115
aI188
aI131
aI158
aI96
aI104
aI109
aI207
aI128
aI121
aI191
aI180
aI80
aI166
aI158
aI175
aI95
aI162
aI215
aI166
aI225
aI167
aI110
aI90
aI199
aI138
aI211
aI149
aI214
aI88
aI150
aI85
aI143
aI130
aI75
aI146
aI81
aI156
aI100
aI173
aI183
aI97
aI182
aI122
aI98
aI149
aI174
aI188
aI126
aI161
aI184
aI187
aI218
aI137
aI79
aI175
aI112
aI216
aI99
aI174
aI226
aI214
aI96
aI178
aI226
aI110
aI94
aI179
aI100
aI165
aI182
aI154
aI216
aI146
aI198
aI111
aI120
aI94
aI225
aI169
aI80
aI192
aI153
aI92
aI205
aI114
aI201
aI114
aI119
aI85
aI182
aI122
aI201
aI183
aI143
aI213
aI182
aI99
aI154
aI93
aI147
aI196
aI125
aI114
aI193
aI185
aI101
aI121
aI166
aI193
aI101
aI75
aI163
aI172
aI170
aI222
aI133
aI137
aI94
aI86
aI113
aI87
aI141
aI141
aI193
aI180
aI190
aI141
aI169
aI141
aI96
aI164
aI193
aI120
aI142
aI172
aI116
aI90
aI142
aI114
aI139
aI101
aI75
aI183
aI152
aI97
aI171
aI123
aI92
aI81
aI108
aI211
aI154
aI96
aI172
aI207
aI175
aI208
aI119
aI88
aI108
aI212
aI141
aI176
aI173
aI164
aI87
aI160
aI154
aI178
aI165
aI168
aI175
aI209
aI182
aI79
aI103
aI118
aI222
aI204
aI86
aI196
aI163
aI94
aI165
aI120
aI193
aI216
aI171
aI122
aI80
aI218
aI87
aI83
aI201
aI133
aI128
aI166
aI136
aI199
aI141
aI173
aI99
aI223
aI87
aI164
aI127
aI192
aI95
aI193
aI226
aI107
aI158
aI219
aI190
aI114
aI83
aI181
aI222
aI99
aI78
aI203
aI193
aI94
aI174
aI108
aI164
aI138
aI124
aI186
aI211
aI215
aI188
aI120
aI209
aI101
aI75
aI177
aI135
aI95
aI154
aI142
aI211
aI224
aI187
aI84
aI226
aI215
aI214
aI151
aI78
aI78
aI189
aI88
aI161
aI161
aI166
aI182
aI124
aI214
aI207
aI144
aI89
aI81
aI225
aI222
aI126
aI185
aI77
aI103
aI169
aI122
aI151
aI187
aI104
aI204
aI78
aI214
aI131
aI112
aI180
aI136
aI120
aI196
aI208
aI216
aI221
aI100
aI103
aI180
aI166
aI77
aI124
aI206
aI224
aI212
aI147
aI125
aI197
aI189
aI158
aI78
aI119
aI211
aI193
aI222
aI84
aI165
aI122
aI215
aI104
aI218
aI98
aI147
aI155
aI220
aI110
aI180
aI144
aI140
aI149
aI170
aI195
aI135
aI188
aI223
aI91
aI218
aI173
aI185
aI121
aI185
aI139
aI159
aI148
aI87
aI185
aI134
aI115
aI81
aI148
aI121
aI127
aI112
aI211
aI77
aI222
aI203
aI204
aI179
aI118
aI185
aI132
aI217
aI109
aI214
aI101
aI164
aI167
aI158
aI219
aI130
aI110
aI87
aI164
aI145
aI179
aI120
aI115
aI211
aI201
aI128
aI195
aI82
aI95
aI159
aI195
aI134
aI150
aI163
aI185
aI184
aI99
aI178
aI107
aI181
aI118
aI75
aI113
aI108
aI110
aI133
aI225
aI139
aI157
aI221
aI173
aI141
aI121
aI139
aI104
aI191
aI131
aI173
aI156
aI183
aI199
aI178
aI180
aI82
aI112
aI193
aI212
aI196
aI157
aI186
aI79
aI136
aI174
aI134
aI197
aI119
aI122
aI183
aI197
aI89
aI205
aI118
aI203
aI101
aI212
aI183
aI219
aI133
aI89
aI224
aI120
aI180
aI180
aI183
aI212
aI166
aI206
aI168
aI202
aI78
aI114
aI80
aI176
aI154
aI187
aI222
aI156
aI213
aI206
aI200
aI186
aI87
aI98
aI106
aI220
aI90
aI134
aI76
aI220
aI195
aI179
aI150
aI151
aI133
aI82
aI190
aI150
aI124
aI138
aI154
aI124
aI102
aI206
aI133
aI118
aI150
aI182
aI129
aI182
aI213
aI205
aI157
aI178
aI187
aI75
aI132
aI127
aI184
aI135
aI140
aI103
aI131
aI107
aI191
aI147
aI211
aI200
aI181
aI114
aI99
aI219
aI153
aI202
aI94
aI205
aI115
aI174
aI129
aI176
aI200
aI148
aI192
aI80
aI183
aI122
aI144
aI194
aI223
aI80
aI225
aI125
aI214
aI188
aI120
aI90
aI188
aI174
aI142
aI173
aI149
aI94
aI158
aI120
aI163
aI202
aI166
aI92
aI106
aI178
aI75
aI152
aI140
aI120
aI97
aI206
aI118
aI120
aI209
aI99
aI146
aI134
aI128
aI200
aI178
aI224
aI144
aI223
aI130
aI92
aI208
aI89
aI202
aI122
aI132
aI109
aI165
aI76
aI209
aI223
aI217
aI95
aI150
aI212
aI184
aI217
aI153
aI212
aI142
aI192
aI76
aI140
aI183
aI113
aI109
aI108
aI118
aI116
aI203
aI164
aI85
aI199
aI151
aI97
aI165
aI154
aI226
aI158
aI108
aI215
aI179
aI157
aI185
aI86
aI221
aI185
aI208
aI115
aI122
aI117
aI215
aI171
aI169
aI137
aI162
aI135
aI137
aI96
aI132
aI195
aI155
aI101
aI161
aI167
aI224
aI125
aI143
aI76
aI173
aI197
aI210
aI155
aI217
aI188
aI195
aI112
aI95
aI97
aI101
aI175
aI81
aI134
aI114
aI167
aI175
aI97
aI203
aI180
aI206
aI95
aI151
aI83
aI165
aI204
aI149
aI196
aI167
aI79
aI144
aI86
aI208
aI147
aI85
aI214
aI85
aI173
aI142
aI121
aI152
aI147
aI179
aI187
aI202
aI88
aI196
aI191
aI174
aI144
aI94
aI85
aI187
aI79
aI109
aI177
aI223
aI154
aI169
aI169
aI169
aI163
aI120
aI108
aI149
aI212
aI160
aI213
aI142
aI98
aI94
aI209
aI133
aI146
aI123
aI200
aI88
aI199
aI133
aI120
aI214
aI105
aI86
aI119
aI155
aI103
aI156
aI86
aI118
aI140
aI136
aI130
aI209
aI123
aI215
aI224
aI100
aI110
aI147
aI166
aI123
aI194
aI144
aI176
aI108
aI78
aI112
aI110
aI185
aI142
aI147
aI128
aI141
aI153
aI224
aI113
aI213
aI117
aI192
aI106
aI102
aI164
aI200
aI222
aI129
aI123
aI214
aI123
aI220
aI87
aI99
aI81
aI193
aI219
aI207
aI209
aI162
aI75
aI142
aI131
aI191
aI194
aI116
aI76
aI114
aI156
aI127
aI204
aI204
aI109
aI149
aI76
aI102
aI211
aI127
aI81
aI159
aI166
aI106
aI222
aI141
aI98
aI78
aI223
aI106
aI129
aI110
aI98
aI180
aI150
aI100
aI77
aI87
aI226
aI211
aI174
aI214
aI197
aI208
aI99
aI224
aI83
aI204
aI172
aI173
aI164
aI115
aI81
aI107
aI113
aI203
aI199
aI147
aI189
aI189
aI175
aI213
aI116
aI88
aI76
aI92
aI117
aI212
aI207
aI104
aI199
aI165
aI136
aI198
aI213
aI104
aI200
aI152
aI182
aI89
aI156
aI169
aI157
aI117
aI149
aI120
aI84
aI138
aI162
aI93
aI92
aI167
aI171
aI113
aI161
aI89
aI98
aI146
aI103
aI84
aI209
aI98
aI222
aI141
aI223
aI101
aI84
aI136
aI225
aI159
aI98
aI85
aI212
aI150
aI189
aI136
aI167
aI102
aI208
aI155
aI75
aI134
aI174
aI103
aI94
aI77
aI155
aI194
aI207
aI226
aI214
aI190
aI224
aI96
aI213
aI171
aI147
aI158
aI155
aI185
aI153
aI155
aI226
aI202
aI185
aI103
aI221
aI175
aI88
aI166
aI201
aI154
aI122
aI175
aI145
aI141
aI204
aI127
aI209
aI182
aI154
aI199
aI85
aI128
aI147
aI180
aI84
aI123
aI217
aI107
aI162
aI161
aI162
aI103
aI199
aI198
aI207
aI164
aI141
aI106
aI215
aI192
aI123
aI173
aI145
aI90
aI155
aI172
aI113
aI182
aI177
aI190
aI208
aI76
aI96
aI146
aI134
aI98
aI114
aI175
aI94
aI157
aI163
aI124
aI226
aI195
aI176
aI164
aI174
aI137
aI144
aI202
aI176
aI189
aI115
aI76
aI83
aI117
aI92
aI98
aI138
aI106
aI225
aI182
aI207
aI219
aI214
aI148
aI145
aI160
aI96
aI119
aI119
aI205
aI125
aI203
aI98
aI158
aI138
aI201
aI142
aI169
aI163
aI141
aI89
aI110
aI112
aI212
aI156
aI183
aI136
aI127
aI103
aI214
aI161
aI160
aI151
aI100
aI143
aI185
aI151
aI156
aI162
aI130
aI183
aI182
aI127
aI198
aI209
aI213
aI144
aI141
aI194
aI189
aI108
aI110
aI149
aI202
aI214
aI87
aI193
aI210
aI129
aI217
aI137
aI141
aI139
aI177
aI222
aI188
aI132
aI82
aI101
aI216
aI95
aI204
aI119
aI75
aI99
aI118
aI170
aI145
aI136
aI130
aI120
aI85
aI175
aI149
aI95
aI94
aI80
aI188
aI159
aI111
aI125
aI122
aI134
aI208
aI148
aI112
aI213
aI135
aI102
aI75
aI112
aI109
aI111
aI121
aI78
aI79
aI114
aI208
aI169
aI166
aI212
aI177
aI120
aI178
aI160
aI175
aI104
aI201
aI116
aI177
aI143
aI85
aI92
aI220
aI163
aI99
aI215
aI122
aI95
aI115
aI208
aI75
aI186
aI84
aI184
aI78
aI82
aI113
aI110
aI154
aI198
aI92
aI97
aI93
aI150
aI129
aI101
aI113
aI85
aI95
aI142
aI175
aI158
aI93
aI162
aI171
aI131
aI172
aI211
aI162
aI214
aI155
aI165
aI93
aI79
aI91
aI154
aI166
aI224
aI78
aI105
aI153
aI102
aI225
aI178
aI167
aI189
aI184
aI120
aI169
aI194
aI75
aI165
aI157
aI207
aI207
aI220
aI169
aI82
aI124
aI107
aI156
aI193
aI151
aI151
aI163
aI140
aI202
aI224
aI88
aI161
aI80
aI103
aI133
aI133
aI205
aI155
aI108
aI136
aI95
aI154
aI116
aI92
aI106
aI197
aI185
aI217
aI213
aI136
aI182
aI154
aI175
aI139
aI126
aI97
aI132
aI91
aI83
aI114
aI138
aI192
aI204
aI217
aI104
aI146
aI224
aI166
aI131
aI113
aI165
aI134
aI117
aI179
aI97
aI198
aI173
aI78
aI112
aI192
aI165
aI218
aI145
aI195
aI134
aI151
aI139
aI157
aI130
aI190
aI193
aI141
aI84
aI187
aI126
aI114
aI215
aI81
aI157
aI161
aI217
aI201
aI131
aI152
aI127
aI202
aI167
aI197
aI118
aI112
aI113
aI201
aI82
aI163
aI137
aI112
aI104
aI119
aI166
aI181
aI135
aI205
aI218
aI179
aI119
aI122
aI94
aI183
aI161
aI134
aI178
aI192
aI76
aI118
aI82
aI213
aI146
aI127
aI192
aI146
aI217
aI170
aI185
aI152
aI138
aI161
aI149
aI207
aI103
aI148
aI84
aI150
aI181
aI217
aI157
aI190
aI155
aI151
aI183
aI204
aI114
aI215
aI165
aI103
aI115
aI196
aI216
aI106
aI136
aI78
aI212
aI99
aI198
aI141
aI94
aI179
aI193
aI167
aI79
aI99
aI222
aI115
aI198
aI222
aI223
aI120
aI162
aI169
aI133
aI223
aI168
aI116
aI108
aI179
aI210
aI216
aI204
aI181
aI158
aI129
aI186
aI170
aI115
aI143
aI136
aI100
aI152
aI136
aI176
aI75
aI113
aI176
aI156
aI159
aI178
aI111
aI169
aI99
aI187
aI106
aI211
aI206
aI181
aI118
aI204
aI99
aI175
aI139
aI92
aI95
aI143
aI204
aI174
aI188
aI189
aI75
aI167
aI210
aI210
aI111
aI152
aI82
aI121
aI170
aI113
aI226
aI208
aI155
aI100
aI88
aI202
aI165
aI179
aI144
aI183
aI81
aI149
aI101
aI166
aI93
aI170
aI197
aI226
aI192
aI146
aI84
aI200
aI158
aI188
aI183
aI114
aI170
aI129
aI117
aI148
aI170
aI97
aI183
aI191
aI163
aI163
aI226
aI174
aI178
aI126
aI94
aI168
aI178
aI125
aI109
aI154
aI182
aI112
aI175
aI173
aI219
aI181
aI179
aI102
aI137
aI112
aI153
aI77
aI117
aI104
aI97
aI136
aI132
aI104
aI186
aI81
aI102
aI186
aI116
aI197
aI188
aI126
aI198
aI167
aI195
aI128
aI141
aI215
aI99
aI101
aI104
aI134
aI153
aI198
aI152
aI205
aI160
aI141
aI129
aI116
aI207
aI155
aI188
aI114
aI187
aI101
aI94
aI192
aI98
aI122
aI224
aI92
aI170
aI160
aI156
aI198
aI161
aI84
aI129
aI96
aI208
aI160
aI114
aI88
aI178
aI108
aI196
aI146
aI189
aI119
aI200
aI95
aI211
aI154
aI166
aI85
aI117
aI76
aI140
aI224
aI144
aI93
aI180
aI118
aI93
aI221
aI190
aI151
aI202
aI178
aI164
aI157
aI134
aI96
aI181
aI128
aI141
aI225
aI214
aI170
aI182
aI180
aI157
aI173
aI98
aI225
aI214
aI153
aI90
aI159
aI219
aI188
aI142
aI162
aI205
aI159
aI90
aI207
aI168
aI85
aI224
aI183
aI224
aI140
aI201
aI206
aI150
aI152
aI196
aI136
aI135
aI223
aI77
aI205
aI190
aI130
aI142
aI83
aI139
aI207
aI116
aI76
aI176
aI82
aI115
aI131
aI99
aI168
aI111
aI150
aI87
aI147
aI127
aI221
aI77
aI124
aI143
aI166
aI137
aI210
aI146
aI79
aI125
aI137
aI191
aI179
aI153
aI82
aI195
aI157
aI82
aI141
aI185
aI99
aI100
aI128
aI223
aI198
aI195
aI151
aI187
aI84
aI94
aI133
aI204
aI117
aI164
aI176
aI76
aI191
aI222
aI143
aI176
aI98
aI217
aI166
aI87
aI190
aI212
aI183
aI219
aI97
aI83
aI92
aI113
aI105
aI129
aI144
aI194
aI149
aI154
aI93
aI76
aI122
aI156
aI200
aI189
aI142
aI131
aI131
aI191
aI113
aI105
aI89
aI210
aI163
aI205
aI92
aI199
aI221
aI179
aI190
aI100
aI187
aI84
aI151
aI146
aI170
aI93
aI214
aI112
aI165
aI159
aI78
aI76
aI170
aI157
aI127
aI221
aI107
aI143
aI120
aI172
aI136
aI201
aI193
aI123
aI80
aI94
aI171
aI160
aI158
aI87
aI76
aI166
aI107
aI223
aI157
aI77
aI89
aI210
aI97
aI155
aI150
aI163
aI135
aI75
aI86
aI79
aI180
aI150
aI191
aI86
aI174
aI183
aI179
aI214
aI113
aI78
aI153
aI224
aI187
aI92
aI94
aI221
aI137
aI183
aI169
aI196
aI122
aI92
aI167
aI184
aI147
aI155
aI111
aI205
aI87
aI202
aI132
aI192
aI127
aI177
aI86
aI114
aI196
aI214
aI167
aI215
aI112
aI154
aI191
aI204
aI172
aI173
aI116
aI119
aI182
aI163
aI163
aI181
aI201
aI199
aI153
aI218
aI201
aI200
aI203
aI196
aI95
aI177
aI188
aI107
aI114
aI157
aI161
aI111
aI221
aI188
aI213
aI172
aI144
aI216
aI94
aI181
aI130
aI138
aI144
aI206
aI194
aI118
aI100
aI85
aI124
aI149
aI153
aI226
aI209
aI207
aI156
aI220
aI193
aI169
aI211
aI79
aI103
aI193
aI218
aI121
aI163
aI90
aI211
aI90
aI207
aI225
aI169
aI135
aI223
aI137
aI175
aI171
aI130
aI100
aI144
aI84
aI129
aI196
aI127
aI143
aI202
aI117
aI215
aI221
aI77
aI107
aI198
aI104
aI192
aI96
aI193
aI147
aI83
aI153
aI137
aI151
aI197
aI148
aI137
aI93
aI83
aI138
aI181
aI128
aI167
aI116
aI197
aI201
aI103
aI126
aI170
aI193
aI146
aI147
aI206
aI157
aI197
aI210
aI197
aI137
aI200
aI115
aI158
aI178
aI130
aI215
aI111
aI78
aI123
aI115
aI89
aI152
aI120
aI196
aI142
aI89
aI209
aI81
aI98
aI101
aI216
aI146
aI190
aI117
aI178
aI101
aI86
aI151
aI151
aI81
aI193
aI128
aI145
aI138
aI125
aI110
aI122
aI85
aI127
aI114
aI119
aI223
aI190
aI160
aI110
aI84
aI82
aI196
aI96
aI95
aI95
aI83
aI117
aI155
aI223
aI223
aI186
aI176
aI170
aI202
aI88
aI122
aI130
aI216
aI182
aI212
aI94
aI205
aI191
aI160
aI136
aI201
aI211
aI75
aI148
aI131
aI192
aI86
aI185
aI160
aI90
aI125
aI214
aI200
aI152
aI192
aI143
aI105
aI108
aI159
aI221
aI124
aI94
aI204
aI105
aI79
aI138
aI121
aI169
aI217
aI90
aI189
aI137
aI119
aI151
aI220
aI213
aI159
aI95
aI179
aI202
aI176
aI115
aI189
aI110
aI224
aI202
aI169
aI192
aI193
aI152
aI205
aI97
aI140
aI148
aI79
aI170
aI176
aI142
aI204
aI219
aI116
aI152
aI164
aI178
aI102
aI141
aI153
aI103
aI205
aI109
aI161
aI82
aI83
aI117
aI172
aI163
aI180
aI220
aI168
aI153
aI167
aI221
aI121
aI217
aI88
aI225
aI165
aI112
aI190
aI87
aI104
aI203
aI119
aI161
aI150
aI96
aI80
aI128
aI166
aI216
aI124
aI224
aI180
aI182
aI158
aI107
aI88
aI126
aI135
aI140
aI225
aI79
aI165
aI203
aI125
aI225
aI175
aI148
aI182
aI114
aI187
aI213
aI174
aI172
aI186
aI100
aI147
aI110
aI205
aI218
aI164
aI143
aI161
aI215
aI150
aI138
aI152
aI78
aI217
aI144
aI211
aI217
aI161
aI210
aI190
aI177
aI158
aI208
aI77
aI186
aI149
aI225
aI112
aI157
aI143
aI201
aI199
aI179
aI179
aI87
aI209
aI126
aI91
aI151
aI212
aI131
aI201
aI218
aI192
aI81
aI206
aI114
aI180
aI78
aI157
aI222
aI144
aI124
aI105
aI163
aI197
aI160
aI94
aI125
aI222
aI213
aI115
aI197
aI120
aI207
aI140
aI136
aI153
aI145
aI98
aI220
aI215
aI194
aI186
aI170
aI155
aI128
aI152
aI211
aI136
aI85
aI172
aI164
aI129
aI148
aI121
aI110
aI125
aI131
aI95
aI149
aI151
aI170
aI167
aI122
aI155
aI160
aI225
aI153
aI202
aI155
aI144
aI139
aI77
aI88
aI198
aI106
aI185
aI112
aI179
aI90
aI181
aI88
aI137
aI155
aI192
aI154
aI173
aI156
aI122
aI89
aI182
aI126
aI161
aI156
aI224
aI200
aI127
aI215
aI90
aI178
aI102
aI214
aI119
aI224
aI179
aI97
aI183
aI177
aI188
aI216
aI175
aI201
aI126
aI145
aI180
aI79
aI166
aI211
aI159
aI131
aI195
aI184
aI186
aI149
aI91
aI103
aI110
aI108
aI160
aI82
aI143
aI143
aI101
aI136
aI196
aI76
aI151
aI204
aI103
aI221
aI147
aI119
aI78
aI202
aI208
aI160
aI89
aI153
aI187
aI100
aI115
aI92
aI221
aI186
aI198
aI201
aI165
aI218
aI104
aI195
aI77
aI111
aI109
aI225
aI164
aI130
aI112
aI171
aI184
aI131
aI201
aI166
aI167
aI201
aI209
aI161
aI214
aI105
aI129
aI170
aI116
aI85
aI106
aI86
aI160
aI176
aI144
aI214
aI110
aI185
aI210
aI196
aI191
aI193
aI147
aI106
aI190
aI104
aI191
aI192
aI98
aI168
aI153
aI131
aI213
aI197
aI101
aI190
aI147
aI177
aI205
aI190
aI86
aI148
aI129
aI155
aI214
aI118
aI129
aI86
aI202
aI133
aI127
aI122
aI91
aI154
aI219
aI112
aI145
aI105
aI160
aI217
aI223
aI149
aI118
aI226
aI181
aI177
aI210
aI190
aI162
aI136
aI193
aI204
aI143
aI90
aI216
aI130
aI147
aI195
aI207
aI157
aI151
aI137
aI210
aI193
aI133
aI164
aI159
aI200
aI88
aI200
aI144
aI99
aI93
aI80
aI208
aI221
aI103
aI209
aI92
aI97
aI89
aI90
aI183
aI83
aI83
aI154
aI131
aI83
aI76
aI119
aI120
aI129
aI209
aI107
aI84
aI171
aI84
aI129
aI155
aI224
aI214
aI99
aI193
aI190
aI112
aI203
aI169
aI114
aI86
aI203
aI170
aI170
aI121
aI114
aI150
aI181
aI179
aI158
aI84
aI147
aI181
aI197
aI90
aI108
aI153
aI154
aI193
aI111
aI173
aI195
aI123
aI178
aI175
aI112
aI136
aI178
aI222
aI163
aI112
aI135
aI211
aI106
aI163
aI158
aI156
aI199
aI88
aI152
aI146
aI184
aI124
aI175
aI164
aI160
aI141
aI140
aI155
aI179
aI188
aI215
aI119
aI181
aI171
aI209
aI126
aI129
aI94
aI91
aI88
aI82
aI154
aI218
aI188
aI194
aI218
aI137
aI223
aI182
aI199
aI137
aI144
aI184
aI136
aI115
aI162
aI118
aI196
aI117
aI131
aI185
aI208
aI144
aI124
aI89
aI98
aI99
aI168
aI83
aI206
aI215
aI102
aI138
aI99
aI102
aI151
aI219
aI79
aI109
aI95
aI222
aI85
aI159
aI136
aI142
aI150
aI100
aI186
aI150
aI159
aI87
aI127
aI198
aI126
aI108
aI111
aI96
aI207
aI220
aI153
aI220
aI76
aI80
aI144
aI199
aI218
aI191
aI83
aI133
aI171
aI154
aI78
aI89
aI198
aI162
aI209
aI91
aI172
aI121
aI188
aI150
aI204
aI218
aI97
aI152
aI150
aI173
aI158
aI100
aI222
aI151
aI201
aI138
aI97
aI100
aI86
aI144
aI134
aI136
aI88
aI112
aI98
aI118
aI219
aI209
aI193
aI89
aI135
aI83
aI151
aI133
aI198
aI180
aI137
aI161
aI129
aI76
aI195
aI100
aI226
aI128
aI85
aI147
aI100
aI136
aI220
aI168
aI156
aI135
aI134
aI113
aI113
aI205
aI220
aI179
aI132
aI160
aI132
aI152
aI199
aI166
aI107
aI200
aI144
aI163
aI187
aI160
aI224
aI156
aI149
aI126
aI223
aI112
aI196
aI200
aI222
aI214
aI109
aI223
aI118
aI223
aI226
aI213
aI113
aI162
aI128
aI201
aI103
aI133
aI106
aI170
aI161
aI102
aI110
aI202
aI191
aI84
aI177
aI89
aI77
aI185
aI175
aI184
aI206
aI195
aI142
aI119
aI114
aI204
aI123
aI81
aI107
aI89
aI214
aI82
aI87
aI194
aI77
aI160
aI81
aI220
aI226
aI151
aI135
aI160
aI78
aI162
aI131
aI201
aI204
aI103
aI224
aI207
aI114
aI150
aI175
aI78
aI98
aI219
aI75
aI157
aI165
aI147
aI142
aI187
aI179
aI185
aI131
aI181
aI85
aI205
aI85
aI118
aI164
aI188
aI123
aI213
aI111
aI130
aI104
aI76
aI155
aI220
aI203
aI226
aI89
aI117
aI155
aI103
aI142
aI106
aI162
aI203
aI146
aI144
aI195
aI94
aI134
aI133
aI157
aI157
aI178
aI124
aI98
aI225
aI118
aI128
aI221
aI141
aI174
aI196
aI223
aI150
aI209
aI169
aI135
aI188
aI145
aI196
aI141
aI211
aI75
aI176
aI101
aI178
aI98
aI77
aI152
aI196
aI213
aI223
aI198
aI142
aI88
aI129
aI99
aI98
aI134
aI159
aI181
aI217
aI96
aI139
aI104
aI200
aI156
aI167
aI196
aI143
aI194
aI84
aI174
aI130
aI154
aI166
aI203
aI93
aI107
aI188
aI208
aI134
aI76
aI116
aI173
aI127
aI177
aI134
aI182
aI83
aI203
aI170
aI140
aI136
aI86
aI116
aI121
aI166
aI174
aI91
aI153
aI172
aI122
aI113
aI129
aI161
aI182
aI211
aI166
aI155
aI219
aI142
aI164
aI155
aI174
aI211
aI85
aI171
aI131
aI220
aI187
aI101
aI120
aI192
aI142
aI109
aI119
aI182
aI126
aI134
aI212
aI93
aI201
aI140
aI223
aI105
aI78
aI86
aI183
aI219
aI130
aI179
aI121
aI106
aI152
aI116
aI95
aI126
aI209
aI185
aI157
aI91
aI107
aI215
aI150
aI169
aI119
aI86
aI90
aI197
aI90
aI93
aI166
aI214
aI223
aI140
aI134
aI202
aI150
aI100
aI205
aI93
aI87
aI80
aI148
aI218
aI134
aI133
aI135
aI122
aI77
aI189
aI206
aI156
aI214
aI127
aI162
aI81
aI224
aI105
aI116
aI125
aI147
aI201
aI187
aI75
aI157
aI224
aI195
aI222
aI92
aI117
aI200
aI208
aI152
aI144
aI183
aI139
aI80
aI101
aI218
aI226
aI82
aI193
aI84
aI216
aI113
aI91
aI170
aI80
aI166
aI80
aI81
aI80
aI170
aI210
aI190
aI86
aI172
aI131
aI152
aI165
aI165
aI174
aI222
aI98
aI203
aI170
aI178
aI124
aI104
aI155
aI126
aI197
aI162
aI111
aI191
aI178
aI221
aI140
aI130
aI98
aI86
aI213
aI95
aI124
aI198
aI102
aI148
aI122
aI94
aI77
aI163
aI162
aI93
aI125
aI226
aI96
aI116
aI145
aI197
aI183
aI213
aI135
aI203
aI115
aI96
aI164
aI172
aI90
aI152
aI116
aI163
aI194
aI173
aI103
aI82
aI110
aI225
aI158
aI194
aI107
aI208
aI195
aI205
aI155
aI98
aI174
aI78
aI125
aI132
aI201
aI123
aI140
aI127
aI199
aI103
aI124
aI220
aI191
aI154
aI219
aI210
aI216
aI153
aI137
aI207
aI178
aI180
aI94
aI109
aI96
aI165
aI171
aI220
aI118
aI172
aI78
aI123
aI117
aI212
aI117
aI191
aI171
aI104
aI103
aI146
aI187
aI216
aI177
aI148
aI101
aI144
aI132
aI148
aI149
aI133
aI224
aI162
aI85
aI188
aI95
aI156
aI226
aI84
aI206
aI191
aI222
aI104
aI116
aI113
aI113
aI174
aI91
aI157
aI109
aI127
aI94
aI124
aI93
aI144
aI150
aI211
aI81
aI205
aI109
aI95
aI218
aI98
aI135
aI124
aI137
aI179
aI90
aI86
aI87
aI222
aI77
aI187
aI165
aI129
aI143
aI80
aI88
aI212
aI152
aI97
aI155
aI149
aI215
aI158
aI175
aI165
aI133
aI140
aI201
aI77
aI162
aI150
aI83
aI167
aI210
aI223
aI131
aI134
aI153
aI129
aI187
aI87
aI103
aI174
aI148
aI163
aI111
aI161
aI116
aI149
aI190
aI221
aI178
aI144
aI102
aI115
aI123
aI150
aI165
aI113
aI119
aI205
aI187
aI129
aI120
aI118
aI84
aI170
aI136
aI156
aI137
aI160
aI162
aI211
aI200
aI216
aI141
aI89
aI107
aI110
aI83
aI183
aI90
aI205
aI112
aI165
aI104
aI188
aI137
aI216
aI181
aI155
aI139
aI210
aI125
aI128
aI167
aI175
aI180
aI188
aI188
aI90
aI202
aI184
aI99
aI129
aI152
aI203
aI133
aI180
aI155
aI149
aI80
aI187
aI82
aI137
aI216
aI206
aI161
aI130
aI111
aI122
aI95
aI193
aI145
aI127
aI103
aI189
aI105
aI211
aI165
aI97
aI209
aI145
aI120
aI215
aI199
aI202
aI214
aI159
aI117
aI207
aI161
aI154
aI130
aI115
aI165
aI126
aI157
aI172
aI181
aI109
aI221
aI187
aI90
aI186
aI213
aI185
aI106
aI90
aI217
aI110
aI223
aI216
aI215
aI101
aI90
aI200
aI88
aI130
aI99
aI184
aI82
aI132
aI123
aI220
aI180
aI167
aI80
aI206
aI111
aI199
aI193
aI180
aI216
aI113
aI166
aI197
aI172
aI188
aI86
aI133
aI81
aI197
aI76
aI191
aI77
aI127
aI220
aI172
aI214
aI205
aI124
aI214
aI97
aI209
aI134
aI190
aI126
aI204
aI90
aI81
aI84
aI119
aI152
aI152
aI217
aI133
aI155
aI212
aI131
aI102
aI139
aI111
aI192
aI86
aI135
aI78
aI181
aI150
aI122
aI201
aI134
aI100
aI97
aI134
aI183
aI188
aI166
aI223
aI201
aI98
aI160
aI180
aI134
aI208
aI91
aI222
aI179
aI212
aI102
aI174
aI139
aI163
aI168
aI149
aI136
aI213
aI184
aI192
aI209
aI130
aI128
aI188
aI187
aI118
aI97
aI112
aI225
aI212
aI147
aI216
aI106
aI200
aI186
aI95
aI221
aI142
aI207
aI107
aI114
aI225
aI94
aI208
aI95
aI99
aI192
aI172
aI76
aI78
aI217
aI113
aI79
aI187
aI104
aI94
aI173
aI123
aI197
aI97
aI183
aI98
aI217
aI189
aI151
aI167
aI170
aI149
aI93
aI203
aI95
aI225
aI189
aI145
aI199
aI152
aI116
aI208
aI130
aI148
aI98
aI207
aI159
aI98
aI178
aI204
aI105
aI176
aI170
aI194
aI156
aI141
aI100
aI132
aI196
aI130
aI107
aI186
aI131
aI117
aI209
aI188
aI145
aI167
aI112
aI108
aI75
aI220
aI159
aI169
aI184
aI132
aI224
aI118
aI131
aI140
aI179
aI126
aI135
aI119
aI171
aI139
aI163
aI86
aI174
aI207
aI105
aI127
aI188
aI209
aI205
aI94
aI130
aI90
aI226
aI104
aI77
aI118
aI191
aI126
aI220
aI173
aI217
aI105
aI226
aI110
aI144
aI172
aI125
aI196
aI92
aI104
aI142
aI158
aI188
aI201
aI138
aI82
aI132
aI164
aI180
aI173
aI89
aI166
aI207
aI90
aI126
aI192
aI150
aI122
aI210
aI173
aI105
aI142
aI141
aI82
aI121
aI186
aI209
aI203
aI184
aI176
aI104
aI187
aI112
aI163
aI138
aI147
aI145
aI134
aI87
aI88
aI107
aI187
aI201
aI101
aI102
aI127
aI164
aI160
aI112
aI138
aI144
aI75
aI142
aI131
aI219
aI208
aI109
aI102
aI155
aI182
aI169
aI106
aI136
aI223
aI97
aI94
aI185
aI213
aI200
aI158
aI78
aI179
aI110
aI171
aI212
aI105
aI110
aI190
aI218
aI123
aI121
aI100
aI140
aI165
aI130
aI151
aI122
aI221
aI190
aI101
aI90
aI102
aI200
aI135
aI210
aI220
aI99
aI81
aI214
aI106
aI181
aI130
aI83
aI95
aI220
aI117
aI159
aI226
aI206
aI140
aI179
aI167
aI185
aI194
aI115
aI115
aI135
aI181
aI120
aI218
aI124
aI103
aI108
aI169
aI165
aI191
aI156
aI203
aI110
aI157
aI180
aI78
aI154
aI108
aI91
aI86
aI95
aI209
aI220
aI121
aI131
aI217
aI209
aI219
aI152
aI85
aI176
aI201
aI217
aI223
aI225
aI173
aI138
aI147
aI162
aI77
aI223
aI160
aI115
aI152
aI100
aI93
aI160
aI89
aI94
aI97
aI167
aI217
aI120
aI162
aI182
aI97
aI151
aI94
aI190
aI97
aI104
aI222
aI158
aI122
aI158
aI100
aI98
aI160
aI196
aI130
aI151
aI110
aI166
aI123
aI215
aI165
aI128
aI217
aI99
aI214
aI168
aI96
aI84
aI187
aI103
aI119
aI180
aI138
aI168
aI140
aI83
aI144
aI199
aI94
aI166
aI155
aI78
aI208
aI101
aI145
aI198
aI207
aI95
aI116
aI104
aI103
aI143
aI196
aI89
aI198
aI168
aI212
aI138
aI115
aI158
aI169
aI214
aI145
aI112
aI188
aI99
aI213
aI148
aI150
aI152
aI151
aI100
aI218
aI135
aI109
aI157
aI207
aI82
aI168
aI186
aI213
aI170
aI218
aI118
aI135
aI124
aI186
aI85
aI196
aI112
aI172
aI193
aI184
aI204
aI139
aI212
aI101
aI89
aI124
aI164
aI215
aI77
aI170
aI184
aI142
aI165
aI105
aI116
aI173
aI210
aI99
aI86
aI92
aI98
aI219
aI158
aI166
aI195
aI154
aI223
aI225
aI176
aI83
aI148
aI136
aI115
aI142
aI198
aI162
aI126
aI221
aI214
aI168
aI98
aI205
aI178
aI204
aI87
aI204
aI77
aI126
aI222
aI189
aI87
aI155
aI148
aI91
aI138
aI123
aI113
aI204
aI79
aI127
aI86
aI178
aI174
aI221
aI102
aI132
aI108
aI94
aI166
aI93
aI150
aI160
aI178
aI216
aI174
aI147
aI214
aI82
aI159
aI115
aI85
aI183
aI111
aI180
aI86
aI178
aI178
aI125
aI86
aI191
aI174
aI178
aI171
aI194
aI175
aI202
aI94
aI92
aI150
aI166
aI124
aI198
aI175
aI109
aI184
aI100
aI215
aI168
aI95
aI168
aI170
aI156
aI122
aI194
aI166
aI173
aI156
aI82
aI139
aI207
aI155
aI137
aI127
aI144
aI114
aI201
aI212
aI130
aI133
aI76
aI131
aI191
aI82
aI201
aI131
aI136
aI114
aI215
aI206
aI222
aI87
aI218
aI159
aI223
aI214
aI159
aI78
aI217
aI201
aI178
aI217
aI149
aI86
aI180
aI197
aI96
aI155
aI115
aI142
aI172
aI76
aI196
aI98
aI152
aI222
aI194
aI154
aI117
aI182
aI97
aI96
aI123
aI143
aI109
aI106
aI144
aI94
aI164
aI159
aI131
aI187
aI172
aI188
aI118
aI167
aI204
aI137
aI222
aI143
aI196
aI137
aI113
aI86
aI83
aI206
aI164
aI213
aI91
aI185
aI190
aI111
aI196
aI107
aI132
aI184
aI148
aI80
aI170
aI122
aI105
aI209
aI176
aI141
aI207
aI199
aI167
aI172
aI142
aI211
aI131
aI137
aI181
aI91
aI145
aI141
aI197
aI115
aI136
aI158
aI169
aI116
aI118
aI178
aI82
aI164
aI169
aI216
aI150
aI207
aI84
aI86
aI200
aI166
aI166
aI169
aI135
aI99
aI87
aI105
aI200
aI97
aI220
aI203
aI122
aI139
aI146
aI83
aI115
aI124
aI75
aI85
aI130
aI159
aI155
aI94
aI153
aI219
aI134
aI184
aI123
aI155
aI103
aI144
aI111
aI107
aI211
aI211
aI125
aI205
aI76
aI93
aI104
aI107
aI102
aI125
aI78
aI213
aI106
aI205
aI162
aI100
aI75
aI95
aI178
aI101
aI83
aI147
aI111
aI102
aI149
aI127
aI98
aI189
aI202
aI123
aI203
aI110
aI143
aI212
aI170
aI183
aI96
aI144
aI111
aI201
aI88
aI137
aI115
aI208
aI183
aI99
aI89
aI153
aI213
aI183
aI165
aI147
aI222
aI190
aI87
aI102
aI88
aI222
aI167
aI187
aI167
aI166
aI98
aI202
aI94
aI124
aI139
aI78
aI142
aI157
aI143
aI119
aI102
aI182
aI79
aI178
aI174
aI109
aI156
aI199
aI200
aI130
aI224
aI209
aI101
aI158
aI131
aI143
aI186
aI193
aI164
aI121
aI210
aI132
aI158
aI190
aI224
aI218
aI150
aI120
aI184
aI162
aI136
aI221
aI78
aI119
aI91
aI213
aI190
aI78
aI122
aI211
aI213
aI119
aI201
aI116
aI134
aI213
aI81
aI204
aI133
aI172
aI221
aI215
aI85
aI105
aI176
aI217
aI219
aI207
aI137
aI107
aI140
aI115
aI87
aI98
aI142
aI200
aI81
aI87
aI168
aI93
aI210
aI168
aI112
aI161
aI129
aI77
aI162
aI106
aI102
aI88
aI95
aI81
aI122
aI128
aI173
aI153
aI103
aI94
aI128
aI213
aI165
aI202
aI125
aI93
aI128
aI196
aI145
aI125
aI195
aI192
aI204
aI100
aI118
aI208
aI208
aI100
aI132
aI183
aI178
aI94
aI191
aI133
aI89
aI104
aI201
aI119
aI78
aI151
aI185
aI108
aI213
aI133
aI176
aI184
aI107
aI139
aI113
aI208
aI220
aI138
aI84
aI197
aI86
aI140
aI116
aI221
aI148
aI194
aI80
aI161
aI99
aI197
aI115
aI115
aI81
aI220
aI137
aI182
aI115
aI174
aI86
aI203
aI164
aI133
aI139
aI138
aI115
aI100
aI135
aI126
aI182
aI165
aI204
aI128
aI192
aI168
aI103
aI215
aI87
aI215
aI139
aI223
aI144
aI98
aI176
aI97
aI166
aI175
aI81
aI202
aI195
aI223
aI125
aI196
aI201
aI211
aI174
aI208
aI155
aI89
aI200
aI101
aI204
aI194
aI105
aI170
aI189
aI191
aI189
aI100
aI78
aI127
aI173
aI96
aI213
aI223
aI132
aI110
aI137
aI79
aI169
aI76
aI95
aI195
aI107
aI153
aI155
aI126
aI97
aI125
aI82
aI106
aI159
aI123
aI163
aI107
aI144
aI93
aI121
aI81
aI162
aI215
aI120
aI122
aI97
aI104
aI205
aI205
aI219
aI213
aI81
aI88
aI108
aI90
aI141
aI171
aI216
aI104
aI153
aI185
aI137
aI93
aI174
aI182
aI196
aI76
aI131
aI189
aI85
aI211
aI222
aI173
aI177
aI173
aI224
aI178
aI141
aI201
aI178
aI205
aI142
aI132
aI118
aI146
aI112
aI202
aI150
aI106
aI193
aI221
aI108
aI123
aI161
aI120
aI81
aI169
aI83
aI205
aI153
aI191
aI163
aI132
aI225
aI119
aI101
aI164
aI182
aI185
aI150
aI98
aI182
aI135
aI211
aI129
aI91
aI141
aI93
aI146
aI129
aI170
aI153
aI146
aI195
aI207
aI144
aI176
aI158
aI189
aI87
aI104
aI207
aI163
aI114
aI152
aI218
aI88
aI148
aI99
aI130
aI209
aI130
aI154
aI225
aI145
aI129
aI173
aI137
aI132
aI112
aI174
aI151
aI125
aI176
aI82
aI164
aI189
aI175
aI138
aI200
aI111
aI130
aI110
aI121
aI140
aI80
aI152
aI192
aI163
aI76
aI178
aI81
aI132
aI225
aI88
aI161
aI160
aI175
aI145
aI145
aI122
aI124
aI101
aI139
aI220
aI75
aI107
aI150
aI207
aI88
aI89
aI194
aI77
aI122
aI156
aI194
aI157
aI183
aI117
aI199
aI87
aI92
aI86
aI223
aI140
aI221
aI203
aI171
aI91
aI139
aI135
aI185
aI137
aI103
aI193
aI168
aI98
aI157
aI83
aI155
aI153
aI202
aI76
aI110
aI107
aI190
aI123
aI98
aI176
aI127
aI186
aI193
aI98
aI149
aI194
aI185
aI184
aI118
aI125
aI196
aI101
aI116
aI163
aI92
aI213
aI128
aI207
aI147
aI135
aI141
aI119
aI125
aI187
aI204
aI170
aI82
aI203
aI99
aI90
aI90
aI155
aI155
aI209
aI221
aI121
aI121
aI171
aI195
aI149
aI106
aI160
aI136
aI104
aI140
aI170
aI174
aI188
aI173
aI129
aI222
aI178
aI102
aI115
aI197
aI117
aI181
aI109
aI123
aI114
aI106
aI120
aI141
aI204
aI132
aI169
aI113
aI188
aI124
aI195
aI100
aI214
aI164
aI163
aI108
aI225
aI76
aI210
aI174
aI226
aI191
aI196
aI215
aI102
aI127
aI149
aI210
aI89
aI83
aI79
aI225
aI179
aI192
aI159
aI166
aI201
aI97
aI94
aI129
aI127
aI131
aI78
aI224
aI81
aI203
aI83
aI174
aI174
aI139
aI150
aI103
aI91
aI122
aI154
aI113
aI118
aI194
aI76
aI206
aI115
aI103
aI84
aI84
aI200
aI208
aI148
aI78
aI77
aI203
aI139
aI86
aI83
aI175
aI209
aI78
aI147
aI168
aI142
aI148
aI193
aI173
aI173
aI172
aI139
aI157
aI173
aI191
aI214
aI108
aI172
aI75
aI166
aI82
aI142
aI200
aI155
aI166
aI183
aI192
aI91
aI184
aI127
aI172
aI125
aI95
aI95
aI85
aI197
aI195
aI178
aI123
aI150
aI137
aI89
aI173
aI138
aI130
aI132
aI142
aI173
aI157
aI141
aI224
aI80
aI176
aI202
aI91
aI208
aI187
aI137
aI93
aI109
aI181
aI199
aI157
aI127
aI135
aI111
aI208
aI128
aI77
aI130
aI87
aI126
aI117
aI115
aI133
aI214
aI161
aI157
aI207
aI142
aI87
aI154
aI86
aI173
aI147
aI166
aI99
aI151
aI203
aI126
aI198
aI189
aI76
aI88
aI103
aI100
aI133
aI119
aI100
aI105
aI91
aI160
aI104
aI224
aI149
aI177
aI137
aI128
aI163
aI135
aI166
aI144
aI198
aI193
aI117
aI116
aI188
aI120
aI212
aI135
aI222
aI151
aI184
aI162
aI170
aI87
aI133
aI95
aI114
aI196
aI226
aI185
aI89
aI222
aI136
aI155
aI173
aI118
aI217
aI87
aI78
aI137
aI131
aI155
aI173
aI167
aI102
aI143
aI199
aI118
aI83
aI156
aI105
aI97
aI80
aI120
aI93
aI183
aI110
aI171
aI196
aI96
aI94
aI160
aI158
aI153
aI165
aI160
aI125
aI205
aI128
aI157
aI126
aI130
aI150
aI140
aI180
aI78
aI88
aI208
aI149
aI139
aI84
aI124
aI137
aI219
aI118
aI205
aI186
aI165
aI134
aI99
aI155
aI107
aI208
aI220
aI225
aI149
aI164
aI76
aI84
aI167
aI82
aI194
aI83
aI164
aI82
aI119
aI120
aI154
aI195
aI87
aI187
aI75
aI173
aI148
aI110
aI188
aI107
aI172
aI141
aI218
aI201
aI188
aI112
aI216
aI226
aI177
aI78
aI93
aI113
aI100
aI183
aI206
aI97
aI101
aI194
aI169
aI211
aI105
aI152
aI149
aI98
aI149
aI205
aI146
aI223
aI141
aI153
aI144
aI155
aI97
aI178
aI186
aI101
aI201
aI212
aI105
aI211
aI92
aI147
aI222
aI81
aI184
aI76
aI90
aI179
aI191
aI100
aI222
aI164
aI217
aI174
aI140
aI117
aI224
aI127
aI186
aI101
aI144
aI76
aI225
aI105
aI155
aI217
aI164
aI125
aI177
aI111
aI189
aI146
aI86
aI163
aI172
aI127
aI173
aI119
aI85
aI129
aI152
aI103
aI180
aI160
aI149
aI196
aI90
aI185
aI198
aI117
aI88
aI187
aI184
aI156
aI141
aI180
aI158
aI172
aI94
aI208
aI113
aI135
aI225
aI224
aI101
aI153
aI159
aI122
aI116
aI139
aI141
aI149
aI102
aI100
aI91
aI159
aI179
aI140
aI210
aI183
aI151
aI160
aI139
aI76
aI157
aI180
aI216
aI113
aI226
aI135
aI107
aI77
aI83
aI80
aI187
aI127
aI98
aI106
aI173
aI99
aI226
aI180
aI169
aI138
aI99
aI87
aI226
aI176
aI83
aI79
aI92
aI178
aI122
aI207
aI142
aI156
aI112
aI98
aI202
aI208
aI219
aI169
aI206
aI90
aI122
aI111
aI119
aI94
aI126
aI157
aI196
aI205
aI224
aI93
aI194
aI86
aI183
aI120
aI171
aI210
aI154
aI140
aI91
aI96
aI143
aI133
aI83
aI199
aI113
aI177
aI190
aI116
aI109
aI197
aI132
aI101
aI92
aI110
aI84
aI215
aI221
aI135
aI118
aI122
aI193
aI110
aI194
aI221
aI142
aI186
aI183
aI200
aI85
aI152
aI182
aI138
aI168
aI164
aI225
aI174
aI112
aI133
aI143
aI187
aI162
aI153
aI86
aI219
aI156
aI141
aI165
aI101
aI180
aI192
aI84
aI175
aI92
aI141
aI188
aI106
aI88
aI217
aI164
aI117
aI150
aI95
aI132
aI84
aI208
aI217
aI168
aI131
aI144
aI184
aI124
aI170
aI126
aI86
aI223
aI169
aI201
aI199
aI225
aI176
aI78
aI173
aI85
aI181
aI210
aI135
aI113
aI89
aI178
aI95
aI197
aI189
aI94
aI129
aI130
aI79
aI195
aI153
aI159
aI110
aI126
aI82
aI111
aI208
aI184
aI207
aI77
aI157
aI92
aI159
aI198
aI204
aI194
aI135
aI171
aI162
aI128
aI202
aI93
aI208
aI146
aI145
aI133
aI148
aI190
aI130
aI162
aI185
aI164
aI87
aI157
aI86
aI145
aI178
aI206
aI105
aI169
aI98
aI81
aI119
aI213
aI77
aI122
aI182
aI226
aI108
aI75
aI207
aI167
aI87
aI116
aI170
aI96
aI76
aI96
aI204
aI75
aI218
aI141
aI85
aI96
aI201
aI184
aI137
aI120
aI118
aI153
aI218
aI156
aI162
aI105
aI157
aI87
aI178
aI108
aI165
aI123
aI109
aI172
aI131
aI155
aI146
aI193
aI219
aI209
aI129
aI85
aI164
aI148
aI184
aI108
aI194
aI139
aI100
aI82
aI139
aI114
aI201
aI101
aI195
aI128
aI121
aI207
aI156
aI107
aI150
aI221
aI194
aI98
aI136
aI151
aI161
aI75
aI163
aI120
aI78
aI112
aI206
aI139
aI77
aI119
aI205
aI84
aI133
aI180
aI171
aI106
aI137
aI143
aI164
aI206
aI130
aI166
aI171
aI125
aI152
aI133
aI150
aI96
aI115
aI135
aI163
aI226
aI146
aI98
aI226
aI144
aI207
aI180
aI200
aI115
aI105
aI226
aI168
aI151
aI198
aI135
aI149
aI86
aI169
aI155
aI86
aI167
aI104
aI220
aI139
aI180
aI104
aI206
aI112
aI225
aI95
aI139
aI187
aI130
aI176
aI76
aI131
aI136
aI219
aI169
aI75
aI176
aI126
aI134
aI94
aI143
aI162
aI216
aI193
aI133
aI86
aI132
aI136
aI162
aI175
aI220
aI170
aI115
aI108
aI215
aI194
aI131
aI91
aI135
aI109
aI154
aI126
aI159
aI160
aI137
aI189
aI115
aI94
aI182
aI152
aI86
aI173
aI176
aI81
aI164
aI142
aI133
aI110
aI197
aI167
aI206
aI222
aI85
aI108
aI163
aI140
aI138
aI214
aI88
aI121
aI135
aI108
aI218
aI123
aI100
aI210
aI203
aI123
aI87
aI208
aI98
aI168
aI147
aI83
aI177
aI170
aI175
aI189
aI141
aI204
aI210
aI191
aI149
aI210
aI161
aI90
aI167
aI169
aI192
aI102
aI188
aI122
aI107
aI163
aI134
aI219
aI173
aI174
aI206
aI118
aI118
aI79
aI134
aI136
aI187
aI140
aI194
aI138
aI100
aI136
aI184
aI85
aI82
aI173
aI150
aI108
aI136
aI219
aI94
aI180
aI98
aI86
aI173
aI129
aI135
aI93
aI221
aI76
aI107
aI192
aI105
aI221
aI148
aI214
aI209
aI168
aI157
aI223
aI118
aI131
aI167
aI168
aI213
aI142
aI175
aI209
aI203
aI118
aI130
aI122
aI101
aI82
aI133
aI118
aI197
aI140
aI162
aI164
aI101
aI96
aI94
aI120
aI135
aI80
aI179
aI101
aI167
aI204
aI119
aI183
aI188
aI184
aI126
aI207
aI206
aI101
aI99
aI95
aI185
aI199
aI175
aI133
aI82
aI130
aI205
aI133
aI133
aI186
aI98
aI162
aI202
aI95
aI142
aI195
aI223
aI172
aI212
aI141
aI153
aI83
aI102
aI111
aI108
aI84
aI120
aI109
aI214
aI90
aI178
aI93
aI192
aI77
aI126
aI173
aI223
aI142
aI113
aI126
aI120
aI224
aI177
aI176
aI140
aI206
aI226
aI168
aI166
aI99
aI150
aI126
aI88
aI220
aI158
aI101
aI214
aI118
aI174
aI80
aI89
aI140
aI75
aI175
aI88
aI88
aI186
aI114
aI197
aI166
aI205
aI87
aI121
aI164
aI165
aI197
aI165
aI103
aI176
aI209
aI210
aI196
aI155
aI213
aI110
aI90
aI103
aI158
aI85
aI107
aI134
aI118
aI81
aI149
aI166
aI160
aI157
aI166
aI144
aI121
aI101
aI93
aI112
aI147
aI141
aI158
aI85
aI83
aI137
aI216
aI164
aI139
aI126
aI153
aI85
aI81
aI86
aI109
aI107
aI185
aI102
aI170
aI166
aI214
aI175
aI184
aI168
aI134
aI177
aI149
aI221
aI149
aI152
aI107
aI220
aI162
aI185
aI99
aI153
aI132
aI216
aI213
aI109
aI91
aI203
aI118
aI214
aI90
aI215
aI204
aI219
aI81
aI114
aI183
aI131
aI85
aI154
aI193
aI224
aI112
aI94
aI216
aI95
aI131
aI86
aI161
aI203
aI219
aI162
aI132
aI211
aI188
aI168
aI78
aI178
aI102
aI188
aI223
aI101
aI209
aI189
aI211
aI97
aI110
aI181
aI127
aI137
aI112
aI182
aI88
aI83
aI149
aI96
aI92
aI146
aI117
aI196
aI207
aI169
aI221
aI142
aI211
aI170
aI197
aI224
aI225
aI167
aI193
aI191
aI172
aI218
aI144
aI119
aI122
aI164
aI126
aI99
aI136
aI110
aI125
aI145
aI151
aI127
aI207
aI91
aI215
aI128
aI226
aI165
aI97
aI225
aI101
aI217
aI146
aI84
aI85
aI125
aI197
aI191
aI179
aI82
aI205
aI118
aI117
aI175
aI208
aI76
aI171
aI130
aI210
aI170
aI96
aI96
aI208
aI128
aI207
aI176
aI175
aI147
aI121
aI131
aI125
aI149
aI119
aI167
aI218
aI171
aI194
aI102
aI192
aI152
aI148
aI156
aI168
aI184
aI198
aI144
aI157
aI190
aI92
aI166
aI109
aI188
aI196
aI129
aI198
aI120
aI201
aI212
aI97
aI140
aI156
aI125
aI204
aI83
aI78
aI90
aI135
aI184
aI167
aI193
aI208
aI137
aI182
aI185
aI113
aI111
aI122
aI109
aI88
aI124
aI162
aI167
aI218
aI93
aI109
aI128
aI202
aI83
aI120
aI107
aI153
aI100
aI138
aI201
aI78
aI137
aI108
aI181
aI93
aI142
aI123
aI81
aI214
aI144
aI91
aI161
aI218
aI86
aI157
aI146
aI173
aI77
aI140
aI165
aI183
aI194
aI197
aI117
aI126
aI87
aI146
aI134
aI133
aI156
aI113
aI139
aI82
aI146
aI98
aI108
aI85
aI110
aI224
aI124
aI160
aI137
aI109
aI167
aI224
aI108
aI108
aI183
aI125
aI88
aI120
aI178
aI78
aI138
aI162
aI100
aI118
aI123
aI110
aI181
aI86
aI160
aI155
aI217
aI212
aI102
aI201
aI129
aI95
aI189
aI198
aI112
aI89
aI211
aI75
aI216
aI79
aI135
aI176
aI132
aI164
aI197
aI109
aI82
aI154
aI152
aI192
aI164
aI97
aI133
aI208
aI174
aI160
aI142
aI220
aI159
aI151
aI183
aI163
aI205
aI94
aI184
aI168
aI89
aI178
aI154
aI156
aI206
aI132
aI207
aI146
aI193
aI99
aI134
aI181
aI80
aI106
aI87
aI78
aI87
aI94
aI81
aI162
aI110
aI139
aI125
aI125
aI202
aI211
aI99
aI215
aI188
aI94
aI173
aI107
aI96
aI135
aI93
aI88
aI155
aI139
aI180
aI80
aI176
aI84
aI146
aI225
aI85
aI149
aI183
aI114
aI105
aI110
aI144
aI86
aI152
aI104
aI99
aI163
aI169
aI124
aI190
aI179
aI108
aI135
aI156
aI212
aI225
aI204
aI150
aI176
aI222
aI173
aI182
aI200
aI158
aI214
aI123
aI140
aI120
aI144
aI202
aI142
aI131
aI166
aI187
aI117
aI128
aI94
aI159
aI180
aI174
aI169
aI220
aI155
aI142
aI203
aI143
aI81
aI106
aI171
aI113
aI104
aI207
aI83
aI92
aI198
aI166
aI217
aI159
aI167
aI221
aI191
aI195
aI128
aI96
aI209
aI91
aI106
aI117
aI210
aI159
aI170
aI213
aI156
aI80
aI84
aI115
aI127
aI199
aI223
aI177
aI126
aI193
aI151
aI194
aI137
aI172
aI102
aI81
aI224
aI143
aI173
aI144
aI191
aI127
aI177
aI184
aI104
aI169
aI219
aI184
aI140
aI184
aI112
aI153
aI128
aI197
aI83
aI185
aI146
aI106
aI222
aI122
aI219
aI189
aI210
aI106
aI102
aI226
aI131
aI221
aI161
aI100
aI119
aI107
aI184
aI200
aI125
aI209
aI131
aI113
aI169
aI120
aI110
aI170
aI126
aI87
aI86
aI216
aI216
aI167
aI223
aI95
aI131
aI174
aI219
aI75
aI202
aI171
aI113
aI196
aI216
aI223
aI207
aI157
aI99
aI89
aI123
aI91
aI92
aI125
aI119
aI165
aI121
aI123
aI96
aI210
aI110
aI95
aI211
aI151
aI206
aI219
aI89
aI103
aI128
aI204
aI138
aI79
aI108
aI129
aI138
aI102
aI98
aI146
aI225
aI189
aI165
aI112
aI183
aI106
aI118
aI142
aI119
aI83
aI176
aI112
aI158
aI168
aI155
aI160
aI107
aI110
aI222
aI191
aI194
aI160
aI137
aI133
aI193
aI159
aI101
aI84
aI114
aI104
aI109
aI79
aI217
aI195
aI126
aI94
aI216
aI147
aI162
aI199
aI218
aI177
aI167
aI199
aI128
aI214
aI190
aI200
aI172
aI94
aI209
aI146
aI102
aI130
aI219
aI85
aI210
aI202
aI201
aI179
aI158
aI204
aI176
aI171
aI113
aI135
aI128
aI192
aI115
aI134
aI195
aI137
aI161
aI102
aI110
aI225
aI142
aI177
aI133
aI79
aI182
aI194
aI160
aI90
aI98
aI222
aI103
aI98
aI105
aI199
aI226
aI141
aI221
aI107
aI148
aI126
aI195
aI172
aI218
aI128
aI188
aI79
aI94
aI97
aI114
aI157
aI150
aI76
aI116
aI173
aI106
aI120
aI188
aI119
aI188
aI170
aI146
aI123
aI95
aI115
aI117
aI213
aI156
aI116
aI221
aI112
aI80
aI132
aI106
aI88
aI225
aI94
aI122
aI91
aI162
aI90
aI103
aI95
aI191
aI81
aI90
aI156
aI82
aI132
aI124
aI189
aI213
aI198
aI192
aI163
aI211
aI214
aI82
aI187
aI211
aI84
aI158
aI194
aI151
aI132
aI110
aI148
aI159
aI105
aI154
aI133
aI202
aI188
aI111
aI219
aI152
aI75
aI201
aI224
aI161
aI198
aI143
aI121
aI171
aI143
aI206
aI211
aI143
aI163
aI223
aI81
aI204
aI88
aI113
aI134
aI157
aI95
aI178
aI200
aI83
aI180
aI80
aI156
aI136
aI170
aI204
aI154
aI181
aI221
aI159
aI129
aI75
aI191
aI78
aI222
aI102
aI188
aI138
aI169
aI162
aI151
aI80
aI180
aI154
aI151
aI177
aI195
aI89
aI212
aI112
aI132
aI128
aI147
aI86
aI169
aI139
aI126
aI208
aI212
aI203
aI151
aI122
aI167
aI99
aI101
aI145
aI164
aI196
aI133
aI79
aI226
aI115
aI192
aI162
aI146
aI125
aI216
aI175
aI225
aI150
aI122
aI181
aI225
aI84
aI90
aI90
aI141
aI204
aI111
aI154
aI221
aI119
aI86
aI212
aI140
aI113
aI221
aI157
aI210
aI174
aI188
aI139
aI148
aI165
aI172
aI125
aI223
aI96
aI119
aI86
aI211
aI112
aI176
aI187
aI217
aI79
aI202
aI135
aI175
aI142
aI95
aI107
aI174
aI168
aI108
aI140
aI153
aI217
aI197
aI222
aI136
aI137
aI107
aI204
aI194
aI161
aI116
aI145
aI206
aI147
aI106
aI137
aI115
aI217
aI175
aI92
aI146
aI215
aI165
aI101
aI169
aI220
aI81
aI116
aI170
aI186
aI127
aI79
aI129
aI208
aI149
aI175
aI88
aI179
aI145
aI185
aI159
aI180
aI226
aI159
aI179
aI117
aI108
aI138
aI98
aI177
aI110
aI148
aI99
aI204
aI126
aI155
aI85
aI145
aI139
aI156
aI171
aI176
aI199
aI191
aI195
aI208
aI127
aI197
aI77
aI218
aI76
aI168
aI124
aI166
aI181
aI179
aI79
aI131
aI221
aI77
aI86
aI176
aI90
aI174
aI210
aI147
aI112
aI137
aI215
aI194
aI217
aI119
aI120
aI108
aI132
aI133
aI134
aI160
aI152
aI147
aI112
aI136
aI128
aI115
aI162
aI189
aI89
aI225
aI123
aI149
aI151
aI136
aI146
aI99
aI208
aI145
aI185
aI177
aI131
aI154
aI203
aI79
aI105
aI117
aI82
aI143
aI141
aI86
aI205
aI133
aI125
aI147
aI92
aI111
aI88
aI217
aI97
aI85
aI81
aI109
aI209
aI149
aI133
aI202
aI110
aI163
aI169
aI127
aI213
aI168
aI115
aI161
aI184
aI142
aI102
aI144
aI153
aI156
aI92
aI137
aI116
aI197
aI225
aI185
aI204
aI148
aI121
aI189
aI110
aI164
aI130
aI79
aI157
aI115
aI142
aI122
aI222
aI126
aI93
aI110
aI174
aI193
aI193
aI106
aI142
aI212
aI140
aI174
aI81
aI111
aI195
aI150
aI171
aI192
aI133
aI136
aI151
aI204
aI135
aI104
aI108
aI169
aI97
aI100
aI113
aI147
aI97
aI79
aI167
aI164
aI223
aI152
aI130
aI158
aI124
aI218
aI105
aI146
aI158
aI105
aI153
aI123
aI221
aI107
aI97
aI159
aI111
aI134
aI213
aI97
aI85
aI146
aI107
aI112
aI187
aI98
aI83
aI134
aI131
aI172
aI115
aI223
aI78
aI215
aI107
aI201
aI124
aI205
aI97
aI104
aI103
aI165
aI77
aI105
aI166
aI209
aI118
aI77
aI176
aI205
aI181
aI163
aI197
aI96
aI131
aI115
aI111
aI94
aI200
aI114
aI171
aI160
aI148
aI117
aI128
aI101
aI177
aI82
aI106
aI85
aI116
aI112
aI226
aI130
aI123
aI209
aI209
aI208
aI84
aI99
aI79
aI221
aI95
aI91
aI132
aI156
aI171
aI83
aI91
aI172
aI215
aI192
aI125
aI176
aI114
aI213
aI142
aI133
aI116
aI167
aI159
aI79
aI145
aI207
aI152
aI190
aI93
aI219
aI221
aI196
aI184
aI176
aI214
aI118
aI220
aI113
aI156
aI128
aI104
aI85
aI189
aI113
aI218
aI171
aI121
aI160
aI130
aI86
aI102
aI131
aI155
aI128
aI151
aI154
aI208
aI114
aI139
aI193
aI138
aI103
aI78
aI140
aI85
aI175
aI119
aI125
aI78
aI222
aI225
aI88
aI152
aI140
aI166
aI124
aI165
aI160
aI206
aI209
aI134
aI201
aI77
aI88
aI91
aI181
aI94
aI137
aI155
aI120
aI154
aI82
aI199
aI198
aI180
aI139
aI112
aI127
aI122
aI204
aI136
aI207
aI87
aI115
aI184
aI220
aI147
aI198
aI134
aI161
aI180
aI202
aI89
aI204
aI189
aI160
aI207
aI166
aI115
aI128
aI103
aI145
aI93
aI196
aI188
aI129
aI127
aI225
aI86
aI165
aI152
aI155
aI188
aI87
aI82
aI97
aI204
aI171
aI97
aI160
aI144
aI164
aI82
aI151
aI169
aI113
aI150
aI177
aI146
aI133
aI100
aI150
aI126
aI220
aI128
aI104
aI110
aI113
aI165
aI218
aI138
aI136
aI208
aI81
aI170
aI100
aI81
aI166
aI159
aI129
aI195
aI156
aI86
aI137
aI187
aI154
aI204
aI216
aI212
aI156
aI194
aI226
aI190
aI192
aI98
aI96
aI90
aI142
aI180
aI109
aI135
aI154
aI195
aI218
aI96
aI108
aI78
aI226
aI103
aI95
aI198
aI126
aI192
aI144
aI134
aI198
aI120
aI150
aI217
aI211
aI176
aI87
aI114
aI91
aI106
aI148
aI128
aI173
aI110
aI198
aI186
aI92
aI85
aI168
aI222
aI155
aI211
aI197
aI177
aI182
aI144
aI77
aI86
aI139
aI184
aI193
aI215
aI171
aI198
aI164
aI199
aI116
aI212
aI216
aI133
aI197
aI176
aI87
aI194
aI222
aI201
aI188
aI189
aI175
aI120
aI157
aI87
aI129
aI171
aI193
aI125
aI92
aI85
aI172
aI115
aI131
aI213
aI118
aI144
aI141
aI161
aI91
aI178
aI98
aI85
aI134
aI95
aI156
aI197
aI194
aI166
aI202
aI120
aI117
aI130
aI131
aI134
aI210
aI79
aI191
aI187
aI181
aI149
aI115
aI196
aI146
aI180
aI88
aI172
aI171
aI170
aI102
aI110
aI100
aI146
aI191
aI187
aI109
aI190
aI163
aI95
aI115
aI181
aI163
aI189
aI162
aI173
aI186
aI154
aI144
aI90
aI138
aI132
aI213
aI91
aI226
aI173
aI160
aI165
aI75
aI77
aI169
aI198
aI182
aI137
aI209
aI200
aI178
aI112
aI140
aI85
aI181
aI75
aI139
aI156
aI203
aI86
aI80
aI86
aI92
aI124
aI104
aI201
aI112
aI193
aI213
aI200
aI124
aI115
aI100
aI135
aI143
aI115
aI171
aI190
aI175
aI177
aI158
aI156
aI121
aI129
aI221
aI145
aI151
aI104
aI208
aI158
aI225
aI119
aI217
aI146
aI197
aI196
aI164
aI89
aI86
aI125
aI213
aI151
aI211
aI136
aI113
aI145
aI154
aI159
aI197
aI96
aI115
aI107
aI146
aI204
aI175
aI192
aI156
aI200
aI166
aI150
aI171
aI163
aI199
aI161
aI173
aI76
aI219
aI155
aI140
aI88
aI200
aI226
aI162
aI190
aI183
aI105
aI156
aI195
aI136
aI117
aI220
aI175
aI169
aI147
aI76
aI201
aI198
aI175
aI187
aI137
aI152
aI155
aI213
aI136
aI126
aI210
aI179
aI149
aI133
aI83
aI195
aI94
aI165
aI178
aI220
aI172
aI141
aI117
aI196
aI113
aI82
aI225
aI122
aI76
aI114
aI156
aI75
aI211
aI124
aI120
aI94
aI164
aI101
aI173
aI82
aI167
aI128
aI102
aI160
aI204
aI133
aI117
aI152
aI213
aI95
aI188
aI200
aI126
aI207
aI189
aI206
aI156
aI130
aI157
aI115
aI125
aI213
aI173
aI103
aI148
aI96
aI166
aI207
aI75
aI81
aI144
aI131
aI168
aI192
aI151
aI226
aI171
aI180
aI82
aI149
aI216
aI133
aI172
aI137
aI173
aI179
aI172
aI205
aI103
aI206
aI225
aI182
aI110
aI188
aI79
aI78
aI142
aI144
aI133
aI204
aI110
aI162
aI150
aI124
aI120
aI193
aI219
aI131
aI204
aI99
aI152
aI136
aI84
aI98
aI93
aI208
aI158
aI118
aI208
aI123
aI191
aI156
aI207
aI221
aI209
aI165
aI88
aI86
aI134
aI197
aI183
aI217
aI84
aI210
aI165
aI225
aI189
aI165
aI223
aI105
aI79
aI107
aI211
aI205
aI217
aI222
aI146
aI84
aI114
aI181
aI200
aI106
aI216
aI175
aI172
aI135
aI106
aI166
aI156
aI92
aI173
aI180
aI93
aI157
aI195
aI201
aI78
aI175
aI112
aI123
aI85
aI203
aI124
aI160
aI211
aI159
aI88
aI126
aI114
aI139
aI169
aI81
aI122
aI162
aI137
aI158
aI198
aI92
aI91
aI187
aI202
aI149
aI156
aI181
aI107
aI161
aI178
aI173
aI120
aI112
aI129
aI187
aI136
aI116
aI215
aI214
aI141
aI97
aI193
aI172
aI120
aI193
aI106
aI210
aI139
aI109
aI132
aI210
aI176
aI149
aI133
aI192
aI177
aI97
aI127
aI149
aI153
aI144
aI146
aI224
aI173
aI144
aI212
aI193
aI139
aI133
aI119
aI216
aI167
aI144
aI119
aI121
aI205
aI150
aI129
aI116
aI163
aI165
aI181
aI188
aI201
aI111
aI183
aI120
aI181
aI127
aI90
aI115
aI203
aI153
aI153
aI204
aI141
aI81
aI103
aI221
aI115
aI87
aI172
aI97
aI200
aI102
aI180
aI182
aI216
aI92
aI115
aI162
aI129
aI101
aI213
aI173
aI159
aI212
aI100
aI137
aI130
aI93
aI222
aI223
aI102
aI188
aI136
aI75
aI189
aI174
aI76
aI160
aI119
aI99
aI161
aI193
aI81
aI130
aI84
aI103
aI182
aI84
aI192
aI145
aI130
aI122
aI226
aI111
aI97
aI88
aI190
aI152
aI178
aI120
aI99
aI98
aI86
aI104
aI179
aI118
aI194
aI199
aI90
aI201
aI136
aI180
aI196
aI141
aI129
aI157
aI141
aI95
aI100
aI164
aI190
aI107
aI164
aI166
aI78
aI204
aI115
aI165
aI123
aI102
aI212
aI128
aI105
aI112
aI77
aI121
aI87
aI146
aI202
aI87
aI182
aI189
aI113
aI88
aI156
aI205
aI158
aI190
aI103
aI83
aI223
aI97
aI176
aI116
aI160
aI146
aI176
aI163
aI151
aI205
aI139
aI125
aI134
aI199
aI167
aI84
aI102
aI108
aI111
aI128
aI165
aI191
aI183
aI134
aI201
aI170
aI213
aI199
aI92
aI139
aI113
aI181
aI88
aI86
aI199
aI145
aI130
aI180
aI106
aI181
aI135
aI139
aI167
aI85
aI199
aI205
aI82
aI136
aI147
aI114
aI196
aI101
aI131
aI189
aI89
aI199
aI125
aI219
aI157
aI200
aI103
aI206
aI225
aI87
aI219
aI185
aI155
aI172
aI117
aI111
aI215
aI167
aI205
aI141
aI217
aI201
aI83
aI116
aI96
aI223
aI113
aI201
aI114
aI216
aI79
aI139
aI77
aI201
aI179
aI139
aI82
aI111
aI132
aI172
aI92
aI89
aI121
aI210
aI117
aI92
aI153
aI82
aI199
aI138
aI159
aI75
aI192
aI216
aI84
aI192
aI114
aI133
aI153
aI104
aI188
aI107
aI129
aI82
aI186
aI150
aI204
aI137
aI117
aI113
aI186
aI170
aI168
aI94
aI128
aI150
aI146
aI218
aI223
aI205
aI202
aI115
aI134
aI83
aI194
aI125
aI126
aI95
aI127
aI139
aI202
aI81
aI190
aI147
aI128
aI93
aI99
aI176
aI201
aI138
aI198
aI176
aI183
aI211
aI82
aI165
aI126
aI182
aI118
aI179
aI134
aI95
aI214
aI222
aI194
aI199
aI126
aI132
aI221
aI200
aI198
aI121
aI75
aI221
aI76
aI198
aI88
aI182
aI173
aI212
aI143
aI154
aI81
aI78
aI78
aI86
aI109
aI106
aI117
aI95
aI161
aI87
aI113
aI105
aI199
aI177
aI165
aI104
aI215
aI174
aI112
aI220
aI208
aI150
aI209
aI180
aI124
aI148
aI126
aI114
aI221
aI200
aI178
aI76
aI142
aI116
aI144
aI101
aI167
aI208
aI214
aI110
aI187
aI143
aI209
aI189
aI76
aI181
aI146
aI164
aI105
aI97
aI135
aI213
aI218
aI133
aI114
aI139
aI142
aI185
aI215
aI124
aI103
aI122
aI197
aI121
aI147
aI168
aI94
aI170
aI173
aI126
aI169
aI109
aI224
aI225
aI131
aI198
aI215
aI152
aI115
aI169
aI158
aI100
aI79
aI216
aI223
aI118
aI199
aI86
aI138
aI155
aI165
aI206
aI215
aI108
aI95
aI148
aI187
aI160
aI129
aI132
aI165
aI136
aI193
aI118
aI92
aI75
aI104
aI133
aI77
aI185
aI116
aI118
aI135
aI201
aI132
aI98
aI187
aI182
aI150
aI108
aI79
aI154
aI110
aI132
aI77
aI125
aI113
aI209
aI122
aI159
aI122
aI140
aI141
aI161
aI194
aI82
aI193
aI88
aI199
aI200
aI201
aI85
aI125
aI103
aI110
aI203
aI154
aI113
aI87
aI226
aI120
aI114
aI196
aI191
aI138
aI101
aI170
aI107
aI158
aI142
aI125
aI118
aI128
aI128
aI205
aI85
aI176
aI110
aI79
aI150
aI176
aI75
aI89
aI99
aI190
aI147
aI124
aI211
aI187
aI208
aI165
aI218
aI166
aI127
aI204
aI101
aI142
aI203
aI225
aI183
aI205
aI124
aI90
aI94
aI223
aI77
aI185
aI87
aI108
aI205
aI106
aI134
aI154
aI145
aI143
aI220
aI85
aI212
aI125
aI198
aI118
aI174
aI223
aI202
aI150
aI122
aI212
aI213
aI83
aI93
aI178
aI80
aI160
aI161
aI164
aI106
aI162
aI75
aI198
aI165
aI220
aI185
aI172
aI175
aI206
aI195
aI165
aI213
aI79
aI121
aI142
aI95
aI121
aI180
aI166
aI123
aI179
aI105
aI151
aI150
aI121
aI150
aI75
aI141
aI126
aI126
aI127
aI189
aI142
aI83
aI220
aI110
aI152
aI128
aI171
aI195
aI188
aI112
aI103
aI76
aI109
aI160
aI149
aI154
aI146
aI163
aI182
aI109
aI98
aI124
aI194
aI111
aI175
aI204
aI140
aI115
aI149
aI126
aI98
aI158
aI89
aI193
aI198
aI96
aI208
aI152
aI120
aI223
aI175
aI209
aI112
aI193
aI151
aI148
aI172
aI166
aI133
aI156
aI191
aI118
aI165
aI179
aI97
aI110
aI140
aI76
aI193
aI200
aI91
aI106
aI146
aI125
aI90
aI168
aI216
aI124
aI85
aI195
aI187
aI116
aI85
aI112
aI96
aI82
aI124
aI166
aI82
aI173
aI139
aI150
aI121
aI123
aI81
aI167
aI92
aI152
aI106
aI226
aI94
aI152
aI203
aI132
aI117
aI143
aI205
aI210
aI183
aI126
aI215
aI111
aI97
aI184
aI196
aI193
aI208
aI115
aI158
aI215
aI103
aI224
aI130
aI124
aI170
aI222
aI138
aI211
aI170
aI177
aI224
aI196
aI213
aI192
aI95
aI224
aI85
aI225
aI116
aI144
aI200
aI196
aI162
aI193
aI222
aI75
aI118
aI76
aI156
aI138
aI79
aI142
aI220
aI79
aI168
aI159
aI215
aI225
aI97
aI216
aI91
aI207
aI208
aI211
aI187
aI130
aI164
aI118
aI171
aI146
aI179
aI173
aI79
aI188
aI147
aI200
aI108
aI154
aI155
aI155
aI182
aI110
aI159
aI81
aI174
aI122
aI132
aI213
aI92
aI99
aI94
aI159
aI126
aI203
aI222
aI118
aI122
aI205
aI199
aI149
aI82
aI190
aI118
aI221
aI188
aI81
aI128
aI178
aI193
aI191
aI192
aI175
aI120
aI156
aI164
aI95
aI130
aI110
aI194
aI181
aI115
aI214
aI226
aI205
aI131
aI159
aI204
aI97
aI88
aI134
aI136
aI168
aI156
aI183
aI207
aI219
aI132
aI166
aI117
aI224
aI90
aI193
aI211
aI130
aI214
aI112
aI128
aI171
aI153
aI202
aI96
aI115
aI145
aI193
aI160
aI212
aI94
aI84
aI202
aI86
aI137
aI111
aI204
aI124
aI191
aI166
aI118
aI95
aI187
aI140
aI127
aI125
aI89
aI214
aI149
aI162
aI81
aI116
aI147
aI108
aI100
aI104
aI116
aI128
aI126
aI83
aI200
aI113
aI83
aI174
aI117
aI148
aI161
aI197
aI110
aI134
aI196
aI190
aI172
aI225
aI199
aI161
aI114
aI86
aI206
aI96
aI135
aI209
aI79
aI93
aI80
aI112
aI198
aI130
aI218
aI103
aI186
aI187
aI198
aI203
aI77
aI212
aI184
aI145
aI113
aI140
aI158
aI87
aI84
aI161
aI150
aI126
aI118
aI86
aI176
aI154
aI204
aI91
aI116
aI121
aI82
aI156
aI147
aI204
aI104
aI178
aI118
aI162
aI78
aI96
aI75
aI154
aI83
aI112
aI107
aI183
aI213
aI135
aI116
aI94
aI143
aI80
aI110
aI96
aI119
aI113
aI189
aI212
aI99
aI204
aI197
aI128
aI131
aI105
aI101
aI129
aI138
aI168
aI101
aI143
aI117
aI174
aI202
aI209
aI85
aI114
aI181
aI170
aI169
aI77
aI174
aI186
aI127
aI153
aI163
aI105
aI125
aI110
aI101
aI100
aI178
aI219
aI207
aI110
aI114
aI108
aI156
aI174
aI223
aI110
aI167
aI194
aI204
aI151
aI200
aI131
aI124
aI129
aI127
aI156
aI103
aI187
aI168
aI142
aI193
aI79
aI139
aI129
aI205
aI93
aI82
aI190
aI192
aI191
aI123
aI89
aI83
aI202
aI119
aI201
aI110
aI133
aI122
aI106
aI190
aI86
aI142
aI110
aI124
aI152
aI131
aI216
aI148
aI185
aI225
aI177
aI109
aI197
aI220
aI215
aI140
aI185
aI125
aI156
aI113
aI89
aI196
aI226
aI209
aI144
aI157
aI226
aI77
aI149
aI104
aI102
aI93
aI214
aI118
aI86
aI205
aI76
aI94
aI203
aI209
aI166
aI132
aI194
aI204
aI90
aI87
aI204
aI217
aI77
aI217
aI99
aI113
aI91
aI100
aI86
aI203
aI162
aI142
aI99
aI111
aI103
aI213
aI145
aI159
aI171
aI185
aI145
aI186
aI109
aI171
aI162
aI154
aI75
aI94
aI140
aI220
aI164
aI84
aI151
aI180
aI186
aI158
aI151
aI80
aI216
aI123
aI155
aI147
aI167
aI114
aI93
aI105
aI124
aI215
aI216
aI184
aI114
aI198
aI153
aI167
aI130
aI110
aI151
aI134
aI206
aI200
aI137
aI123
aI222
aI92
aI99
aI166
aI226
aI225
aI134
aI119
aI191
aI184
aI173
aI151
aI88
aI195
aI147
aI187
aI139
aI119
aI133
aI169
aI108
aI177
aI89
aI160
aI207
aI96
aI131
aI223
aI123
aI148
aI186
aI168
aI89
aI97
aI102
aI167
aI111
aI222
aI77
aI80
aI226
aI149
aI86
aI113
aI150
aI181
aI204
aI148
aI112
aI117
aI173
aI111
aI217
aI199
aI208
aI149
aI169
aI216
aI175
aI112
aI179
aI185
aI79
aI123
aI124
aI205
aI88
aI124
aI83
aI200
aI137
aI145
aI193
aI175
aI99
aI85
aI131
aI183
aI95
aI171
aI168
aI184
aI97
aI165
aI198
aI116
aI78
aI224
aI110
aI145
aI102
aI110
aI177
aI171
aI88
aI218
aI198
aI138
aI159
aI114
aI149
aI107
aI220
aI219
aI102
aI195
aI143
aI109
aI130
aI132
aI215
aI111
aI111
aI82
aI157
aI147
aI212
aI209
aI84
aI109
aI96
aI162
aI113
aI151
aI122
aI150
aI193
aI192
aI113
aI136
aI183
aI127
aI114
aI199
aI144
aI126
aI155
aI99
aI176
aI153
aI216
aI107
aI111
aI100
aI202
aI198
aI180
aI157
aI75
aI226
aI142
aI226
aI94
aI198
aI190
aI148
aI142
aI99
aI122
aI170
aI101
aI121
aI136
aI209
aI125
aI143
aI171
aI174
aI79
aI188
aI77
aI192
aI79
aI88
aI179
aI128
aI174
aI80
aI90
aI151
aI148
aI141
aI163
aI226
aI104
aI178
aI130
aI77
aI150
aI224
aI138
aI131
aI122
aI175
aI169
aI113
aI162
aI139
aI215
aI147
aI222
aI93
aI207
aI165
aI94
aI145
aI177
aI192
aI225
aI134
aI216
aI116
aI142
aI80
aI189
aI207
aI84
aI84
aI110
aI133
aI88
aI157
aI86
aI137
aI77
aI175
aI215
aI152
aI99
aI190
aI199
aI135
aI100
aI190
aI87
aI222
aI206
aI112
aI125
aI127
aI122
aI133
aI104
aI165
aI115
aI186
aI128
aI208
aI106
aI211
aI166
aI130
aI78
aI198
aI214
aI219
aI186
aI147
aI112
aI206
aI194
aI159
aI199
aI113
aI129
aI145
aI100
aI204
aI208
aI150
aI153
aI80
aI214
aI190
aI105
aI135
aI178
aI174
aI79
aI160
aI77
aI178
aI181
aI150
aI93
aI182
aI105
aI161
aI152
aI160
aI204
aI141
aI76
aI86
aI168
aI211
aI185
aI182
aI186
aI173
aI89
aI202
aI121
aI200
aI153
aI132
aI88
aI168
aI125
aI194
aI95
aI88
aI171
aI182
aI181
aI76
aI103
aI100
aI161
aI75
aI114
aI94
aI189
aI208
aI163
aI223
aI126
aI118
aI97
aI218
aI196
aI191
aI131
aI127
aI197
aI101
aI198
aI177
aI202
aI206
aI221
aI76
aI201
aI92
aI160
aI98
aI171
aI85
aI75
aI115
aI133
aI124
aI152
aI76
aI191
aI112
aI113
aI103
aI98
aI118
aI83
aI103
aI129
aI222
aI129
aI186
aI175
aI84
aI179
aI134
aI96
aI217
aI92
aI81
aI82
aI132
aI160
aI211
aI146
aI115
aI107
aI122
aI167
aI155
aI190
aI222
aI108
aI90
aI125
aI186
aI155
aI212
aI148
aI185
aI75
aI159
aI78
aI82
aI107
aI189
aI183
aI155
aI197
aI81
aI226
aI108
aI152
aI188
aI225
aI197
aI89
aI110
aI134
aI135
aI103
aI94
aI87
aI79
aI84
aI105
aI170
aI114
aI188
aI165
aI206
aI147
aI204
aI145
aI108
aI103
aI180
aI200
aI83
aI123
aI91
aI161
aI210
aI217
aI81
aI138
aI215
aI113
aI137
aI95
aI179
aI195
aI121
aI129
aI79
aI181
aI188
aI184
aI82
aI193
aI220
aI108
aI205
aI145
aI134
aI103
aI94
aI151
aI78
aI142
aI145
aI89
aI131
aI169
aI180
aI116
aI163
aI190
aI119
aI193
aI121
aI167
aI116
aI134
aI98
aI105
aI124
aI215
aI138
aI76
aI192
aI204
aI97
aI200
aI152
aI98
aI155
aI205
aI141
aI116
aI149
aI221
aI181
aI138
aI199
aI78
aI115
aI94
aI94
aI164
aI115
aI110
aI182
aI158
aI172
aI197
aI161
aI201
aI193
aI151
aI223
aI113
aI119
aI118
aI146
aI185
aI116
aI101
aI112
aI137
aI176
aI78
aI98
aI81
aI115
aI86
aI88
aI159
aI114
aI176
aI81
aI116
aI200
aI75
aI83
aI193
aI151
aI171
aI130
aI75
aI186
aI108
aI209
aI225
aI202
aI152
aI85
aI176
aI182
aI213
aI202
aI86
aI196
aI204
aI132
aI205
aI213
aI152
aI120
aI207
aI177
aI117
aI144
aI177
aI90
aI187
aI115
aI82
aI161
aI104
aI162
aI120
aI200
aI226
aI207
aI193
aI159
aI170
aI222
aI90
aI160
aI153
aI167
aI160
aI178
aI137
aI167
aI167
aI136
aI213
aI126
aI143
aI219
aI100
aI182
aI186
aI186
aI83
aI224
aI80
aI124
aI174
aI111
aI86
aI196
aI201
aI180
aI220
aI170
aI194
aI156
aI218
aI186
aI160
aI171
aI220
aI96
aI93
aI105
aI116
aI198
aI148
aI158
aI148
aI79
aI177
aI180
aI174
aI206
aI159
aI86
aI78
aI216
aI81
aI222
aI155
aI212
aI206
aI223
aI98
aI104
aI91
aI196
aI175
aI218
aI81
aI197
aI183
aI128
aI172
aI209
aI219
aI194
aI198
aI135
aI92
aI125
aI219
aI109
aI165
aI88
aI145
aI181
aI106
aI83
aI147
aI135
aI80
aI78
aI204
aI80
aI174
aI129
aI217
aI103
aI124
aI92
aI182
aI184
aI132
aI184
aI96
aI146
aI135
aI112
aI193
aI76
aI159
aI196
aI153
aI203
aI94
aI205
aI179
aI208
aI168
aI137
aI114
aI81
aI182
aI220
aI153
aI192
aI107
aI77
aI104
aI105
aI156
aI160
aI182
aI105
aI186
aI169
aI215
aI151
aI110
aI211
aI179
aI76
aI133
aI218
aI187
aI155
aI110
aI161
aI161
aI181
aI161
aI125
aI161
aI110
aI203
aI179
aI129
aI156
aI181
aI156
aI140
aI217
aI96
aI99
aI141
aI218
aI218
aI104
aI174
aI195
aI84
aI164
aI121
aI146
aI99
aI160
aI124
aI101
aI164
aI104
aI157
aI86
aI136
aI201
aI199
aI139
aI108
aI107
aI194
aI201
aI222
aI191
aI216
aI138
aI220
aI211
aI139
aI92
aI131
aI125
aI152
aI156
aI220
aI118
aI212
aI146
aI93
aI209
aI121
aI100
aI182
aI94
aI192
aI145
aI86
aI141
aI176
aI124
aI197
aI178
aI133
aI182
aI171
aI179
aI188
aI199
aI100
aI104
aI124
aI172
aI196
aI131
aI173
aI192
aI200
aI202
aI124
aI224
aI203
aI196
aI173
aI187
aI91
aI172
aI125
aI184
aI191
aI200
aI144
aI84
aI210
aI151
aI167
aI123
aI113
aI104
aI199
aI145
aI123
aI107
aI168
aI101
aI223
aI225
aI164
aI78
aI144
aI128
aI133
aI128
aI151
aI207
aI136
aI219
aI90
aI194
aI197
aI79
aI175
aI221
aI115
aI99
aI161
aI187
aI113
aI140
aI132
aI125
aI147
aI104
aI150
aI201
aI83
aI158
aI212
aI122
aI184
aI78
aI104
aI89
aI148
aI197
aI217
aI174
aI117
aI166
aI122
aI223
aI88
aI190
aI173
aI131
aI217
aI114
aI140
aI160
aI222
aI148
aI190
aI78
aI158
aI135
aI126
aI121
aI91
aI133
aI107
aI218
aI159
aI215
aI156
aI84
aI134
aI171
aI226
aI210
aI142
aI80
aI179
aI163
aI95
aI106
aI131
aI203
aI153
aI216
aI117
aI94
aI170
aI75
aI138
aI115
aI226
aI208
aI226
aI183
aI171
aI172
aI125
aI87
aI100
aI75
aI98
aI198
aI198
aI201
aI120
aI119
aI173
aI142
aI123
aI184
aI106
aI150
aI160
aI89
aI142
aI89
aI87
aI144
aI200
aI94
aI75
aI98
aI211
aI181
aI189
aI220
aI171
aI210
aI155
aI87
aI225
aI218
aI179
aI153
aI202
aI224
aI164
aI150
aI127
aI129
aI202
aI171
aI204
aI224
aI99
aI139
aI77
aI77
aI108
aI153
aI100
aI82
aI168
aI90
aI128
aI208
aI155
aI89
aI210
aI93
aI86
aI145
aI204
aI189
aI123
aI118
aI77
aI192
aI102
aI106
aI134
aI217
aI112
aI132
aI148
aI170
aI108
aI211
aI114
aI156
aI163
aI202
aI185
aI165
aI211
aI137
aI141
aI181
aI76
aI106
aI89
aI169
aI221
aI150
aI139
aI225
aI208
aI87
aI143
aI199
aI89
aI177
aI143
aI154
aI94
aI93
aI97
aI159
aI201
aI122
aI186
aI114
aI127
aI201
aI115
aI152
aI160
aI93
aI76
aI199
aI213
aI188
aI84
aI222
aI116
aI159
aI191
aI187
aI178
aI205
aI205
aI153
aI159
aI121
aI82
aI105
aI130
aI167
aI192
aI213
aI197
aI97
aI158
aI185
aI136
aI142
aI81
aI82
aI152
aI75
aI164
aI149
aI220
aI141
aI212
aI164
aI128
aI169
aI136
aI106
aI197
aI146
aI96
aI160
aI206
aI191
aI103
aI148
aI92
aI221
aI209
aI163
aI113
aI81
aI150
aI103
aI182
aI159
aI93
aI218
aI183
aI172
aI113
aI170
aI96
aI181
aI191
aI84
aI116
aI101
aI98
aI76
aI96
aI127
aI116
aI160
aI153
aI89
aI156
aI106
aI80
aI134
aI111
aI95
aI93
aI109
aI207
aI178
aI215
aI158
aI100
aI224
aI115
aI166
aI223
aI162
aI138
aI220
aI187
aI222
aI124
aI181
aI123
aI96
aI196
aI101
aI153
aI206
aI203
aI176
aI205
aI151
aI182
aI103
aI211
aI216
aI87
aI104
aI225
aI97
aI146
aI199
aI77
aI195
aI88
aI203
aI200
aI195
aI178
aI202
aI224
aI164
aI139
aI197
aI93
aI221
aI96
aI195
aI207
aI112
aI173
aI112
aI107
aI111
aI153
aI138
aI115
aI221
aI159
aI122
aI174
aI226
aI222
aI159
aI194
aI184
aI86
aI219
aI214
aI150
aI162
aI115
aI105
aI78
aI116
aI225
aI202
aI87
aI211
aI223
aI220
aI80
aI82
aI128
aI78
aI155
aI117
aI141
aI81
aI105
aI122
aI143
aI149
aI148
aI154
aI87
aI139
aI83
aI223
aI206
aI186
aI214
aI216
aI145
aI220
aI157
aI104
aI78
aI192
aI147
aI167
aI131
aI211
aI211
aI132
aI179
aI119
aI194
aI118
aI156
aI176
aI159
aI164
aI210
aI82
aI110
aI187
aI114
aI209
aI183
aI150
aI190
aI106
aI83
aI91
aI175
aI183
aI191
aI208
aI219
aI183
aI138
aI126
aI116
aI173
aI81
aI140
aI174
aI96
aI103
aI76
aI193
aI182
aI140
aI115
aI215
aI134
aI223
aI167
aI217
aI117
aI225
aI154
aI215
aI90
aI142
aI139
aI172
aI215
aI224
aI172
aI150
aI96
aI200
aI170
aI85
aI134
aI214
aI177
aI172
aI106
aI110
aI203
aI222
aI193
aI217
aI205
aI122
aI149
aI149
aI106
aI209
aI188
aI192
aI186
aI113
aI102
aI176
aI144
aI121
aI81
aI126
aI162
aI82
aI121
aI81
aI214
aI99
aI225
aI213
aI189
aI163
aI117
aI222
aI226
aI212
aI91
aI144
aI201
aI189
aI130
aI124
aI121
aI208
aI93
aI80
aI123
aI183
aI214
aI158
aI221
aI169
aI150
aI205
aI111
aI225
aI161
aI75
aI128
aI120
aI152
aI95
aI192
aI159
aI88
aI187
aI205
aI156
aI141
aI221
aI134
aI223
aI139
aI226
aI119
aI212
aI217
aI213
aI163
aI218
aI171
aI89
aI132
aI223
aI191
aI196
aI150
aI221
aI173
aI187
aI137
aI91
aI95
aI225
aI148
aI217
aI103
aI195
aI169
aI83
aI113
aI201
aI197
aI145
aI178
aI173
aI79
aI142
aI159
aI108
aI86
aI186
aI97
aI145
aI180
aI204
aI117
aI135
aI92
aI147
aI116
aI122
aI136
aI194
aI217
aI100
aI126
aI125
aI217
aI79
aI200
aI96
aI188
aI184
aI110
aI164
aI155
aI109
aI142
aI164
aI87
aI120
aI151
aI87
aI136
aI144
aI184
aI83
aI107
aI132
aI90
aI171
aI204
aI198
aI223
aI192
aI212
aI122
aI100
aI98
aI184
aI113
aI215
aI203
aI86
aI169
aI182
aI128
aI185
aI223
aI226
aI219
aI78
aI147
aI157
aI143
aI99
aI136
aI117
aI224
aI79
aI117
aI211
aI144
aI186
aI121
aI172
aI159
aI126
aI184
aI162
aI116
aI218
aI91
aI223
aI102
aI209
aI141
aI110
aI97
aI175
aI132
aI200
aI168
aI129
aI149
aI153
aI221
aI84
aI155
aI111
aI192
aI122
aI105
aI97
aI79
aI103
aI77
aI154
aI112
aI125
aI108
aI172
aI76
aI193
aI76
aI203
aI83
aI103
aI166
aI121
aI115
aI86
aI131
aI119
aI142
aI110
aI108
aI223
aI157
aI133
aI220
aI87
aI121
aI149
aI143
aI200
aI167
aI135
aI216
aI216
aI113
aI94
aI200
aI127
aI217
aI124
aI102
aI226
aI199
aI167
aI125
aI182
aI109
aI123
aI219
aI192
aI146
aI225
aI130
aI135
aI157
aI142
aI111
aI183
aI185
aI173
aI100
aI195
aI154
aI94
aI86
aI82
aI174
aI79
aI91
aI212
aI195
aI192
aI132
aI125
aI133
aI115
aI155
aI200
aI222
aI123
aI115
aI108
aI122
aI181
aI204
aI184
aI188
aI164
aI149
aI169
aI142
aI203
aI226
aI126
aI148
aI86
aI156
aI184
aI79
aI150
aI203
aI76
aI156
aI220
aI134
aI168
aI76
aI114
aI193
aI125
aI170
aI180
aI139
aI79
aI176
aI225
aI96
aI137
aI212
aI161
aI137
aI141
aI160
aI88
aI165
aI98
aI156
aI223
aI138
aI218
aI85
aI218
aI216
aI226
aI168
aI87
aI223
aI84
aI158
aI183
aI159
aI208
aI105
aI143
aI77
aI159
aI213
aI140
aI94
aI148
aI222
aI195
aI110
aI104
aI102
aI172
aI219
aI80
aI79
aI99
aI205
aI143
aI80
aI120
aI167
aI214
aI204
aI190
aI131
aI152
aI99
aI219
aI177
aI201
aI157
aI145
aI159
aI111
aI167
aI202
aI79
aI82
aI151
aI105
aI116
aI140
aI221
aI123
aI212
aI117
aI121
aI170
aI113
aI185
aI217
aI150
aI207
aI139
aI189
aI101
aI146
aI181
aI100
aI134
aI95
aI178
aI203
aI90
aI139
aI226
aI93
aI115
aI117
aI128
aI95
aI76
aI96
aI166
aI209
aI126
aI224
aI195
aI145
aI181
aI76
aI99
aI93
aI109
aI122
aI225
aI153
aI154
aI105
aI112
aI208
aI108
aI109
aI132
aI176
aI104
aI105
aI149
aI186
aI107
aI188
aI192
aI114
aI159
aI166
aI105
aI138
aI194
aI135
aI197
aI177
aI75
aI168
aI223
aI153
aI171
aI224
aI221
aI212
aI148
aI115
aI162
aI86
aI79
aI177
aI216
aI214
aI151
aI108
aI197
aI181
aI201
aI124
aI207
aI165
aI152
aI148
aI79
aI138
aI94
aI169
aI81
aI214
aI181
aI137
aI168
aI133
aI214
aI194
aI111
aI156
aI141
aI205
aI108
aI128
aI150
aI186
aI112
aI169
aI177
aI184
aI150
aI221
aI161
aI104
aI161
aI183
aI168
aI209
aI142
aI223
aI79
aI92
aI85
aI198
aI135
aI187
aI164
aI130
aI105
aI220
aI121
aI126
aI76
aI202
aI225
aI120
aI210
aI110
aI107
aI112
aI144
aI157
aI193
aI95
aI98
aI148
aI172
aI104
aI171
aI81
aI150
aI100
aI143
aI139
aI142
aI182
aI223
aI122
aI221
aI126
aI127
aI195
aI159
aI78
aI217
aI174
aI83
aI201
aI137
aI179
aI196
aI138
aI95
aI192
aI200
aI182
aI87
aI187
aI147
aI143
aI204
aI194
aI218
aI149
aI80
aI194
aI225
aI164
aI222
aI188
aI145
aI130
aI159
aI213
aI189
aI89
aI208
aI193
aI116
aI119
aI92
aI79
aI168
aI220
aI218
aI77
aI133
aI111
aI142
aI219
aI161
aI119
aI179
aI181
aI116
aI189
aI154
aI78
aI187
aI101
aI150
aI191
aI157
aI185
aI183
aI111
aI124
aI162
aI125
aI197
aI191
aI176
aI214
aI91
aI94
aI215
aI156
aI169
aI184
aI172
aI222
aI104
aI201
aI172
aI205
aI196
aI118
aI78
aI103
aI188
aI187
aI182
aI174
aI161
aI126
aI193
aI147
aI100
aI164
aI226
aI187
aI106
aI156
aI164
aI163
aI124
aI116
aI198
aI219
aI136
aI75
aI99
aI147
aI157
aI148
aI146
aI198
aI108
aI173
aI127
aI104
aI195
aI191
aI102
aI176
aI153
aI90
aI149
aI220
aI149
aI104
aI103
aI125
aI200
aI215
aI87
aI87
aI77
aI157
aI91
aI76
aI91
aI106
aI199
aI223
aI129
aI202
aI206
aI149
aI81
aI195
aI85
aI85
aI203
aI137
aI158
aI95
aI77
aI194
aI216
aI203
aI118
aI123
aI152
aI184
aI202
aI96
aI224
aI222
aI96
aI185
aI108
aI145
aI185
aI144
aI76
aI156
aI225
aI200
aI135
aI116
aI141
aI94
aI87
aI96
aI136
aI142
aI218
aI162
aI130
aI75
aI182
aI103
aI210
aI154
aI219
aI204
aI194
aI198
aI87
aI118
aI183
aI112
aI114
aI77
aI145
aI108
aI170
aI135
aI122
aI150
aI200
aI189
aI187
aI101
aI210
aI157
aI114
aI221
aI126
aI194
aI78
aI217
aI86
aI157
aI137
aI146
aI121
aI135
aI164
aI164
aI209
aI177
aI118
aI154
aI206
aI203
aI195
aI221
aI184
aI136
aI169
aI209
aI111
aI120
aI204
aI206
aI195
aI106
aI183
aI170
aI111
aI148
aI134
aI142
aI226
aI214
aI222
aI214
aI163
aI128
aI156
aI186
aI133
aI98
aI212
aI85
aI87
aI117
aI148
aI185
aI79
aI85
aI143
aI122
aI89
aI93
aI166
aI120
aI84
aI76
aI117
aI139
aI123
aI186
aI175
aI122
aI113
aI134
aI201
aI164
aI193
aI152
aI223
aI82
aI195
aI85
aI149
aI166
aI214
aI192
aI168
aI96
aI124
aI117
aI178
aI177
aI90
aI177
aI196
aI100
aI137
aI117
aI119
aI181
aI156
aI190
aI177
aI138
aI86
aI198
aI179
aI154
aI153
aI178
aI214
aI139
aI138
aI77
aI160
aI138
aI98
aI219
aI207
aI194
aI162
aI113
aI143
aI118
aI215
aI208
aI85
aI156
aI210
aI142
aI215
aI90
aI129
aI150
aI221
aI186
aI110
aI161
aI91
aI202
aI214
aI177
aI167
aI81
aI132
aI154
aI202
aI215
aI189
aI116
aI150
aI201
aI201
aI210
aI103
aI89
aI82
aI114
aI218
aI200
aI192
aI136
aI124
aI86
aI199
aI204
aI197
aI150
aI120
aI119
aI75
aI154
aI173
aI116
aI197
aI181
aI92
aI164
aI107
aI195
aI159
aI96
aI139
aI115
aI109
aI222
aI225
aI112
aI201
aI129
aI128
aI126
aI95
aI181
aI157
aI121
aI129
aI216
aI178
aI133
aI100
aI134
aI196
aI99
aI204
aI139
aI114
aI124
aI120
aI168
aI131
aI83
aI156
aI93
aI219
aI184
aI222
aI159
aI176
aI111
aI226
aI181
aI181
aI190
aI139
aI100
aI180
aI190
aI133
aI164
aI218
aI100
aI124
aI152
aI154
aI192
aI217
aI76
aI181
aI172
aI117
aI142
aI203
aI108
aI139
aI126
aI111
aI124
aI205
aI125
aI83
aI191
aI221
aI168
aI193
aI159
aI196
aI84
aI155
aI145
aI222
aI208
aI208
aI116
aI86
aI166
aI178
aI103
aI76
aI81
aI174
aI124
aI205
aI92
aI147
aI117
aI102
aI76
aI144
aI119
aI161
aI119
aI212
aI153
aI105
aI208
aI198
aI197
aI226
aI190
aI130
aI93
aI109
aI177
aI95
aI141
aI216
aI110
aI186
aI93
aI151
aI115
aI192
aI96
aI208
aI166
aI207
aI109
aI196
aI166
aI119
aI222
aI160
aI203
aI205
aI184
aI217
aI98
aI179
aI184
aI89
aI121
aI122
aI89
aI147
aI193
aI167
aI131
aI135
aI180
aI113
aI157
aI213
aI111
aI200
aI96
aI120
aI105
aI223
aI150
aI120
aI175
aI204
aI195
aI98
aI207
aI144
aI209
aI206
aI198
aI159
aI177
aI107
aI220
aI139
aI221
aI194
aI118
aI78
aI86
aI205
aI221
aI199
aI221
aI75
aI92
aI225
aI104
aI200
aI198
aI135
aI214
aI147
aI148
aI184
aI99
aI188
aI91
aI106
aI190
aI113
aI163
aI102
aI153
aI95
aI135
aI107
aI210
aI80
aI156
aI101
aI121
aI147
aI147
aI196
aI85
aI141
aI139
aI187
aI138
aI207
aI76
aI169
aI135
aI130
aI84
aI219
aI127
aI86
aI97
aI117
aI164
aI151
aI218
aI94
aI106
aI169
aI109
aI178
aI117
aI138
aI90
aI178
aI162
aI146
aI179
aI202
aI122
aI93
aI166
aI153
aI75
aI214
aI216
aI166
aI113
aI164
aI156
aI168
aI179
aI170
aI114
aI205
aI222
aI207
aI93
aI108
aI76
aI78
aI90
aI79
aI142
aI174
aI124
aI200
aI157
aI217
aI106
aI209
aI113
aI108
aI158
aI126
aI96
aI109
aI175
aI177
aI191
aI125
aI157
aI152
aI170
aI112
aI153
aI221
aI139
aI205
aI148
aI183
aI198
aI96
aI176
aI177
aI92
aI153
aI174
aI114
aI115
aI102
aI209
aI103
aI134
aI128
aI202
aI100
aI114
aI206
aI120
aI101
aI156
aI109
aI109
aI103
aI200
aI141
aI139
aI224
aI189
aI164
aI203
aI190
aI225
aI111
aI195
aI78
aI101
aI198
aI125
aI199
aI107
aI123
aI177
aI112
aI226
aI189
aI114
aI177
aI90
aI95
aI82
aI114
aI176
aI133
aI123
aI117
aI208
aI109
aI142
aI89
aI207
aI91
aI149
aI196
aI204
aI86
aI139
aI145
aI123
aI188
aI130
aI204
aI75
aI151
aI144
aI213
aI143
aI106
aI184
aI218
aI174
aI82
aI94
aI207
aI88
aI226
aI101
aI89
aI161
aI123
aI130
aI203
aI204
aI117
aI226
aI85
aI86
aI199
aI75
aI148
aI91
aI225
aI122
aI131
aI171
aI81
aI111
aI219
aI179
aI95
aI193
aI145
aI133
aI142
aI219
aI81
aI124
aI129
aI153
aI195
aI123
aI178
aI226
aI123
aI155
aI105
aI79
aI138
aI193
aI167
aI197
aI83
aI107
aI188
aI104
aI218
aI213
aI222
aI91
aI171
aI223
aI156
aI132
aI156
aI147
aI136
aI195
aI95
aI163
aI205
aI110
aI142
aI161
aI201
aI204
aI207
aI152
aI135
aI148
aI160
aI223
aI102
aI185
aI179
aI82
aI152
aI76
aI131
aI163
aI122
aI206
aI219
aI112
aI155
aI146
aI174
aI172
aI182
aI215
aI180
aI77
aI87
aI219
aI100
aI200
aI97
aI139
aI201
aI143
aI212
aI123
aI223
aI121
aI109
aI82
aI197
aI93
aI126
aI194
aI124
aI128
aI167
aI202
aI145
aI135
aI85
aI194
aI205
aI210
aI159
aI136
aI107
aI211
aI131
aI190
aI97
aI153
aI119
aI133
aI169
aI176
aI153
aI218
aI116
aI133
aI178
aI103
aI104
aI83
aI172
aI203
aI161
aI87
aI199
aI92
aI100
aI173
aI131
aI138
aI139
aI201
aI221
aI80
aI198
aI186
aI150
aI89
aI201
aI110
aI198
aI166
aI153
aI181
aI94
aI207
aI151
aI162
aI164
aI129
aI80
aI90
aI89
aI83
aI125
aI218
aI162
aI82
aI156
aI81
aI103
aI76
aI116
aI161
aI192
aI110
aI222
aI87
aI133
aI194
aI174
aI181
aI168
aI173
aI139
aI213
aI89
aI211
aI187
aI167
aI126
aI80
aI166
aI135
aI191
aI187
aI105
aI119
aI106
aI173
aI194
aI154
aI177
aI113
aI84
aI200
aI218
aI163
aI85
aI187
aI155
aI78
aI154
aI111
aI135
aI193
aI183
aI111
aI217
aI161
aI167
aI145
aI91
aI203
aI137
aI146
aI196
aI217
aI170
aI122
aI97
aI160
aI132
aI141
aI107
aI188
aI123
aI136
aI212
aI97
aI220
aI194
aI85
aI100
aI179
aI137
aI189
aI186
aI138
aI202
aI80
aI133
aI135
aI211
aI176
aI133
aI138
aI113
aI98
aI174
aI215
aI184
aI170
aI133
aI145
aI114
aI88
aI168
aI116
aI137
aI85
aI142
aI117
aI163
aI212
aI75
aI97
aI206
aI80
aI113
aI207
aI99
aI80
aI223
aI162
aI193
aI225
aI200
aI189
aI199
aI118
aI194
aI203
aI108
aI142
aI130
aI166
aI215
aI191
aI122
aI218
aI89
aI83
aI200
aI181
aI197
aI179
aI141
aI149
aI198
aI221
aI134
aI140
aI209
aI97
aI211
aI156
aI93
aI146
aI142
aI75
aI208
aI79
aI205
aI119
aI140
aI123
aI166
aI173
aI154
aI163
aI147
aI84
aI125
aI90
aI199
aI109
aI126
aI211
aI125
aI209
aI166
aI217
aI207
aI156
aI104
aI211
aI185
aI93
aI225
aI115
aI144
aI223
aI175
aI87
aI182
aI190
aI130
aI191
aI146
aI223
aI165
aI111
aI175
aI146
aI210
aI133
aI127
aI216
aI123
aI212
aI118
aI122
aI166
aI94
aI212
aI222
aI118
aI112
aI157
aI172
aI147
aI132
aI88
aI184
aI170
aI174
aI167
aI158
aI102
aI168
aI207
aI210
aI214
aI107
aI197
aI99
aI119
aI198
aI157
aI174
aI110
aI123
aI204
aI89
aI165
aI109
aI173
aI180
aI201
aI172
aI208
aI185
aI200
aI110
aI183
aI100
aI134
aI200
aI108
aI99
aI130
aI99
aI130
aI126
aI188
aI217
aI156
aI214
aI221
aI194
aI186
aI159
aI180
aI134
aI210
aI97
aI134
aI152
aI126
aI143
aI97
aI117
aI122
aI186
aI173
aI122
aI78
aI130
aI200
aI107
aI165
aI156
aI119
aI198
aI119
aI91
aI226
aI167
aI96
aI104
aI96
aI145
aI146
aI202
aI197
aI140
aI216
aI99
aI96
aI158
aI150
aI127
aI92
aI112
aI222
aI110
aI136
aI203
aI221
aI96
aI138
aI143
aI78
aI150
aI140
aI224
aI183
aI102
aI85
aI151
aI205
aI218
aI110
aI155
aI210
aI163
aI105
aI212
aI154
aI106
aI132
aI161
aI144
aI124
aI96
aI148
aI184
aI101
aI92
aI108
aI109
aI83
aI90
aI149
aI103
aI76
aI194
aI170
aI95
aI177
aI177
aI85
aI77
aI217
aI189
aI104
aI174
aI94
aI177
aI203
aI161
aI110
aI200
aI212
aI149
aI119
aI159
aI140
aI160
aI163
aI103
aI118
aI77
aI145
aI116
aI156
aI156
aI215
aI140
aI164
aI99
aI102
aI174
aI139
aI109
aI86
aI196
aI97
aI160
aI75
aI127
aI142
aI125
aI111
aI171
aI176
aI104
aI181
aI133
aI79
aI180
aI113
aI114
aI96
aI105
aI182
aI179
aI202
aI109
aI198
aI213
aI83
aI82
aI168
aI117
aI90
aI80
aI192
aI210
aI117
aI171
aI85
aI115
aI134
aI116
aI137
aI165
aI140
aI127
aI195
aI172
aI198
aI127
aI137
aI131
aI86
aI152
aI84
aI75
aI100
aI218
aI100
aI207
aI125
aI200
aI204
aI196
aI154
aI78
aI179
aI211
aI218
aI139
aI77
aI158
aI118
aI138
aI157
aI204
aI210
aI180
aI172
aI82
aI166
aI218
aI76
aI174
aI150
aI216
aI169
aI135
aI91
aI207
aI176
aI191
aI216
aI226
aI211
aI102
aI155
aI128
aI146
aI154
aI91
aI189
aI218
aI122
aI120
aI180
aI102
aI154
aI199
aI222
aI139
aI179
aI199
aI202
aI148
aI181
aI97
aI119
aI205
aI136
aI174
aI186
aI99
aI101
aI97
aI216
aI176
aI109
aI79
aI159
aI94
aI135
aI125
aI164
aI194
aI188
aI82
aI181
aI86
aI152
aI211
aI87
aI221
aI88
aI119
aI89
aI124
aI179
aI174
aI94
aI122
aI188
aI145
aI118
aI119
aI93
aI130
aI147
aI221
aI201
aI138
aI81
aI214
aI222
aI194
aI118
aI192
aI130
aI76
aI179
aI182
aI147
aI93
aI133
aI140
aI141
aI157
aI142
aI120
aI163
aI120
aI151
aI199
aI224
aI156
aI79
aI170
aI225
aI178
aI153
aI78
aI137
aI150
aI135
aI192
aI76
aI205
aI103
aI211
aI92
aI117
aI154
aI213
aI90
aI110
aI106
aI208
aI205
aI167
aI127
aI149
aI206
aI130
aI100
aI87
aI125
aI178
aI184
aI109
aI132
aI167
aI200
aI204
aI209
aI80
aI135
aI212
aI151
aI226
aI157
aI78
aI170
aI81
aI207
aI136
aI76
aI103
aI166
aI187
aI123
aI129
aI113
aI133
aI113
aI153
aI113
aI217
aI143
aI182
aI199
aI143
aI112
aI164
aI162
aI213
aI210
aI159
aI99
aI76
aI81
aI146
aI140
aI143
aI156
aI121
aI141
aI206
aI97
aI79
aI88
aI144
aI136
aI221
aI174
aI167
aI128
aI219
aI119
aI137
aI203
aI91
aI125
aI144
aI183
aI216
aI90
aI189
aI191
aI216
aI75
aI184
aI188
aI206
aI190
aI181
aI219
aI129
aI123
aI117
aI163
aI119
aI97
aI84
aI104
aI219
aI169
aI177
aI190
aI112
aI211
aI92
aI226
aI213
aI169
aI108
aI216
aI192
aI92
aI138
aI79
aI211
aI143
aI189
aI206
aI100
aI192
aI124
aI213
aI117
aI170
aI209
aI191
aI184
aI75
aI154
aI120
aI163
aI130
aI140
aI97
aI101
aI181
aI148
aI103
aI218
aI216
aI156
aI206
aI187
aI181
aI109
aI123
aI117
aI217
aI151
aI131
aI121
aI218
aI85
aI167
aI151
aI141
aI92
aI194
aI109
aI100
aI98
aI188
aI116
aI186
aI138
aI224
aI220
aI213
aI145
aI99
aI156
aI220
aI147
aI215
aI86
aI80
aI205
aI150
aI118
aI176
aI109
aI198
aI117
aI111
aI168
aI193
aI163
aI160
aI218
aI153
aI118
aI222
aI196
aI93
aI114
aI145
aI130
aI150
aI171
aI203
aI216
aI216
aI115
aI181
aI187
aI144
aI131
aI84
aI176
aI90
aI91
aI163
aI119
aI194
aI164
aI220
aI86
aI204
aI95
aI144
aI217
aI160
aI198
aI128
aI115
aI99
aI126
aI186
aI125
aI83
aI130
aI213
aI123
aI224
aI221
aI85
aI178
aI165
aI111
aI133
aI223
aI78
aI157
aI132
aI108
aI93
aI217
aI152
aI101
aI166
aI176
aI127
aI136
aI203
aI181
aI202
aI91
aI125
aI213
aI198
aI170
aI205
aI77
aI187
aI205
aI217
aI125
aI162
aI112
aI139
aI154
aI86
aI203
aI147
aI101
aI141
aI172
aI102
aI118
aI207
aI203
aI84
aI216
aI91
aI169
aI220
aI108
aI197
aI185
aI202
aI198
aI220
aI213
aI135
aI162
aI135
aI220
aI132
aI146
aI78
aI185
aI129
aI88
aI133
aI193
aI121
aI178
aI101
aI80
aI101
aI131
aI189
aI117
aI147
aI92
aI125
aI151
aI173
aI143
aI198
aI198
aI181
aI176
aI140
aI202
aI137
aI175
aI158
aI147
aI100
aI134
aI86
aI116
aI139
aI112
aI82
aI205
aI201
aI139
aI112
aI159
aI185
aI211
aI174
aI219
aI94
aI153
aI91
aI197
aI102
aI128
aI98
aI189
aI211
aI167
aI110
aI200
aI81
aI89
aI166
aI129
aI176
aI188
aI134
aI83
aI160
aI81
aI101
aI164
aI189
aI76
aI142
aI197
aI174
aI89
aI103
aI204
aI142
aI75
aI149
aI120
aI129
aI134
aI192
aI111
aI105
aI80
aI107
aI209
aI225
aI129
aI108
aI213
aI164
aI208
aI190
aI198
aI136
aI78
aI210
aI192
aI138
aI81
aI197
aI172
aI105
aI114
aI211
aI102
aI217
aI111
aI83
aI127
aI186
aI169
aI176
aI123
aI193
aI214
aI169
aI166
aI226
aI96
aI81
aI206
aI138
aI137
aI219
aI203
aI137
aI154
aI121
aI179
aI147
aI102
aI91
aI205
aI182
aI184
aI200
aI224
aI182
aI113
aI198
aI96
aI172
aI140
aI122
aI94
aI99
aI214
aI193
aI158
aI207
aI197
aI222
aI84
aI152
aI177
aI148
aI118
aI158
aI166
aI121
aI148
aI215
aI95
aI128
aI143
aI146
aI121
aI106
aI192
aI150
aI89
aI135
aI102
aI138
aI218
aI115
aI110
aI92
aI79
aI153
aI154
aI214
aI80
aI82
aI93
aI210
aI79
aI126
aI222
aI93
aI82
aI210
aI208
aI177
aI187
aI145
aI211
aI155
aI98
aI84
aI105
aI112
aI168
aI196
aI91
aI220
aI210
aI157
aI176
aI223
aI223
aI109
aI100
aI180
aI226
aI177
aI143
aI101
aI172
aI188
aI88
aI136
aI219
aI207
aI167
aI166
aI185
aI226
aI143
aI207
aI97
aI108
aI160
aI149
aI153
aI89
aI224
aI115
aI113
aI223
aI200
aI183
aI204
aI135
aI114
aI147
aI98
aI221
aI149
aI100
aI148
aI136
aI163
aI195
aI99
aI222
aI187
aI214
aI188
aI92
aI133
aI114
aI158
aI211
aI124
aI98
aI207
aI201
aI226
aI212
aI86
aI206
aI111
aI201
aI186
aI175
aI79
aI141
aI111
aI171
aI101
aI153
aI180
aI158
aI78
aI207
aI213
aI104
aI119
aI153
aI126
aI78
aI94
aI113
aI128
aI91
aI191
aI81
aI136
aI152
aI110
aI170
aI181
aI98
aI108
aI155
aI147
aI167
aI148
aI100
aI221
aI93
aI219
aI216
aI104
aI86
aI76
aI94
aI119
aI146
aI115
aI216
aI94
aI134
aI165
aI150
aI171
aI133
aI101
aI117
aI103
aI161
aI137
aI137
aI103
aI196
aI175
aI100
aI205
aI156
aI220
aI164
aI114
aI123
aI103
aI175
aI139
aI215
aI161
aI193
aI193
aI88
aI221
aI163
aI217
aI204
aI108
aI205
aI139
aI141
aI80
aI185
aI199
aI223
aI190
aI183
aI82
aI190
aI179
aI124
aI226
aI197
aI112
aI215
aI196
aI132
aI223
aI153
aI122
aI212
aI199
aI88
aI184
aI168
aI94
aI174
aI188
aI132
aI92
aI165
aI185
aI134
aI119
aI152
aI107
aI204
aI84
aI84
aI89
aI199
aI130
aI110
aI130
aI183
aI196
aI142
aI192
aI209
aI82
aI80
aI96
aI202
aI175
aI226
aI140
aI78
aI127
aI105
aI127
aI101
aI207
aI128
aI86
aI123
aI175
aI142
aI108
aI196
aI221
aI201
aI170
aI208
aI141
aI92
aI204
aI146
aI135
aI179
aI175
aI143
aI208
aI207
aI147
aI125
aI198
aI202
aI144
aI205
aI212
aI185
aI170
aI118
aI188
aI188
aI162
aI226
aI184
aI104
aI151
aI77
aI182
aI143
aI112
aI147
aI124
aI90
aI201
aI174
aI184
aI164
aI166
aI169
aI142
aI119
aI112
aI156
aI124
aI163
aI199
aI202
aI126
aI204
aI156
aI133
aI86
aI85
aI128
aI169
aI105
aI173
aI122
aI175
aI180
aI195
aI106
aI121
aI77
aI126
aI189
aI218
aI112
aI154
aI152
aI167
aI87
aI113
aI110
aI159
aI196
aI172
aI116
aI209
aI100
aI220
aI98
aI204
aI90
aI180
aI87
aI149
aI214
aI222
aI120
aI138
aI82
aI224
aI223
aI159
aI191
aI167
aI187
aI82
aI100
aI96
aI161
aI185
aI132
aI167
aI220
aI170
aI129
aI196
aI96
aI190
aI135
aI146
aI116
aI180
aI160
aI126
aI183
aI189
aI138
aI141
aI210
aI193
aI133
aI173
aI121
aI221
aI116
aI147
aI96
aI156
aI141
aI190
aI101
aI199
aI81
aI136
aI85
aI166
aI95
aI188
aI117
aI156
aI114
aI147
aI83
aI206
aI200
aI175
aI134
aI146
aI108
aI135
aI208
aI124
aI77
aI196
aI80
aI128
aI87
aI112
aI150
aI188
aI96
aI84
aI138
aI93
aI173
aI139
aI214
aI183
aI154
aI209
aI97
aI93
aI125
aI219
aI226
aI160
aI116
aI139
aI123
aI154
aI175
aI162
aI207
aI123
aI135
aI103
aI187
aI150
aI171
aI191
aI220
aI214
aI210
aI164
aI199
aI157
aI130
aI102
aI215
aI114
aI162
aI149
aI99
aI100
aI130
aI94
aI167
aI177
aI209
aI205
aI148
aI196
aI157
aI179
aI83
aI114
aI159
aI117
aI220
aI95
aI141
aI173
aI114
aI149
aI98
aI212
aI77
aI153
aI99
aI174
aI117
aI121
aI131
aI114
aI138
aI150
aI124
aI97
aI219
aI104
aI162
aI213
aI104
aI113
aI181
aI104
aI120
aI160
aI113
aI159
aI155
aI107
aI180
aI119
aI142
aI220
aI143
aI130
aI160
aI219
aI110
aI99
aI121
aI102
aI99
aI151
aI132
aI88
aI113
aI105
aI90
aI128
aI77
aI102
aI122
aI207
aI77
aI156
aI90
aI76
aI209
aI144
aI86
aI220
aI186
aI187
aI208
aI101
aI167
aI215
aI170
aI154
aI78
aI217
aI203
aI124
aI217
aI160
aI95
aI158
aI172
aI99
aI93
aI125
aI99
aI208
aI198
aI143
aI159
aI182
aI167
aI184
aI106
aI181
aI206
aI197
aI207
aI159
aI145
aI204
aI182
aI179
aI191
aI197
aI150
aI110
aI164
aI133
aI102
aI187
aI106
aI113
aI152
aI172
aI172
aI179
aI150
aI126
aI219
aI197
aI222
aI213
aI224
aI103
aI182
aI222
aI103
aI75
aI165
aI200
aI87
aI190
aI198
aI170
aI220
aI119
aI176
aI155
aI203
aI208
aI104
aI224
aI187
aI142
aI169
aI110
aI141
aI187
aI190
aI144
aI140
aI94
aI168
aI89
aI141
aI159
aI131
aI182
aI190
aI216
aI147
aI124
aI190
aI133
aI139
aI147
aI104
aI116
aI211
aI225
aI86
aI222
aI76
aI195
aI201
aI182
aI200
aI154
aI186
aI101
aI89
aI111
aI179
aI158
aI118
aI131
aI134
aI221
aI137
aI175
aI149
aI109
aI203
aI116
aI174
aI156
aI130
aI129
aI205
aI120
aI157
aI168
aI224
aI182
aI160
aI99
aI198
aI104
aI203
aI206
aI77
aI195
aI101
aI162
aI162
aI105
aI219
aI142
aI103
aI86
aI183
aI167
aI115
aI207
aI110
aI83
aI92
aI124
aI127
aI172
aI144
aI125
aI164
aI178
aI86
aI146
aI117
aI156
aI108
aI161
aI157
aI197
aI80
aI151
aI85
aI83
aI92
aI120
aI193
aI191
aI82
aI75
aI183
aI167
aI195
aI122
aI191
aI178
aI205
aI222
aI190
aI175
aI112
aI127
aI213
aI181
aI199
aI193
aI174
aI208
aI186
aI117
aI207
aI129
aI201
aI154
aI144
aI120
aI218
aI100
aI80
aI158
aI162
aI204
aI192
aI200
aI80
aI132
aI172
aI84
aI91
aI111
aI159
aI205
aI112
aI225
aI88
aI162
aI107
aI82
aI121
aI177
aI106
aI133
aI181
aI165
aI201
aI113
aI194
aI80
aI207
aI207
aI215
aI81
aI139
aI150
aI204
aI179
aI118
aI115
aI161
aI136
aI189
aI147
aI133
aI134
aI222
aI125
aI198
aI210
aI110
aI131
aI127
aI141
aI198
aI154
aI196
aI148
aI213
aI178
aI111
aI104
aI212
aI123
aI92
aI211
aI163
aI115
aI85
aI190
aI105
aI222
aI142
aI85
aI125
aI114
aI138
aI187
aI184
aI109
aI122
aI83
aI80
aI116
aI80
aI124
aI220
aI169
aI207
aI180
aI134
aI84
aI194
aI169
aI163
aI128
aI101
aI148
aI108
aI121
aI183
aI198
aI150
aI133
aI218
aI226
aI204
aI206
aI202
aI119
aI80
aI135
aI187
aI90
aI210
aI219
aI95
aI163
aI107
aI158
aI219
aI167
aI80
aI131
aI108
aI94
aI160
aI131
aI76
aI160
aI172
aI85
aI185
aI153
aI208
aI225
aI155
aI156
aI123
aI177
aI172
aI94
aI121
aI87
aI81
aI150
aI106
aI139
aI141
aI101
aI206
aI139
aI97
aI80
aI150
aI168
aI157
aI96
aI134
aI190
aI87
aI120
aI121
aI104
aI126
aI93
aI130
aI215
aI208
aI80
aI120
aI88
aI155
aI112
aI160
aI168
aI179
aI225
aI116
aI164
aI81
aI156
aI111
aI225
aI186
aI215
aI100
aI194
aI201
aI83
aI107
aI226
aI166
aI147
aI109
aI170
aI134
aI161
aI139
aI93
aI134
aI219
aI139
aI197
aI123
aI168
aI218
aI184
aI144
aI211
aI221
aI135
aI104
aI146
aI168
aI179
aI207
aI135
aI183
aI194
aI203
aI138
aI205
aI137
aI114
aI215
aI183
aI178
aI144
aI87
aI152
aI163
aI93
aI144
aI82
aI138
aI205
aI223
aI120
aI123
aI171
aI135
aI214
aI178
aI90
aI169
aI221
aI103
aI117
aI146
aI160
aI225
aI88
aI163
aI111
aI151
aI141
aI86
aI135
aI109
aI158
aI132
aI223
aI135
aI126
aI168
aI222
aI196
aI154
aI112
aI163
aI203
aI182
aI177
aI148
aI223
aI85
aI80
aI156
aI217
aI218
aI157
aI216
aI160
aI109
aI197
aI193
aI185
aI118
aI162
aI159
aI135
aI143
aI145
aI198
aI88
aI85
aI194
aI106
aI96
aI215
aI156
aI120
aI88
aI113
aI152
aI109
aI172
aI214
aI148
aI187
aI200
aI111
aI131
aI175
aI123
aI179
aI102
aI110
aI75
aI171
aI161
aI149
aI91
aI167
aI184
aI225
aI191
aI78
aI75
aI93
aI179
aI176
aI104
aI121
aI122
aI119
aI188
aI212
aI184
aI111
aI149
aI76
aI154
aI139
aI217
aI182
aI128
aI166
aI114
aI210
aI208
aI117
aI120
aI171
aI92
aI135
aI200
aI190
aI79
aI137
aI149
aI216
aI102
aI137
aI85
aI182
aI116
aI188
aI149
aI117
aI222
aI113
aI113
aI114
aI143
aI115
aI113
aI102
aI166
aI208
aI155
aI192
aI103
aI223
aI182
aI86
aI105
aI204
aI156
aI103
aI122
aI173
aI88
aI94
aI193
aI204
aI221
aI187
aI118
aI199
aI173
aI121
aI159
aI208
aI177
aI85
aI156
aI78
aI107
aI88
aI93
aI114
aI214
aI200
aI182
aI136
aI209
aI149
aI119
aI223
aI167
aI173
aI83
aI190
aI202
aI155
aI226
aI103
aI82
aI189
aI98
aI170
aI78
aI159
aI226
aI155
aI203
aI197
aI174
aI153
aI145
aI125
aI173
aI122
aI210
aI218
aI81
aI116
aI125
aI150
aI207
aI76
aI119
aI188
aI163
aI211
aI220
aI190
aI207
aI156
aI199
aI186
aI147
aI196
aI221
aI136
aI175
aI80
aI102
aI209
aI192
aI96
aI217
aI167
aI127
aI98
aI123
aI226
aI137
aI79
aI97
aI125
aI181
aI158
aI103
aI191
aI109
aI133
aI167
aI212
aI179
aI164
aI100
aI184
aI211
aI219
aI124
aI206
aI80
aI217
aI79
aI131
aI97
aI219
aI142
aI147
aI157
aI85
aI151
aI203
aI167
aI215
aI204
aI140
aI208
aI121
aI199
aI108
aI76
aI138
aI201
aI167
aI205
aI223
aI108
aI110
aI184
aI113
aI192
aI225
aI174
aI208
aI160
aI124
aI163
aI218
aI165
aI84
aI193
aI107
aI167
aI83
aI189
aI127
aI84
aI96
aI91
aI115
aI132
aI192
aI78
aI144
aI100
aI178
aI209
aI98
aI110
aI153
aI202
aI187
aI125
aI181
aI226
aI147
aI81
aI212
aI152
aI202
aI105
aI176
aI186
aI160
aI157
aI111
aI204
aI103
aI200
aI224
aI111
aI86
aI148
aI168
aI84
aI220
aI185
aI147
aI83
aI208
aI206
aI83
aI143
aI142
aI123
aI181
aI159
aI86
aI76
aI155
aI87
aI137
aI89
aI82
aI108
aI76
aI102
aI184
aI220
aI226
aI92
aI97
aI175
aI85
aI218
aI145
aI106
aI153
aI104
aI150
aI75
aI126
aI87
aI171
aI159
aI182
aI199
aI128
aI157
aI102
aI192
aI162
aI126
aI166
aI86
aI158
aI152
aI114
aI193
aI75
aI194
aI90
aI105
aI174
aI96
aI190
aI195
aI192
aI179
aI200
aI213
aI96
aI123
aI138
aI176
aI211
aI85
aI156
aI199
aI78
aI140
aI103
aI138
aI105
aI191
aI115
aI79
aI197
aI136
aI126
aI106
aI208
aI101
aI193
aI221
aI187
aI161
aI106
aI128
aI93
aI189
aI80
aI97
aI178
aI123
aI157
aI117
aI165
aI110
aI206
aI177
aI126
aI147
aI156
aI222
aI113
aI164
aI102
aI218
aI76
aI108
aI171
aI139
aI98
aI221
aI81
aI183
aI223
aI141
aI141
aI186
aI152
aI182
aI110
aI139
aI82
aI222
aI77
aI103
aI193
aI159
aI117
aI85
aI197
aI90
aI78
aI158
aI219
aI197
aI159
aI138
aI81
aI164
aI97
aI172
aI138
aI135
aI147
aI187
aI119
aI194
aI173
aI172
aI177
aI129
aI213
aI149
aI165
aI129
aI194
aI188
aI153
aI96
aI118
aI190
aI208
aI159
aI143
aI126
aI163
aI146
aI119
aI201
aI219
aI107
aI93
aI208
aI96
aI167
aI156
aI203
aI172
aI147
aI106
aI194
aI182
aI163
aI219
aI119
aI128
aI150
aI149
aI106
aI197
aI99
aI146
aI124
aI168
aI156
aI166
aI178
aI206
aI118
aI99
aI85
aI128
aI86
aI102
aI124
aI119
aI88
aI221
aI221
aI127
aI153
aI201
aI177
aI153
aI193
aI182
aI148
aI198
aI102
aI183
aI213
aI214
aI199
aI195
aI140
aI211
aI222
aI77
aI87
aI128
aI106
aI153
aI225
aI129
aI197
aI218
aI211
aI205
aI155
aI148
aI164
aI164
aI116
aI102
aI195
aI117
aI169
aI182
aI219
aI205
a.