(dp0
S'DSC07956.JPG'
p1
(lp2
(lp3
(lp4
(I13
I13
tp5
a(I1413
I13
tp6
a(I1413
I2013
tp7
a(I13
I2013
tp8
aa(lp9
(I193
I2707
tp10
a(I813
I2707
tp11
a(I813
I3333
tp12
a(I193
I3333
tp13
aa(lp14
(I3440
I1900
tp15
a(I5187
I1900
tp16
a(I5187
I3527
tp17
a(I3440
I3527
tp18
aaa(lp19
(lp20
(I0
I113
tp21
a(I1613
I113
tp22
a(I1613
I1920
tp23
a(I0
I1920
tp24
aa(lp25
(I3533
I2093
tp26
a(I4973
I2093
tp27
a(I4973
I3300
tp28
a(I3533
I3300
tp29
aaa(lp30
(lp31
(I53
I93
tp32
a(I1707
I93
tp33
a(I1707
I1880
tp34
a(I53
I1880
tp35
aa(lp36
(I3480
I1973
tp37
a(I5027
I1973
tp38
a(I5027
I3320
tp39
a(I3480
I3320
tp40
aaasS'DSC07987.JPG'
p41
(lp42
(lp43
a(lp44
a(lp45
(lp46
(I1813
I2540
tp47
a(I2113
I2540
tp48
a(I2113
I2787
tp49
a(I1813
I2787
tp50
aa(lp51
(I2127
I2653
tp52
a(I2600
I2653
tp53
a(I2600
I2967
tp54
a(I2127
I2967
tp55
aaasS'DSC07969.JPG'
p56
(lp57
(lp58
(lp59
(I2333
I2360
tp60
a(I3753
I2360
tp61
a(I3753
I3720
tp62
a(I2333
I3720
tp63
aaa(lp64
(lp65
(I2393
I2380
tp66
a(I3793
I2380
tp67
a(I3793
I3720
tp68
a(I2393
I3720
tp69
aaa(lp70
(lp71
(I2280
I2467
tp72
a(I3660
I2467
tp73
a(I3660
I3613
tp74
a(I2280
I3613
tp75
aaasS'DSC07826.JPG'
p76
(lp77
(lp78
(lp79
(I593
I1373
tp80
a(I2133
I1373
tp81
a(I2133
I2833
tp82
a(I593
I2833
tp83
aa(lp84
(I2333
I1953
tp85
a(I2767
I1953
tp86
a(I2767
I2573
tp87
a(I2333
I2573
tp88
aa(lp89
(I193
I3000
tp90
a(I820
I3000
tp91
a(I820
I3507
tp92
a(I193
I3507
tp93
aa(lp94
(I4347
I3073
tp95
a(I4747
I3073
tp96
a(I4747
I3507
tp97
a(I4347
I3507
tp98
aaa(lp99
(lp100
(I547
I1547
tp101
a(I2193
I1547
tp102
a(I2193
I2840
tp103
a(I547
I2840
tp104
aa(lp105
(I2267
I1987
tp106
a(I2773
I1987
tp107
a(I2773
I2520
tp108
a(I2267
I2520
tp109
aa(lp110
(I167
I3033
tp111
a(I720
I3033
tp112
a(I720
I3507
tp113
a(I167
I3507
tp114
aa(lp115
(I4300
I3100
tp116
a(I4733
I3100
tp117
a(I4733
I3453
tp118
a(I4300
I3453
tp119
aaa(lp120
(lp121
(I2220
I2020
tp122
a(I2787
I2020
tp123
a(I2787
I2520
tp124
a(I2220
I2520
tp125
aa(lp126
(I2807
I-7
tp127
a(I3253
I-7
tp128
a(I3253
I147
tp129
a(I2807
I147
tp130
aa(lp131
(I5387
I327
tp132
a(I5960
I327
tp133
a(I5960
I780
tp134
a(I5387
I780
tp135
aa(lp136
(I220
I2973
tp137
a(I893
I2973
tp138
a(I893
I3473
tp139
a(I220
I3473
tp140
aa(lp141
(I407
I1427
tp142
a(I2240
I1427
tp143
a(I2240
I2833
tp144
a(I407
I2833
tp145
aa(lp146
(I4273
I3113
tp147
a(I4760
I3113
tp148
a(I4760
I3453
tp149
a(I4273
I3453
tp150
aaasS'DSC07929.JPG'
p151
(lp152
(lp153
(lp154
(I3227
I67
tp155
a(I3913
I67
tp156
a(I3913
I707
tp157
a(I3227
I707
tp158
aa(lp159
(I1973
I1933
tp160
a(I2780
I1933
tp161
a(I2780
I3027
tp162
a(I1973
I3027
tp163
aa(lp164
(I0
I747
tp165
a(I433
I747
tp166
a(I433
I1193
tp167
a(I0
I1193
tp168
aa(lp169
(I707
I753
tp170
a(I1040
I753
tp171
a(I1040
I1300
tp172
a(I707
I1300
tp173
aaa(lp174
(lp175
(I2613
I7
tp176
a(I3627
I7
tp177
a(I3627
I1173
tp178
a(I2613
I1173
tp179
aa(lp180
(I620
I833
tp181
a(I1080
I833
tp182
a(I1080
I1287
tp183
a(I620
I1287
tp184
aa(lp185
(I1413
I720
tp186
a(I1753
I720
tp187
a(I1753
I1073
tp188
a(I1413
I1073
tp189
aa(lp190
(I0
I820
tp191
a(I500
I820
tp192
a(I500
I1413
tp193
a(I0
I1413
tp194
aaa(lp195
(lp196
(I3040
I467
tp197
a(I3373
I467
tp198
a(I3373
I887
tp199
a(I3040
I887
tp200
aa(lp201
(I3113
I20
tp202
a(I3440
I20
tp203
a(I3440
I93
tp204
a(I3113
I93
tp205
aa(lp206
(I1473
I793
tp207
a(I1513
I793
tp208
a(I1513
I800
tp209
a(I1473
I800
tp210
aa(lp211
(I1493
I793
tp212
a(I1667
I793
tp213
a(I1667
I1013
tp214
a(I1493
I1013
tp215
aa(lp216
(I727
I927
tp217
a(I1007
I927
tp218
a(I1007
I1193
tp219
a(I727
I1193
tp220
aa(lp221
(I73
I880
tp222
a(I333
I880
tp223
a(I333
I1093
tp224
a(I73
I1093
tp225
aaasS'DSC07915.JPG'
p226
(lp227
(lp228
(lp229
(I1427
I1240
tp230
a(I1900
I1240
tp231
a(I1900
I1613
tp232
a(I1427
I1613
tp233
aa(lp234
(I0
I1973
tp235
a(I440
I1973
tp236
a(I440
I2500
tp237
a(I0
I2500
tp238
aa(lp239
(I20
I2153
tp240
a(I640
I2153
tp241
a(I640
I2593
tp242
a(I20
I2593
tp243
aaa(lp244
(lp245
(I0
I1920
tp246
a(I573
I1920
tp247
a(I573
I2640
tp248
a(I0
I2640
tp249
aaa(lp250
(lp251
(I127
I2047
tp252
a(I300
I2047
tp253
a(I300
I2293
tp254
a(I127
I2293
tp255
aa(lp256
(I173
I2313
tp257
a(I440
I2313
tp258
a(I440
I2440
tp259
a(I173
I2440
tp260
aaasS'DSC08237.JPG'
p261
(lp262
(lp263
(lp264
(I487
I7
tp265
a(I1393
I7
tp266
a(I1393
I260
tp267
a(I487
I260
tp268
aa(lp269
(I1733
I-7
tp270
a(I1920
I-7
tp271
a(I1920
I260
tp272
a(I1733
I260
tp273
aaa(lp274
(lp275
(I660
I3413
tp276
a(I920
I3413
tp277
a(I920
I3700
tp278
a(I660
I3700
tp279
aaa(lp280
asS'DSC07920.JPG'
p281
(lp282
(lp283
a(lp284
(lp285
(I5113
I1187
tp286
a(I5993
I1187
tp287
a(I5993
I2573
tp288
a(I5113
I2573
tp289
aa(lp290
(I1547
I2153
tp291
a(I1887
I2153
tp292
a(I1887
I2393
tp293
a(I1547
I2393
tp294
aaa(lp295
asS'DSC07817.JPG'
p296
(lp297
(lp298
(lp299
(I967
I3240
tp300
a(I1227
I3240
tp301
a(I1227
I3493
tp302
a(I967
I3493
tp303
aa(lp304
(I1260
I1733
tp305
a(I1447
I1733
tp306
a(I1447
I1947
tp307
a(I1260
I1947
tp308
aaa(lp309
(lp310
(I5333
I1773
tp311
a(I5793
I1773
tp312
a(I5793
I2393
tp313
a(I5333
I2393
tp314
aa(lp315
(I5180
I2853
tp316
a(I5693
I2853
tp317
a(I5693
I3640
tp318
a(I5180
I3640
tp319
aa(lp320
(I907
I3207
tp321
a(I1293
I3207
tp322
a(I1293
I3600
tp323
a(I907
I3600
tp324
aaa(lp325
(lp326
(I1120
I1660
tp327
a(I1520
I1660
tp328
a(I1520
I1953
tp329
a(I1120
I1953
tp330
aa(lp331
(I787
I3167
tp332
a(I1267
I3167
tp333
a(I1267
I3547
tp334
a(I787
I3547
tp335
aa(lp336
(I5240
I2887
tp337
a(I5527
I2887
tp338
a(I5527
I3180
tp339
a(I5240
I3180
tp340
aa(lp341
(I5333
I3273
tp342
a(I5707
I3273
tp343
a(I5707
I3613
tp344
a(I5333
I3613
tp345
aa(lp346
(I5233
I1733
tp347
a(I5800
I1733
tp348
a(I5800
I2340
tp349
a(I5233
I2340
tp350
aaasS'DSC08035.JPG'
p351
(lp352
(lp353
a(lp354
(lp355
(I3080
I2587
tp356
a(I3093
I2587
tp357
a(I3093
I2593
tp358
a(I3080
I2593
tp359
aa(lp360
(I3093
I2607
tp361
a(I3273
I2607
tp362
a(I3273
I2747
tp363
a(I3093
I2747
tp364
aa(lp365
(I3120
I2820
tp366
a(I3327
I2820
tp367
a(I3327
I2920
tp368
a(I3120
I2920
tp369
aa(lp370
(I2853
I2373
tp371
a(I3067
I2373
tp372
a(I3067
I2540
tp373
a(I2853
I2540
tp374
aaa(lp375
(lp376
(I2787
I2367
tp377
a(I3367
I2367
tp378
a(I3367
I2953
tp379
a(I2787
I2953
tp380
aaasS'DSC08071.JPG'
p381
(lp382
(lp383
(lp384
(I3967
I20
tp385
a(I5027
I20
tp386
a(I5027
I433
tp387
a(I3967
I433
tp388
aaa(lp389
(lp390
(I3900
I0
tp391
a(I4687
I0
tp392
a(I4687
I367
tp393
a(I3900
I367
tp394
aaa(lp395
(lp396
(I4033
I0
tp397
a(I5053
I0
tp398
a(I5053
I213
tp399
a(I4033
I213
tp400
aaasS'DSC08121.JPG'
p401
(lp402
(lp403
(lp404
(I1707
I840
tp405
a(I3120
I840
tp406
a(I3120
I2207
tp407
a(I1707
I2207
tp408
aa(lp409
(I1860
I2300
tp410
a(I3920
I2300
tp411
a(I3920
I3993
tp412
a(I1860
I3993
tp413
aa(lp414
(I2787
I1333
tp415
a(I4480
I1333
tp416
a(I4480
I3233
tp417
a(I2787
I3233
tp418
aaa(lp419
(lp420
(I1787
I953
tp421
a(I2720
I953
tp422
a(I2720
I2020
tp423
a(I1787
I2020
tp424
aa(lp425
(I3087
I1440
tp426
a(I4620
I1440
tp427
a(I4620
I3200
tp428
a(I3087
I3200
tp429
aa(lp430
(I1920
I2580
tp431
a(I3867
I2580
tp432
a(I3867
I3980
tp433
a(I1920
I3980
tp434
aaa(lp435
(lp436
(I1793
I947
tp437
a(I2927
I947
tp438
a(I2927
I2107
tp439
a(I1793
I2107
tp440
aa(lp441
(I2813
I1567
tp442
a(I4400
I1567
tp443
a(I4400
I3080
tp444
a(I2813
I3080
tp445
aaasS'DSC07816.JPG'
p446
(lp447
(lp448
(lp449
(I927
I487
tp450
a(I1400
I487
tp451
a(I1400
I860
tp452
a(I927
I860
tp453
aa(lp454
(I960
I1687
tp455
a(I1333
I1687
tp456
a(I1333
I2253
tp457
a(I960
I2253
tp458
aa(lp459
(I5380
I280
tp460
a(I5687
I280
tp461
a(I5687
I613
tp462
a(I5380
I613
tp463
aa(lp464
(I5227
I0
tp465
a(I5567
I0
tp466
a(I5567
I193
tp467
a(I5227
I193
tp468
aa(lp469
(I160
I3300
tp470
a(I647
I3300
tp471
a(I647
I3687
tp472
a(I160
I3687
tp473
aa(lp474
(I3920
I2553
tp475
a(I4253
I2553
tp476
a(I4253
I3007
tp477
a(I3920
I3007
tp478
aaa(lp479
(lp480
(I1027
I507
tp481
a(I1273
I507
tp482
a(I1273
I827
tp483
a(I1027
I827
tp484
aa(lp485
(I4927
I1427
tp486
a(I5233
I1427
tp487
a(I5233
I2453
tp488
a(I4927
I2453
tp489
aa(lp490
(I340
I3380
tp491
a(I507
I3380
tp492
a(I507
I3507
tp493
a(I340
I3507
tp494
aaa(lp495
(lp496
(I5333
I167
tp497
a(I5713
I167
tp498
a(I5713
I633
tp499
a(I5333
I633
tp500
aa(lp501
(I5213
I0
tp502
a(I5553
I0
tp503
a(I5553
I120
tp504
a(I5213
I120
tp505
aa(lp506
(I813
I467
tp507
a(I1413
I467
tp508
a(I1413
I853
tp509
a(I813
I853
tp510
aa(lp511
(I127
I3320
tp512
a(I587
I3320
tp513
a(I587
I3640
tp514
a(I127
I3640
tp515
aa(lp516
(I967
I1787
tp517
a(I1280
I1787
tp518
a(I1280
I2127
tp519
a(I967
I2127
tp520
aa(lp521
(I5527
I3580
tp522
a(I5993
I3580
tp523
a(I5993
I3987
tp524
a(I5527
I3987
tp525
aa(lp526
(I3840
I2600
tp527
a(I4333
I2600
tp528
a(I4333
I3047
tp529
a(I3840
I3047
tp530
aaasS'DSC07812.JPG'
p531
(lp532
(lp533
(lp534
(I1000
I1120
tp535
a(I1353
I1120
tp536
a(I1353
I1353
tp537
a(I1000
I1353
tp538
aa(lp539
(I3987
I1600
tp540
a(I4427
I1600
tp541
a(I4427
I2007
tp542
a(I3987
I2007
tp543
aa(lp544
(I4267
I1840
tp545
a(I4500
I1840
tp546
a(I4500
I2080
tp547
a(I4267
I2080
tp548
aa(lp549
(I3053
I1987
tp550
a(I3320
I1987
tp551
a(I3320
I2380
tp552
a(I3053
I2380
tp553
aaa(lp554
(lp555
(I4080
I1673
tp556
a(I4100
I1673
tp557
a(I4100
I1680
tp558
a(I4080
I1680
tp559
aa(lp560
(I4093
I1673
tp561
a(I4320
I1673
tp562
a(I4320
I1980
tp563
a(I4093
I1980
tp564
aa(lp565
(I3160
I2093
tp566
a(I3380
I2093
tp567
a(I3380
I2293
tp568
a(I3160
I2293
tp569
aaa(lp570
(lp571
(I20
I2460
tp572
a(I500
I2460
tp573
a(I500
I3067
tp574
a(I20
I3067
tp575
aaasS'DSC08241.JPG'
p576
(lp577
(lp578
a(lp579
(lp580
(I1993
I2987
tp581
a(I2600
I2987
tp582
a(I2600
I3380
tp583
a(I1993
I3380
tp584
aaa(lp585
asS'DSC08078.JPG'
p586
(lp587
(lp588
(lp589
(I1840
I3413
tp590
a(I2507
I3413
tp591
a(I2507
I3940
tp592
a(I1840
I3940
tp593
aa(lp594
(I2547
I1900
tp595
a(I4253
I1900
tp596
a(I4253
I2853
tp597
a(I2547
I2853
tp598
aa(lp599
(I3347
I2987
tp600
a(I3720
I2987
tp601
a(I3720
I3307
tp602
a(I3347
I3307
tp603
aa(lp604
(I5133
I1280
tp605
a(I5480
I1280
tp606
a(I5480
I1920
tp607
a(I5133
I1920
tp608
aaa(lp609
(lp610
(I2587
I1973
tp611
a(I4047
I1973
tp612
a(I4047
I3227
tp613
a(I2587
I3227
tp614
aa(lp615
(I1820
I3460
tp616
a(I2507
I3460
tp617
a(I2507
I3987
tp618
a(I1820
I3987
tp619
aaa(lp620
(lp621
(I2620
I1967
tp622
a(I4060
I1967
tp623
a(I4060
I3107
tp624
a(I2620
I3107
tp625
aa(lp626
(I1840
I3433
tp627
a(I2520
I3433
tp628
a(I2520
I3947
tp629
a(I1840
I3947
tp630
aaasS'DSC08082.JPG'
p631
(lp632
(lp633
(lp634
(I1707
I2033
tp635
a(I1720
I2033
tp636
a(I1720
I2040
tp637
a(I1707
I2040
tp638
aa(lp639
(I1700
I1987
tp640
a(I2107
I1987
tp641
a(I2107
I2233
tp642
a(I1700
I2233
tp643
aaa(lp644
a(lp645
(lp646
(I27
I20
tp647
a(I5973
I20
tp648
a(I5973
I3967
tp649
a(I27
I3967
tp650
aaasS'DSC08041.JPG'
p651
(lp652
(lp653
(lp654
(I4673
I7
tp655
a(I5987
I7
tp656
a(I5987
I1233
tp657
a(I4673
I1233
tp658
aaa(lp659
a(lp660
asS'DSC08093.JPG'
p661
(lp662
(lp663
(lp664
(I3380
I3173
tp665
a(I3393
I3173
tp666
a(I3393
I3193
tp667
a(I3380
I3193
tp668
aaa(lp669
a(lp670
(lp671
(I3007
I2780
tp672
a(I3320
I2780
tp673
a(I3320
I3147
tp674
a(I3007
I3147
tp675
aaasS'DSC07961.JPG'
p676
(lp677
(lp678
(lp679
(I153
I13
tp680
a(I1993
I13
tp681
a(I1993
I1480
tp682
a(I153
I1480
tp683
aa(lp684
(I2240
I927
tp685
a(I4467
I927
tp686
a(I4467
I3200
tp687
a(I2240
I3200
tp688
aa(lp689
(I4573
I1747
tp690
a(I5967
I1747
tp691
a(I5967
I3967
tp692
a(I4573
I3967
tp693
aa(lp694
(I13
I1567
tp695
a(I2100
I1567
tp696
a(I2100
I3500
tp697
a(I13
I3500
tp698
aaa(lp699
(lp700
(I340
I27
tp701
a(I1940
I27
tp702
a(I1940
I1273
tp703
a(I340
I1273
tp704
aa(lp705
(I2547
I1127
tp706
a(I4213
I1127
tp707
a(I4213
I3140
tp708
a(I2547
I3140
tp709
aa(lp710
(I4493
I660
tp711
a(I4513
I660
tp712
a(I4513
I667
tp713
a(I4493
I667
tp714
aa(lp715
(I4513
I667
tp716
a(I4700
I667
tp717
a(I4700
I853
tp718
a(I4513
I853
tp719
aa(lp720
(I4687
I1867
tp721
a(I5267
I1867
tp722
a(I5267
I3260
tp723
a(I4687
I3260
tp724
aa(lp725
(I3893
I3680
tp726
a(I5207
I3680
tp727
a(I5207
I3960
tp728
a(I3893
I3960
tp729
aa(lp730
(I720
I1453
tp731
a(I2300
I1453
tp732
a(I2300
I3347
tp733
a(I720
I3347
tp734
aa(lp735
(I33
I1527
tp736
a(I727
I1527
tp737
a(I727
I3440
tp738
a(I33
I3440
tp739
aaa(lp740
(lp741
(I13
I13
tp742
a(I2513
I13
tp743
a(I2513
I1813
tp744
a(I13
I1813
tp745
aa(lp746
(I13
I1120
tp747
a(I2733
I1120
tp748
a(I2733
I3980
tp749
a(I13
I3980
tp750
aa(lp751
(I2047
I793
tp752
a(I4787
I793
tp753
a(I4787
I3400
tp754
a(I2047
I3400
tp755
aa(lp756
(I4467
I1553
tp757
a(I5980
I1553
tp758
a(I5980
I3233
tp759
a(I4467
I3233
tp760
aa(lp761
(I4880
I2407
tp762
a(I5960
I2407
tp763
a(I5960
I3980
tp764
a(I4880
I3980
tp765
aa(lp766
(I3480
I3573
tp767
a(I5013
I3573
tp768
a(I5013
I3973
tp769
a(I3480
I3973
tp770
aaasS'DSC07980.JPG'
p771
(lp772
(lp773
(lp774
(I2207
I207
tp775
a(I3367
I207
tp776
a(I3367
I993
tp777
a(I2207
I993
tp778
aa(lp779
(I3853
I460
tp780
a(I4313
I460
tp781
a(I4313
I793
tp782
a(I3853
I793
tp783
aa(lp784
(I3213
I1260
tp785
a(I4253
I1260
tp786
a(I4253
I1993
tp787
a(I3213
I1993
tp788
aaa(lp789
(lp790
(I2260
I140
tp791
a(I3253
I140
tp792
a(I3253
I667
tp793
a(I2260
I667
tp794
aa(lp795
(I3860
I373
tp796
a(I4267
I373
tp797
a(I4267
I793
tp798
a(I3860
I793
tp799
aa(lp800
(I2447
I347
tp801
a(I3120
I347
tp802
a(I3120
I1033
tp803
a(I2447
I1033
tp804
aa(lp805
(I3240
I1300
tp806
a(I3553
I1300
tp807
a(I3553
I1507
tp808
a(I3240
I1507
tp809
aa(lp810
(I3413
I1273
tp811
a(I4127
I1273
tp812
a(I4127
I1940
tp813
a(I3413
I1940
tp814
aaa(lp815
(lp816
(I2293
I180
tp817
a(I3033
I180
tp818
a(I3033
I967
tp819
a(I2293
I967
tp820
aa(lp821
(I3393
I1367
tp822
a(I4107
I1367
tp823
a(I4107
I1920
tp824
a(I3393
I1920
tp825
aa(lp826
(I3900
I387
tp827
a(I4267
I387
tp828
a(I4267
I793
tp829
a(I3900
I793
tp830
aaasS'DSC08018.JPG'
p831
(lp832
(lp833
(lp834
(I5580
I7
tp835
a(I5980
I7
tp836
a(I5980
I420
tp837
a(I5580
I420
tp838
aa(lp839
(I3173
I1673
tp840
a(I4267
I1673
tp841
a(I4267
I2720
tp842
a(I3173
I2720
tp843
aa(lp844
(I107
I1773
tp845
a(I1167
I1773
tp846
a(I1167
I2533
tp847
a(I107
I2533
tp848
aaa(lp849
(lp850
(I3253
I1847
tp851
a(I4200
I1847
tp852
a(I4200
I2720
tp853
a(I3253
I2720
tp854
aa(lp855
(I127
I1653
tp856
a(I1013
I1653
tp857
a(I1013
I2507
tp858
a(I127
I2507
tp859
aaa(lp860
(lp861
(I100
I1740
tp862
a(I1113
I1740
tp863
a(I1113
I2487
tp864
a(I100
I2487
tp865
aa(lp866
(I3273
I1833
tp867
a(I4280
I1833
tp868
a(I4280
I2687
tp869
a(I3273
I2687
tp870
aaasS'DSC07813.JPG'
p871
(lp872
(lp873
(lp874
(I0
I2180
tp875
a(I913
I2180
tp876
a(I913
I3207
tp877
a(I0
I3207
tp878
aa(lp879
(I2393
I47
tp880
a(I3400
I47
tp881
a(I3400
I860
tp882
a(I2393
I860
tp883
aaa(lp884
(lp885
(I2487
I20
tp886
a(I3340
I20
tp887
a(I3340
I847
tp888
a(I2487
I847
tp889
aa(lp890
(I20
I2180
tp891
a(I927
I2180
tp892
a(I927
I3213
tp893
a(I20
I3213
tp894
aa(lp895
(I4313
I2607
tp896
a(I4500
I2607
tp897
a(I4500
I2887
tp898
a(I4313
I2887
tp899
aa(lp900
(I3873
I2880
tp901
a(I4093
I2880
tp902
a(I4093
I3073
tp903
a(I3873
I3073
tp904
aaa(lp905
(lp906
(I333
I7
tp907
a(I1453
I7
tp908
a(I1453
I233
tp909
a(I333
I233
tp910
aa(lp911
(I2133
I-7
tp912
a(I3460
I-7
tp913
a(I3460
I920
tp914
a(I2133
I920
tp915
aa(lp916
(I3487
I247
tp917
a(I3947
I247
tp918
a(I3947
I573
tp919
a(I3487
I573
tp920
aa(lp921
(I4227
I2500
tp922
a(I4640
I2500
tp923
a(I4640
I2927
tp924
a(I4227
I2927
tp925
aa(lp926
(I3833
I2720
tp927
a(I4113
I2720
tp928
a(I4113
I3053
tp929
a(I3833
I3053
tp930
aa(lp931
(I0
I1993
tp932
a(I1247
I1993
tp933
a(I1247
I3307
tp934
a(I0
I3307
tp935
aaasS'DSC08066.JPG'
p936
(lp937
(lp938
(lp939
(I4027
I1687
tp940
a(I5040
I1687
tp941
a(I5040
I2467
tp942
a(I4027
I2467
tp943
aa(lp944
(I1047
I2113
tp945
a(I1680
I2113
tp946
a(I1680
I2673
tp947
a(I1047
I2673
tp948
aa(lp949
(I187
I1900
tp950
a(I527
I1900
tp951
a(I527
I2260
tp952
a(I187
I2260
tp953
aa(lp954
(I1693
I2820
tp955
a(I3887
I2820
tp956
a(I3887
I3933
tp957
a(I1693
I3933
tp958
aaa(lp959
(lp960
(I200
I1980
tp961
a(I513
I1980
tp962
a(I513
I2227
tp963
a(I200
I2227
tp964
aa(lp965
(I1093
I2187
tp966
a(I1633
I2187
tp967
a(I1633
I2500
tp968
a(I1093
I2500
tp969
aa(lp970
(I3987
I1907
tp971
a(I4453
I1907
tp972
a(I4453
I2253
tp973
a(I3987
I2253
tp974
aa(lp975
(I4420
I1627
tp976
a(I5033
I1627
tp977
a(I5033
I2333
tp978
a(I4420
I2333
tp979
aa(lp980
(I2633
I3167
tp981
a(I2953
I3167
tp982
a(I2953
I3480
tp983
a(I2633
I3480
tp984
aa(lp985
(I3080
I3100
tp986
a(I3653
I3100
tp987
a(I3653
I3580
tp988
a(I3080
I3580
tp989
aa(lp990
(I3200
I3473
tp991
a(I3893
I3473
tp992
a(I3893
I3960
tp993
a(I3200
I3960
tp994
aa(lp995
(I1773
I3040
tp996
a(I2187
I3040
tp997
a(I2187
I3280
tp998
a(I1773
I3280
tp999
aaa(lp1000
(lp1001
(I1147
I2173
tp1002
a(I1553
I2173
tp1003
a(I1553
I2473
tp1004
a(I1147
I2473
tp1005
aa(lp1006
(I313
I2000
tp1007
a(I493
I2000
tp1008
a(I493
I2200
tp1009
a(I313
I2200
tp1010
aa(lp1011
(I4120
I1987
tp1012
a(I4147
I1987
tp1013
a(I4147
I2000
tp1014
a(I4120
I2000
tp1015
aa(lp1016
(I4140
I1987
tp1017
a(I4413
I1987
tp1018
a(I4413
I2280
tp1019
a(I4140
I2280
tp1020
aa(lp1021
(I4493
I1780
tp1022
a(I4507
I1780
tp1023
a(I4507
I1780
tp1024
a(I4493
I1780
tp1025
aa(lp1026
(I4513
I1780
tp1027
a(I4860
I1780
tp1028
a(I4860
I2207
tp1029
a(I4513
I2207
tp1030
aa(lp1031
(I2680
I3220
tp1032
a(I2747
I3220
tp1033
a(I2747
I3233
tp1034
a(I2680
I3233
tp1035
aa(lp1036
(I2680
I3227
tp1037
a(I2913
I3227
tp1038
a(I2913
I3400
tp1039
a(I2680
I3400
tp1040
aa(lp1041
(I3060
I3327
tp1042
a(I3393
I3327
tp1043
a(I3393
I3587
tp1044
a(I3060
I3587
tp1045
aa(lp1046
(I3467
I3560
tp1047
a(I3727
I3560
tp1048
a(I3727
I3873
tp1049
a(I3467
I3873
tp1050
aa(lp1051
(I1800
I3027
tp1052
a(I2020
I3027
tp1053
a(I2020
I3227
tp1054
a(I1800
I3227
tp1055
aaasS'DSC08042.JPG'
p1056
(lp1057
(lp1058
(lp1059
(I847
I87
tp1060
a(I1873
I87
tp1061
a(I1873
I1260
tp1062
a(I847
I1260
tp1063
aa(lp1064
(I973
I2000
tp1065
a(I1833
I2000
tp1066
a(I1833
I3080
tp1067
a(I973
I3080
tp1068
aa(lp1069
(I4493
I367
tp1070
a(I4860
I367
tp1071
a(I4860
I813
tp1072
a(I4493
I813
tp1073
aa(lp1074
(I4800
I2000
tp1075
a(I5120
I2000
tp1076
a(I5120
I2500
tp1077
a(I4800
I2500
tp1078
aa(lp1079
(I4020
I3420
tp1080
a(I5093
I3420
tp1081
a(I5093
I3993
tp1082
a(I4020
I3993
tp1083
aaa(lp1084
(lp1085
(I627
I0
tp1086
a(I1913
I0
tp1087
a(I1913
I1380
tp1088
a(I627
I1380
tp1089
aa(lp1090
(I467
I2053
tp1091
a(I1973
I2053
tp1092
a(I1973
I3153
tp1093
a(I467
I3153
tp1094
aa(lp1095
(I3760
I3260
tp1096
a(I5800
I3260
tp1097
a(I5800
I3987
tp1098
a(I3760
I3987
tp1099
aa(lp1100
(I4440
I1700
tp1101
a(I5880
I1700
tp1102
a(I5880
I2747
tp1103
a(I4440
I2747
tp1104
aa(lp1105
(I5520
I800
tp1106
a(I5967
I800
tp1107
a(I5967
I1640
tp1108
a(I5520
I1640
tp1109
aa(lp1110
(I4440
I340
tp1111
a(I4920
I340
tp1112
a(I4920
I900
tp1113
a(I4440
I900
tp1114
aaa(lp1115
(lp1116
(I713
I7
tp1117
a(I1980
I7
tp1118
a(I1980
I1287
tp1119
a(I713
I1287
tp1120
aa(lp1121
(I4433
I353
tp1122
a(I4953
I353
tp1123
a(I4953
I807
tp1124
a(I4433
I807
tp1125
aa(lp1126
(I5533
I987
tp1127
a(I5993
I987
tp1128
a(I5993
I1700
tp1129
a(I5533
I1700
tp1130
aa(lp1131
(I4707
I2020
tp1132
a(I5240
I2020
tp1133
a(I5240
I2453
tp1134
a(I4707
I2453
tp1135
aa(lp1136
(I5467
I2267
tp1137
a(I5827
I2267
tp1138
a(I5827
I2587
tp1139
a(I5467
I2587
tp1140
aa(lp1141
(I3880
I3273
tp1142
a(I5827
I3273
tp1143
a(I5827
I3973
tp1144
a(I3880
I3973
tp1145
aa(lp1146
(I980
I1867
tp1147
a(I1933
I1867
tp1148
a(I1933
I3093
tp1149
a(I980
I3093
tp1150
aaasS'DSC08242.JPG'
p1151
(lp1152
(lp1153
(lp1154
(I4187
I407
tp1155
a(I4947
I407
tp1156
a(I4947
I1260
tp1157
a(I4187
I1260
tp1158
aaa(lp1159
(lp1160
(I4167
I400
tp1161
a(I5013
I400
tp1162
a(I5013
I1293
tp1163
a(I4167
I1293
tp1164
aaa(lp1165
asS'DSC08019.JPG'
p1166
(lp1167
(lp1168
a(lp1169
a(lp1170
asS'DSC08014.JPG'
p1171
(lp1172
(lp1173
(lp1174
(I233
I7
tp1175
a(I1867
I7
tp1176
a(I1867
I660
tp1177
a(I233
I660
tp1178
aa(lp1179
(I1747
I2347
tp1180
a(I2127
I2347
tp1181
a(I2127
I2667
tp1182
a(I1747
I2667
tp1183
aa(lp1184
(I2447
I1507
tp1185
a(I2753
I1507
tp1186
a(I2753
I1767
tp1187
a(I2447
I1767
tp1188
aaa(lp1189
(lp1190
(I740
I13
tp1191
a(I1660
I13
tp1192
a(I1660
I473
tp1193
a(I740
I473
tp1194
aa(lp1195
(I1827
I2453
tp1196
a(I1987
I2453
tp1197
a(I1987
I2587
tp1198
a(I1827
I2587
tp1199
aaa(lp1200
(lp1201
(I460
I-7
tp1202
a(I1880
I-7
tp1203
a(I1880
I680
tp1204
a(I460
I680
tp1205
aa(lp1206
(I2453
I1500
tp1207
a(I2767
I1500
tp1208
a(I2767
I1753
tp1209
a(I2453
I1753
tp1210
aa(lp1211
(I1720
I2347
tp1212
a(I2113
I2347
tp1213
a(I2113
I2727
tp1214
a(I1720
I2727
tp1215
aaasS'DSC07981.JPG'
p1216
(lp1217
(lp1218
(lp1219
(I-7
I-7
tp1220
a(I960
I-7
tp1221
a(I960
I887
tp1222
a(I-7
I887
tp1223
aaa(lp1224
(lp1225
(I0
I0
tp1226
a(I747
I0
tp1227
a(I747
I953
tp1228
a(I0
I953
tp1229
aaa(lp1230
(lp1231
(I27
I7
tp1232
a(I487
I7
tp1233
a(I487
I740
tp1234
a(I27
I740
tp1235
aaasS'DSC07911.JPG'
p1236
(lp1237
(lp1238
(lp1239
(I4927
I640
tp1240
a(I5853
I640
tp1241
a(I5853
I1700
tp1242
a(I4927
I1700
tp1243
aaa(lp1244
(lp1245
(I4513
I727
tp1246
a(I5980
I727
tp1247
a(I5980
I1787
tp1248
a(I4513
I1787
tp1249
aaa(lp1250
(lp1251
(I4880
I800
tp1252
a(I4880
I800
tp1253
a(I4880
I800
tp1254
a(I4880
I800
tp1255
aa(lp1256
(I4613
I733
tp1257
a(I5980
I733
tp1258
a(I5980
I1807
tp1259
a(I4613
I1807
tp1260
aaasS'DSC07977.JPG'
p1261
(lp1262
(lp1263
(lp1264
(I1600
I1920
tp1265
a(I2553
I1920
tp1266
a(I2553
I2887
tp1267
a(I1600
I2887
tp1268
aa(lp1269
(I3113
I2160
tp1270
a(I3407
I2160
tp1271
a(I3407
I2400
tp1272
a(I3113
I2400
tp1273
aa(lp1274
(I2660
I3407
tp1275
a(I3387
I3407
tp1276
a(I3387
I3933
tp1277
a(I2660
I3933
tp1278
aaa(lp1279
a(lp1280
asS'DSC08070.JPG'
p1281
(lp1282
(lp1283
(lp1284
(I2440
I1353
tp1285
a(I2733
I1353
tp1286
a(I2733
I1580
tp1287
a(I2440
I1580
tp1288
aa(lp1289
(I2467
I1620
tp1290
a(I2780
I1620
tp1291
a(I2780
I1767
tp1292
a(I2467
I1767
tp1293
aa(lp1294
(I2627
I1933
tp1295
a(I2873
I1933
tp1296
a(I2873
I2133
tp1297
a(I2627
I2133
tp1298
aa(lp1299
(I653
I2133
tp1300
a(I1047
I2133
tp1301
a(I1047
I2453
tp1302
a(I653
I2453
tp1303
aa(lp1304
(I20
I2613
tp1305
a(I673
I2613
tp1306
a(I673
I3280
tp1307
a(I20
I3280
tp1308
aa(lp1309
(I4400
I440
tp1310
a(I5247
I440
tp1311
a(I5247
I2033
tp1312
a(I4400
I2033
tp1313
aaa(lp1314
(lp1315
(I3927
I220
tp1316
a(I5973
I220
tp1317
a(I5973
I2420
tp1318
a(I3927
I2420
tp1319
aa(lp1320
(I2453
I1793
tp1321
a(I3093
I1793
tp1322
a(I3093
I2307
tp1323
a(I2453
I2307
tp1324
aa(lp1325
(I2040
I1127
tp1326
a(I2993
I1127
tp1327
a(I2993
I1873
tp1328
a(I2040
I1873
tp1329
aa(lp1330
(I513
I1993
tp1331
a(I1233
I1993
tp1332
a(I1233
I2600
tp1333
a(I513
I2600
tp1334
aa(lp1335
(I13
I2200
tp1336
a(I1333
I2200
tp1337
a(I1333
I3453
tp1338
a(I13
I3453
tp1339
aaa(lp1340
(lp1341
(I2227
I1193
tp1342
a(I3033
I1193
tp1343
a(I3033
I2253
tp1344
a(I2227
I2253
tp1345
aa(lp1346
(I4160
I313
tp1347
a(I5973
I313
tp1348
a(I5973
I2287
tp1349
a(I4160
I2287
tp1350
aa(lp1351
(I20
I2000
tp1352
a(I1400
I2000
tp1353
a(I1400
I3400
tp1354
a(I20
I3400
tp1355
aaasS'DSC08234.JPG'
p1356
(lp1357
(lp1358
a(lp1359
(lp1360
(I5253
I373
tp1361
a(I5960
I373
tp1362
a(I5960
I2253
tp1363
a(I5253
I2253
tp1364
aaa(lp1365
(lp1366
(I5613
I673
tp1367
a(I5613
I673
tp1368
a(I5613
I673
tp1369
a(I5613
I673
tp1370
aa(lp1371
(I5613
I667
tp1372
a(I5967
I667
tp1373
a(I5967
I2173
tp1374
a(I5613
I2173
tp1375
aaasS'DSC08031.JPG'
p1376
(lp1377
(lp1378
(lp1379
(I1513
I1180
tp1380
a(I1833
I1180
tp1381
a(I1833
I1573
tp1382
a(I1513
I1573
tp1383
aaa(lp1384
(lp1385
(I1567
I1287
tp1386
a(I1580
I1287
tp1387
a(I1580
I1287
tp1388
a(I1567
I1287
tp1389
aa(lp1390
(I1587
I1287
tp1391
a(I1793
I1287
tp1392
a(I1793
I1473
tp1393
a(I1587
I1473
tp1394
aaa(lp1395
(lp1396
(I1507
I1173
tp1397
a(I1840
I1173
tp1398
a(I1840
I1473
tp1399
a(I1507
I1473
tp1400
aaasS'DSC08131.JPG'
p1401
(lp1402
(lp1403
(lp1404
(I1280
I13
tp1405
a(I1813
I13
tp1406
a(I1813
I547
tp1407
a(I1280
I547
tp1408
aa(lp1409
(I2687
I593
tp1410
a(I2980
I593
tp1411
a(I2980
I940
tp1412
a(I2687
I940
tp1413
aa(lp1414
(I5093
I260
tp1415
a(I5893
I260
tp1416
a(I5893
I1167
tp1417
a(I5093
I1167
tp1418
aa(lp1419
(I3427
I3447
tp1420
a(I3960
I3447
tp1421
a(I3960
I3840
tp1422
a(I3427
I3840
tp1423
aa(lp1424
(I13
I1700
tp1425
a(I733
I1700
tp1426
a(I733
I2347
tp1427
a(I13
I2347
tp1428
aaa(lp1429
(lp1430
(I5153
I387
tp1431
a(I5833
I387
tp1432
a(I5833
I1120
tp1433
a(I5153
I1120
tp1434
aa(lp1435
(I3527
I-7
tp1436
a(I4247
I-7
tp1437
a(I4247
I453
tp1438
a(I3527
I453
tp1439
aa(lp1440
(I1167
I33
tp1441
a(I1827
I33
tp1442
a(I1827
I527
tp1443
a(I1167
I527
tp1444
aa(lp1445
(I13
I1733
tp1446
a(I433
I1733
tp1447
a(I433
I2400
tp1448
a(I13
I2400
tp1449
aa(lp1450
(I3533
I3453
tp1451
a(I3987
I3453
tp1452
a(I3987
I3833
tp1453
a(I3533
I3833
tp1454
aaa(lp1455
(lp1456
(I1407
I7
tp1457
a(I1813
I7
tp1458
a(I1813
I467
tp1459
a(I1407
I467
tp1460
aa(lp1461
(I13
I1780
tp1462
a(I473
I1780
tp1463
a(I473
I2307
tp1464
a(I13
I2307
tp1465
aa(lp1466
(I3607
I3473
tp1467
a(I3907
I3473
tp1468
a(I3907
I3767
tp1469
a(I3607
I3767
tp1470
aaasS'DSC08026.JPG'
p1471
(lp1472
(lp1473
(lp1474
(I1447
I13
tp1475
a(I3033
I13
tp1476
a(I3033
I313
tp1477
a(I1447
I313
tp1478
aaa(lp1479
(lp1480
(I1260
I0
tp1481
a(I3200
I0
tp1482
a(I3200
I540
tp1483
a(I1260
I540
tp1484
aaa(lp1485
(lp1486
(I5773
I1900
tp1487
a(I5973
I1900
tp1488
a(I5973
I2287
tp1489
a(I5773
I2287
tp1490
aa(lp1491
(I980
I7
tp1492
a(I3293
I7
tp1493
a(I3293
I713
tp1494
a(I980
I713
tp1495
aaasS'DSC07811.JPG'
p1496
(lp1497
(lp1498
(lp1499
(I527
I1667
tp1500
a(I1960
I1667
tp1501
a(I1960
I2867
tp1502
a(I527
I2867
tp1503
aa(lp1504
(I2280
I1553
tp1505
a(I4100
I1553
tp1506
a(I4100
I3253
tp1507
a(I2280
I3253
tp1508
aa(lp1509
(I4447
I3060
tp1510
a(I4987
I3060
tp1511
a(I4987
I3633
tp1512
a(I4447
I3633
tp1513
aa(lp1514
(I4993
I1340
tp1515
a(I5360
I1340
tp1516
a(I5360
I1793
tp1517
a(I4993
I1793
tp1518
aa(lp1519
(I5187
I847
tp1520
a(I5513
I847
tp1521
a(I5513
I1260
tp1522
a(I5187
I1260
tp1523
aa(lp1524
(I13
I0
tp1525
a(I367
I0
tp1526
a(I367
I207
tp1527
a(I13
I207
tp1528
aaa(lp1529
(lp1530
(I953
I1907
tp1531
a(I1727
I1907
tp1532
a(I1727
I2733
tp1533
a(I953
I2733
tp1534
aa(lp1535
(I2647
I1787
tp1536
a(I3907
I1787
tp1537
a(I3907
I2867
tp1538
a(I2647
I2867
tp1539
aaa(lp1540
(lp1541
(I767
I1707
tp1542
a(I1867
I1707
tp1543
a(I1867
I2940
tp1544
a(I767
I2940
tp1545
aa(lp1546
(I2447
I1620
tp1547
a(I4087
I1620
tp1548
a(I4087
I3200
tp1549
a(I2447
I3200
tp1550
aa(lp1551
(I4507
I3080
tp1552
a(I4967
I3080
tp1553
a(I4967
I3633
tp1554
a(I4507
I3633
tp1555
aa(lp1556
(I4993
I887
tp1557
a(I5620
I887
tp1558
a(I5620
I1807
tp1559
a(I4993
I1807
tp1560
aaasS'DSC08125.JPG'
p1561
(lp1562
(lp1563
a(lp1564
a(lp1565
asS'DSC07978.JPG'
p1566
(lp1567
(lp1568
a(lp1569
a(lp1570
asS'DSC08010.JPG'
p1571
(lp1572
(lp1573
a(lp1574
a(lp1575
asS'DSC07916.JPG'
p1576
(lp1577
(lp1578
(lp1579
(I5087
I3113
tp1580
a(I5727
I3113
tp1581
a(I5727
I3900
tp1582
a(I5087
I3900
tp1583
aaa(lp1584
(lp1585
(I1547
I2067
tp1586
a(I1927
I2067
tp1587
a(I1927
I2460
tp1588
a(I1547
I2460
tp1589
aaa(lp1590
(lp1591
(I1593
I2113
tp1592
a(I1953
I2113
tp1593
a(I1953
I2400
tp1594
a(I1593
I2400
tp1595
aaasS'DSC07807.JPG'
p1596
(lp1597
(lp1598
(lp1599
(I0
I13
tp1600
a(I840
I13
tp1601
a(I840
I727
tp1602
a(I0
I727
tp1603
aa(lp1604
(I3700
I1913
tp1605
a(I4787
I1913
tp1606
a(I4787
I2953
tp1607
a(I3700
I2953
tp1608
aa(lp1609
(I3047
I3133
tp1610
a(I3787
I3133
tp1611
a(I3787
I3687
tp1612
a(I3047
I3687
tp1613
aa(lp1614
(I7
I3340
tp1615
a(I627
I3340
tp1616
a(I627
I3993
tp1617
a(I7
I3993
tp1618
aaa(lp1619
(lp1620
(I40
I27
tp1621
a(I833
I27
tp1622
a(I833
I680
tp1623
a(I40
I680
tp1624
aa(lp1625
(I20
I3400
tp1626
a(I607
I3400
tp1627
a(I607
I3987
tp1628
a(I20
I3987
tp1629
aa(lp1630
(I20
I3960
tp1631
a(I20
I3960
tp1632
a(I20
I3987
tp1633
a(I20
I3987
tp1634
aa(lp1635
(I2513
I1433
tp1636
a(I2867
I1433
tp1637
a(I2867
I2413
tp1638
a(I2513
I2413
tp1639
aa(lp1640
(I3100
I3220
tp1641
a(I3773
I3220
tp1642
a(I3773
I3753
tp1643
a(I3100
I3753
tp1644
aa(lp1645
(I3567
I2327
tp1646
a(I4633
I2327
tp1647
a(I4633
I2960
tp1648
a(I3567
I2960
tp1649
aaa(lp1650
(lp1651
(I53
I40
tp1652
a(I693
I40
tp1653
a(I693
I567
tp1654
a(I53
I567
tp1655
aa(lp1656
(I2553
I1680
tp1657
a(I2860
I1680
tp1658
a(I2860
I2333
tp1659
a(I2553
I2333
tp1660
aa(lp1661
(I3840
I2107
tp1662
a(I4813
I2107
tp1663
a(I4813
I2793
tp1664
a(I3840
I2793
tp1665
aa(lp1666
(I3233
I3173
tp1667
a(I3660
I3173
tp1668
a(I3660
I3533
tp1669
a(I3233
I3533
tp1670
aa(lp1671
(I27
I3493
tp1672
a(I260
I3493
tp1673
a(I260
I3920
tp1674
a(I27
I3920
tp1675
aaasS'DSC08092.JPG'
p1676
(lp1677
(lp1678
a(lp1679
a(lp1680
asS'DSC07908.JPG'
p1681
(lp1682
(lp1683
a(lp1684
(lp1685
(I4413
I153
tp1686
a(I5973
I153
tp1687
a(I5973
I2253
tp1688
a(I4413
I2253
tp1689
aa(lp1690
(I7
I13
tp1691
a(I4780
I13
tp1692
a(I4780
I2380
tp1693
a(I7
I2380
tp1694
aa(lp1695
(I27
I1507
tp1696
a(I5627
I1507
tp1697
a(I5627
I3967
tp1698
a(I27
I3967
tp1699
aa(lp1700
(I1233
I33
tp1701
a(I2213
I33
tp1702
a(I2213
I440
tp1703
a(I1233
I440
tp1704
aaa(lp1705
asS'DSC08032.JPG'
p1706
(lp1707
(lp1708
(lp1709
(I1033
I813
tp1710
a(I1387
I813
tp1711
a(I1387
I1140
tp1712
a(I1033
I1140
tp1713
aa(lp1714
(I1440
I473
tp1715
a(I1893
I473
tp1716
a(I1893
I873
tp1717
a(I1440
I873
tp1718
aa(lp1719
(I1793
I367
tp1720
a(I2080
I367
tp1721
a(I2080
I647
tp1722
a(I1793
I647
tp1723
aa(lp1724
(I327
I1660
tp1725
a(I1260
I1660
tp1726
a(I1260
I2547
tp1727
a(I327
I2547
tp1728
aa(lp1729
(I233
I2420
tp1730
a(I720
I2420
tp1731
a(I720
I2947
tp1732
a(I233
I2947
tp1733
aa(lp1734
(I2927
I2640
tp1735
a(I3613
I2640
tp1736
a(I3613
I3200
tp1737
a(I2927
I3200
tp1738
aa(lp1739
(I4013
I1947
tp1740
a(I4360
I1947
tp1741
a(I4360
I2207
tp1742
a(I4013
I2207
tp1743
aa(lp1744
(I3973
I3573
tp1745
a(I4447
I3573
tp1746
a(I4447
I3953
tp1747
a(I3973
I3953
tp1748
aaa(lp1749
(lp1750
(I3100
I2640
tp1751
a(I3507
I2640
tp1752
a(I3507
I3180
tp1753
a(I3100
I3180
tp1754
aa(lp1755
(I713
I1660
tp1756
a(I1207
I1660
tp1757
a(I1207
I2460
tp1758
a(I713
I2460
tp1759
aa(lp1760
(I293
I2433
tp1761
a(I727
I2433
tp1762
a(I727
I2907
tp1763
a(I293
I2907
tp1764
aa(lp1765
(I4053
I1953
tp1766
a(I4327
I1953
tp1767
a(I4327
I2233
tp1768
a(I4053
I2233
tp1769
aa(lp1770
(I4067
I3667
tp1771
a(I4293
I3667
tp1772
a(I4293
I3920
tp1773
a(I4067
I3920
tp1774
aaa(lp1775
(lp1776
(I400
I1700
tp1777
a(I1233
I1700
tp1778
a(I1233
I2527
tp1779
a(I400
I2527
tp1780
aa(lp1781
(I300
I2553
tp1782
a(I747
I2553
tp1783
a(I747
I2927
tp1784
a(I300
I2927
tp1785
aa(lp1786
(I2993
I2647
tp1787
a(I3487
I2647
tp1788
a(I3487
I3193
tp1789
a(I2993
I3193
tp1790
aa(lp1791
(I4007
I3660
tp1792
a(I4393
I3660
tp1793
a(I4393
I3953
tp1794
a(I4007
I3953
tp1795
aaasS'DSC08027.JPG'
p1796
(lp1797
(lp1798
(lp1799
(I0
I1900
tp1800
a(I1727
I1900
tp1801
a(I1727
I3440
tp1802
a(I0
I3440
tp1803
aa(lp1804
(I2040
I2113
tp1805
a(I2727
I2113
tp1806
a(I2727
I3240
tp1807
a(I2040
I3240
tp1808
aa(lp1809
(I640
I3453
tp1810
a(I2753
I3453
tp1811
a(I2753
I3980
tp1812
a(I640
I3980
tp1813
aa(lp1814
(I4127
I-7
tp1815
a(I4480
I-7
tp1816
a(I4480
I333
tp1817
a(I4127
I333
tp1818
aaa(lp1819
(lp1820
(I4040
I0
tp1821
a(I4527
I0
tp1822
a(I4527
I373
tp1823
a(I4040
I373
tp1824
aa(lp1825
(I4800
I353
tp1826
a(I5220
I353
tp1827
a(I5220
I707
tp1828
a(I4800
I707
tp1829
aa(lp1830
(I5633
I0
tp1831
a(I5973
I0
tp1832
a(I5973
I580
tp1833
a(I5633
I580
tp1834
aa(lp1835
(I-7
I1780
tp1836
a(I2067
I1780
tp1837
a(I2067
I3553
tp1838
a(I-7
I3553
tp1839
aa(lp1840
(I1820
I2100
tp1841
a(I3000
I2100
tp1842
a(I3000
I3153
tp1843
a(I1820
I3153
tp1844
aa(lp1845
(I3793
I1840
tp1846
a(I4193
I1840
tp1847
a(I4193
I2053
tp1848
a(I3793
I2053
tp1849
aa(lp1850
(I3893
I2600
tp1851
a(I4507
I2600
tp1852
a(I4507
I3153
tp1853
a(I3893
I3153
tp1854
aa(lp1855
(I500
I3107
tp1856
a(I3213
I3107
tp1857
a(I3213
I3993
tp1858
a(I500
I3993
tp1859
aaa(lp1860
(lp1861
(I3940
I2653
tp1862
a(I4440
I2653
tp1863
a(I4440
I3133
tp1864
a(I3940
I3133
tp1865
aa(lp1866
(I2020
I2247
tp1867
a(I2820
I2247
tp1868
a(I2820
I3060
tp1869
a(I2020
I3060
tp1870
aa(lp1871
(I20
I1827
tp1872
a(I1913
I1827
tp1873
a(I1913
I3393
tp1874
a(I20
I3393
tp1875
aa(lp1876
(I693
I3320
tp1877
a(I2813
I3320
tp1878
a(I2813
I3967
tp1879
a(I693
I3967
tp1880
aaasS'DSC08034.JPG'
p1881
(lp1882
(lp1883
(lp1884
(I4420
I1780
tp1885
a(I4813
I1780
tp1886
a(I4813
I2373
tp1887
a(I4420
I2373
tp1888
aaa(lp1889
(lp1890
(I4227
I1607
tp1891
a(I5200
I1607
tp1892
a(I5200
I2453
tp1893
a(I4227
I2453
tp1894
aa(lp1895
(I5153
I720
tp1896
a(I5727
I720
tp1897
a(I5727
I1213
tp1898
a(I5153
I1213
tp1899
aaa(lp1900
(lp1901
(I4220
I1633
tp1902
a(I5253
I1633
tp1903
a(I5253
I2407
tp1904
a(I4220
I2407
tp1905
aa(lp1906
(I5240
I2380
tp1907
a(I5253
I2380
tp1908
a(I5253
I2407
tp1909
a(I5240
I2407
tp1910
aa(lp1911
(I5147
I780
tp1912
a(I5733
I780
tp1913
a(I5733
I1220
tp1914
a(I5147
I1220
tp1915
aa(lp1916
(I5733
I1220
tp1917
a(I5747
I1220
tp1918
a(I5747
I1240
tp1919
a(I5733
I1240
tp1920
aaasS'DSC08074.JPG'
p1921
(lp1922
(lp1923
(lp1924
(I-7
I1873
tp1925
a(I960
I1873
tp1926
a(I960
I3333
tp1927
a(I-7
I3333
tp1928
aa(lp1929
(I2387
I2547
tp1930
a(I4027
I2547
tp1931
a(I4027
I3907
tp1932
a(I2387
I3907
tp1933
aa(lp1934
(I4060
I2673
tp1935
a(I5947
I2673
tp1936
a(I5947
I3980
tp1937
a(I4060
I3980
tp1938
aaa(lp1939
(lp1940
(I7
I1773
tp1941
a(I1253
I1773
tp1942
a(I1253
I3427
tp1943
a(I7
I3427
tp1944
aa(lp1945
(I2353
I2400
tp1946
a(I4147
I2400
tp1947
a(I4147
I3993
tp1948
a(I2353
I3993
tp1949
aaa(lp1950
(lp1951
(I-7
I1813
tp1952
a(I1213
I1813
tp1953
a(I1213
I3393
tp1954
a(I-7
I3393
tp1955
aa(lp1956
(I2180
I2367
tp1957
a(I3953
I2367
tp1958
a(I3953
I3987
tp1959
a(I2180
I3987
tp1960
aa(lp1961
(I3560
I2933
tp1962
a(I5987
I2933
tp1963
a(I5987
I3980
tp1964
a(I3560
I3980
tp1965
aaasS'DSC08123.JPG'
p1966
(lp1967
(lp1968
(lp1969
(I880
I-7
tp1970
a(I3260
I-7
tp1971
a(I3260
I1993
tp1972
a(I880
I1993
tp1973
aa(lp1974
(I20
I153
tp1975
a(I1420
I153
tp1976
a(I1420
I2107
tp1977
a(I20
I2107
tp1978
aa(lp1979
(I953
I2167
tp1980
a(I3333
I2167
tp1981
a(I3333
I3820
tp1982
a(I953
I3820
tp1983
aa(lp1984
(I13
I1753
tp1985
a(I1560
I1753
tp1986
a(I1560
I3313
tp1987
a(I13
I3313
tp1988
aa(lp1989
(I5020
I3373
tp1990
a(I5987
I3373
tp1991
a(I5987
I3973
tp1992
a(I5020
I3973
tp1993
aaa(lp1994
(lp1995
(I1080
I167
tp1996
a(I3093
I167
tp1997
a(I3093
I1513
tp1998
a(I1080
I1513
tp1999
aa(lp2000
(I53
I1733
tp2001
a(I1433
I1733
tp2002
a(I1433
I2960
tp2003
a(I53
I2960
tp2004
aa(lp2005
(I1660
I2333
tp2006
a(I1660
I2333
tp2007
a(I1660
I2340
tp2008
a(I1660
I2340
tp2009
aaa(lp2010
(lp2011
(I1153
I7
tp2012
a(I3387
I7
tp2013
a(I3387
I1967
tp2014
a(I1153
I1967
tp2015
aa(lp2016
(I13
I413
tp2017
a(I1327
I413
tp2018
a(I1327
I3113
tp2019
a(I13
I3113
tp2020
aa(lp2021
(I1427
I2213
tp2022
a(I3160
I2213
tp2023
a(I3160
I3933
tp2024
a(I1427
I3933
tp2025
aaasS'DSC08084.JPG'
p2026
(lp2027
(lp2028
(lp2029
(I1627
I953
tp2030
a(I3133
I953
tp2031
a(I3133
I2193
tp2032
a(I1627
I2193
tp2033
aaa(lp2034
(lp2035
(I2120
I80
tp2036
a(I3380
I80
tp2037
a(I3380
I1160
tp2038
a(I2120
I1160
tp2039
aaa(lp2040
(lp2041
(I2020
I7
tp2042
a(I3493
I7
tp2043
a(I3493
I1287
tp2044
a(I2020
I1287
tp2045
aa(lp2046
(I1627
I967
tp2047
a(I2927
I967
tp2048
a(I2927
I2027
tp2049
a(I1627
I2027
tp2050
aaasS'DSC08086.JPG'
p2051
(lp2052
(lp2053
a(lp2054
(lp2055
(I960
I1127
tp2056
a(I1433
I1127
tp2057
a(I1433
I1580
tp2058
a(I960
I1580
tp2059
aaa(lp2060
asS'DSC07815.JPG'
p2061
(lp2062
(lp2063
(lp2064
(I4073
I2200
tp2065
a(I4587
I2200
tp2066
a(I4587
I3053
tp2067
a(I4073
I3053
tp2068
aa(lp2069
(I3253
I2500
tp2070
a(I3760
I2500
tp2071
a(I3760
I2993
tp2072
a(I3253
I2993
tp2073
aaa(lp2074
(lp2075
(I5560
I147
tp2076
a(I5967
I147
tp2077
a(I5967
I1173
tp2078
a(I5560
I1173
tp2079
aaa(lp2080
(lp2081
(I1900
I0
tp2082
a(I2480
I0
tp2083
a(I2480
I273
tp2084
a(I1900
I273
tp2085
aa(lp2086
(I5313
I180
tp2087
a(I5973
I180
tp2088
a(I5973
I1107
tp2089
a(I5313
I1107
tp2090
aaasS'DSC08068.JPG'
p2091
(lp2092
(lp2093
a(lp2094
a(lp2095
asS'DSC07909.JPG'
p2096
(lp2097
(lp2098
(lp2099
(I740
I3187
tp2100
a(I1200
I3187
tp2101
a(I1200
I3640
tp2102
a(I740
I3640
tp2103
aa(lp2104
(I5413
I753
tp2105
a(I5720
I753
tp2106
a(I5720
I1140
tp2107
a(I5413
I1140
tp2108
aa(lp2109
(I3993
I1953
tp2110
a(I4347
I1953
tp2111
a(I4347
I2233
tp2112
a(I3993
I2233
tp2113
aaa(lp2114
(lp2115
(I3820
I1840
tp2116
a(I4420
I1840
tp2117
a(I4420
I2347
tp2118
a(I3820
I2347
tp2119
aaa(lp2120
(lp2121
(I527
I-7
tp2122
a(I1193
I-7
tp2123
a(I1193
I240
tp2124
a(I527
I240
tp2125
aa(lp2126
(I67
I1240
tp2127
a(I293
I1240
tp2128
a(I293
I1547
tp2129
a(I67
I1547
tp2130
aa(lp2131
(I3953
I1920
tp2132
a(I4393
I1920
tp2133
a(I4393
I2273
tp2134
a(I3953
I2273
tp2135
aa(lp2136
(I3753
I1913
tp2137
a(I4067
I1913
tp2138
a(I4067
I2320
tp2139
a(I3753
I2320
tp2140
aa(lp2141
(I5353
I647
tp2142
a(I5887
I647
tp2143
a(I5887
I1200
tp2144
a(I5353
I1200
tp2145
aaasS'DSC07966.JPG'
p2146
(lp2147
(lp2148
(lp2149
(I727
I2593
tp2150
a(I1093
I2593
tp2151
a(I1093
I3113
tp2152
a(I727
I3113
tp2153
aa(lp2154
(I1513
I2593
tp2155
a(I1953
I2593
tp2156
a(I1953
I3087
tp2157
a(I1513
I3087
tp2158
aa(lp2159
(I4213
I2773
tp2160
a(I4553
I2773
tp2161
a(I4553
I3153
tp2162
a(I4213
I3153
tp2163
aa(lp2164
(I5000
I3633
tp2165
a(I5520
I3633
tp2166
a(I5520
I3973
tp2167
a(I5000
I3973
tp2168
aaa(lp2169
(lp2170
(I533
I2600
tp2171
a(I1167
I2600
tp2172
a(I1167
I3087
tp2173
a(I533
I3087
tp2174
aa(lp2175
(I1573
I2533
tp2176
a(I2073
I2533
tp2177
a(I2073
I3100
tp2178
a(I1573
I3100
tp2179
aa(lp2180
(I4147
I2793
tp2181
a(I4613
I2793
tp2182
a(I4613
I3147
tp2183
a(I4147
I3147
tp2184
aa(lp2185
(I4847
I3600
tp2186
a(I5673
I3600
tp2187
a(I5673
I3993
tp2188
a(I4847
I3993
tp2189
aaa(lp2190
(lp2191
(I607
I2627
tp2192
a(I1180
I2627
tp2193
a(I1180
I3100
tp2194
a(I607
I3100
tp2195
aa(lp2196
(I4873
I3667
tp2197
a(I5433
I3667
tp2198
a(I5433
I3993
tp2199
a(I4873
I3993
tp2200
aaasS'DSC08139.JPG'
p2201
(lp2202
(lp2203
a(lp2204
a(lp2205
asS'DSC07819.JPG'
p2206
(lp2207
(lp2208
(lp2209
(I733
I7
tp2210
a(I1587
I7
tp2211
a(I1587
I1147
tp2212
a(I733
I1147
tp2213
aa(lp2214
(I2653
I300
tp2215
a(I3193
I300
tp2216
a(I3193
I900
tp2217
a(I2653
I900
tp2218
aa(lp2219
(I3920
I713
tp2220
a(I4613
I713
tp2221
a(I4613
I1120
tp2222
a(I3920
I1120
tp2223
aa(lp2224
(I4753
I1140
tp2225
a(I5387
I1140
tp2226
a(I5387
I2533
tp2227
a(I4753
I2533
tp2228
aa(lp2229
(I1933
I2713
tp2230
a(I2507
I2713
tp2231
a(I2507
I3300
tp2232
a(I1933
I3300
tp2233
aa(lp2234
(I5640
I1413
tp2235
a(I5907
I1413
tp2236
a(I5907
I1747
tp2237
a(I5640
I1747
tp2238
aa(lp2239
(I4973
I513
tp2240
a(I5300
I513
tp2241
a(I5300
I800
tp2242
a(I4973
I800
tp2243
aaa(lp2244
(lp2245
(I887
I0
tp2246
a(I1340
I0
tp2247
a(I1340
I320
tp2248
a(I887
I320
tp2249
aa(lp2250
(I933
I493
tp2251
a(I1513
I493
tp2252
a(I1513
I1100
tp2253
a(I933
I1100
tp2254
aa(lp2255
(I2673
I387
tp2256
a(I3127
I387
tp2257
a(I3127
I760
tp2258
a(I2673
I760
tp2259
aa(lp2260
(I3860
I753
tp2261
a(I4173
I753
tp2262
a(I4173
I1053
tp2263
a(I3860
I1053
tp2264
aa(lp2265
(I4333
I753
tp2266
a(I4487
I753
tp2267
a(I4487
I940
tp2268
a(I4333
I940
tp2269
aa(lp2270
(I4693
I1760
tp2271
a(I4893
I1760
tp2272
a(I4893
I1980
tp2273
a(I4693
I1980
tp2274
aa(lp2275
(I5087
I1173
tp2276
a(I5280
I1173
tp2277
a(I5280
I1453
tp2278
a(I5087
I1453
tp2279
aa(lp2280
(I4687
I1320
tp2281
a(I5007
I1320
tp2282
a(I5007
I1620
tp2283
a(I4687
I1620
tp2284
aa(lp2285
(I4687
I2253
tp2286
a(I5007
I2253
tp2287
a(I5007
I2533
tp2288
a(I4687
I2533
tp2289
aa(lp2290
(I5620
I1427
tp2291
a(I5947
I1427
tp2292
a(I5947
I1727
tp2293
a(I5620
I1727
tp2294
aaa(lp2295
(lp2296
(I940
I60
tp2297
a(I1067
I60
tp2298
a(I1067
I220
tp2299
a(I940
I220
tp2300
aa(lp2301
(I1127
I87
tp2302
a(I1273
I87
tp2303
a(I1273
I247
tp2304
a(I1127
I247
tp2305
aa(lp2306
(I1033
I553
tp2307
a(I1247
I553
tp2308
a(I1247
I667
tp2309
a(I1033
I667
tp2310
aa(lp2311
(I1393
I633
tp2312
a(I1420
I633
tp2313
a(I1420
I640
tp2314
a(I1393
I640
tp2315
aa(lp2316
(I1393
I633
tp2317
a(I1547
I633
tp2318
a(I1547
I753
tp2319
a(I1393
I753
tp2320
aa(lp2321
(I1127
I687
tp2322
a(I1333
I687
tp2323
a(I1333
I807
tp2324
a(I1127
I807
tp2325
aa(lp2326
(I1047
I820
tp2327
a(I1487
I820
tp2328
a(I1487
I1040
tp2329
a(I1047
I1040
tp2330
aa(lp2331
(I2747
I440
tp2332
a(I3080
I440
tp2333
a(I3080
I720
tp2334
a(I2747
I720
tp2335
aa(lp2336
(I4020
I780
tp2337
a(I4120
I780
tp2338
a(I4120
I993
tp2339
a(I4020
I993
tp2340
aa(lp2341
(I4340
I773
tp2342
a(I4433
I773
tp2343
a(I4433
I887
tp2344
a(I4340
I887
tp2345
aa(lp2346
(I4740
I1780
tp2347
a(I4753
I1780
tp2348
a(I4753
I1780
tp2349
a(I4740
I1780
tp2350
aa(lp2351
(I4753
I1780
tp2352
a(I4873
I1780
tp2353
a(I4873
I1980
tp2354
a(I4753
I1980
tp2355
aa(lp2356
(I4747
I2293
tp2357
a(I4900
I2293
tp2358
a(I4900
I2487
tp2359
a(I4747
I2487
tp2360
aaasS'DSC08023.JPG'
p2361
(lp2362
(lp2363
(lp2364
(I3300
I1933
tp2365
a(I3707
I1933
tp2366
a(I3707
I2467
tp2367
a(I3300
I2467
tp2368
aaa(lp2369
(lp2370
(I3193
I1880
tp2371
a(I3780
I1880
tp2372
a(I3780
I2613
tp2373
a(I3193
I2613
tp2374
aa(lp2375
(I5687
I1767
tp2376
a(I5980
I1767
tp2377
a(I5980
I2333
tp2378
a(I5687
I2333
tp2379
aa(lp2380
(I5253
I667
tp2381
a(I5720
I667
tp2382
a(I5720
I1100
tp2383
a(I5253
I1100
tp2384
aaa(lp2385
(lp2386
(I5680
I1807
tp2387
a(I5987
I1807
tp2388
a(I5987
I2353
tp2389
a(I5680
I2353
tp2390
aa(lp2391
(I5253
I680
tp2392
a(I5673
I680
tp2393
a(I5673
I1033
tp2394
a(I5253
I1033
tp2395
aa(lp2396
(I3113
I1920
tp2397
a(I3833
I1920
tp2398
a(I3833
I2587
tp2399
a(I3113
I2587
tp2400
aaasS'DSC07923.JPG'
p2401
(lp2402
(lp2403
(lp2404
(I5100
I553
tp2405
a(I5480
I553
tp2406
a(I5480
I893
tp2407
a(I5100
I893
tp2408
aaa(lp2409
a(lp2410
(lp2411
(I5067
I553
tp2412
a(I5487
I553
tp2413
a(I5487
I1067
tp2414
a(I5067
I1067
tp2415
aaasS'DSC07810.JPG'
p2416
(lp2417
(lp2418
(lp2419
(I4267
I227
tp2420
a(I4687
I227
tp2421
a(I4687
I633
tp2422
a(I4267
I633
tp2423
aa(lp2424
(I5373
I2940
tp2425
a(I5933
I2940
tp2426
a(I5933
I3467
tp2427
a(I5373
I3467
tp2428
aa(lp2429
(I2953
I3107
tp2430
a(I3487
I3107
tp2431
a(I3487
I3687
tp2432
a(I2953
I3687
tp2433
aa(lp2434
(I3573
I3700
tp2435
a(I3813
I3700
tp2436
a(I3813
I3920
tp2437
a(I3573
I3920
tp2438
aa(lp2439
(I1740
I2760
tp2440
a(I2553
I2760
tp2441
a(I2553
I3320
tp2442
a(I1740
I3320
tp2443
aa(lp2444
(I1253
I3647
tp2445
a(I2073
I3647
tp2446
a(I2073
I3987
tp2447
a(I1253
I3987
tp2448
aaa(lp2449
(lp2450
(I2813
I7
tp2451
a(I3260
I7
tp2452
a(I3260
I233
tp2453
a(I2813
I233
tp2454
aa(lp2455
(I4187
I167
tp2456
a(I4720
I167
tp2457
a(I4720
I620
tp2458
a(I4187
I620
tp2459
aa(lp2460
(I5300
I2907
tp2461
a(I5933
I2907
tp2462
a(I5933
I3540
tp2463
a(I5300
I3540
tp2464
aa(lp2465
(I3507
I3660
tp2466
a(I3827
I3660
tp2467
a(I3827
I3940
tp2468
a(I3507
I3940
tp2469
aa(lp2470
(I2907
I3053
tp2471
a(I3620
I3053
tp2472
a(I3620
I3680
tp2473
a(I2907
I3680
tp2474
aa(lp2475
(I1667
I3587
tp2476
a(I2127
I3587
tp2477
a(I2127
I3940
tp2478
a(I1667
I3940
tp2479
aa(lp2480
(I1640
I2680
tp2481
a(I2633
I2680
tp2482
a(I2633
I3313
tp2483
a(I1640
I3313
tp2484
aaa(lp2485
(lp2486
(I4147
I127
tp2487
a(I4747
I127
tp2488
a(I4747
I660
tp2489
a(I4147
I660
tp2490
aa(lp2491
(I2753
I2927
tp2492
a(I3707
I2927
tp2493
a(I3707
I3780
tp2494
a(I2753
I3780
tp2495
aa(lp2496
(I5333
I2920
tp2497
a(I5900
I2920
tp2498
a(I5900
I3540
tp2499
a(I5333
I3540
tp2500
aaasS'DSC08138.JPG'
p2501
(lp2502
(lp2503
(lp2504
(I5000
I3047
tp2505
a(I5233
I3047
tp2506
a(I5233
I3260
tp2507
a(I5000
I3260
tp2508
aa(lp2509
(I-7
I2593
tp2510
a(I1367
I2593
tp2511
a(I1367
I3980
tp2512
a(I-7
I3980
tp2513
aaa(lp2514
(lp2515
(I13
I2680
tp2516
a(I1407
I2680
tp2517
a(I1407
I3987
tp2518
a(I13
I3987
tp2519
aaa(lp2520
(lp2521
(I27
I2620
tp2522
a(I1193
I2620
tp2523
a(I1193
I3973
tp2524
a(I27
I3973
tp2525
aaasS'DSC08036.JPG'
p2526
(lp2527
(lp2528
(lp2529
(I3787
I13
tp2530
a(I4480
I13
tp2531
a(I4480
I440
tp2532
a(I3787
I440
tp2533
aa(lp2534
(I520
I547
tp2535
a(I1287
I547
tp2536
a(I1287
I1293
tp2537
a(I520
I1293
tp2538
aa(lp2539
(I387
I1867
tp2540
a(I853
I1867
tp2541
a(I853
I2280
tp2542
a(I387
I2280
tp2543
aa(lp2544
(I2400
I1707
tp2545
a(I3240
I1707
tp2546
a(I3240
I2527
tp2547
a(I2400
I2527
tp2548
aaa(lp2549
(lp2550
(I3833
I0
tp2551
a(I4427
I0
tp2552
a(I4427
I367
tp2553
a(I3833
I367
tp2554
aa(lp2555
(I540
I587
tp2556
a(I1140
I587
tp2557
a(I1140
I1273
tp2558
a(I540
I1273
tp2559
aa(lp2560
(I373
I1860
tp2561
a(I760
I1860
tp2562
a(I760
I2247
tp2563
a(I373
I2247
tp2564
aa(lp2565
(I2340
I1733
tp2566
a(I3140
I1733
tp2567
a(I3140
I2480
tp2568
a(I2340
I2480
tp2569
aaa(lp2570
(lp2571
(I2380
I1840
tp2572
a(I3160
I1840
tp2573
a(I3160
I2460
tp2574
a(I2380
I2460
tp2575
aa(lp2576
(I567
I487
tp2577
a(I1133
I487
tp2578
a(I1133
I1113
tp2579
a(I567
I1113
tp2580
aa(lp2581
(I307
I1767
tp2582
a(I853
I1767
tp2583
a(I853
I2253
tp2584
a(I307
I2253
tp2585
aa(lp2586
(I3900
I0
tp2587
a(I4467
I0
tp2588
a(I4467
I373
tp2589
a(I3900
I373
tp2590
aaasS'DSC07822.JPG'
p2591
(lp2592
(lp2593
(lp2594
(I3480
I2453
tp2595
a(I3833
I2453
tp2596
a(I3833
I2773
tp2597
a(I3480
I2773
tp2598
aaa(lp2599
(lp2600
(I3493
I2393
tp2601
a(I3893
I2393
tp2602
a(I3893
I2907
tp2603
a(I3493
I2907
tp2604
aaa(lp2605
(lp2606
(I3547
I2513
tp2607
a(I3800
I2513
tp2608
a(I3800
I2720
tp2609
a(I3547
I2720
tp2610
aaasS'DSC08076.JPG'
p2611
(lp2612
(lp2613
(lp2614
(I33
I240
tp2615
a(I753
I240
tp2616
a(I753
I1487
tp2617
a(I33
I1487
tp2618
aa(lp2619
(I3607
I1747
tp2620
a(I4313
I1747
tp2621
a(I4313
I2327
tp2622
a(I3607
I2327
tp2623
aaa(lp2624
(lp2625
(I20
I-7
tp2626
a(I1093
I-7
tp2627
a(I1093
I1687
tp2628
a(I20
I1687
tp2629
aa(lp2630
(I3447
I1620
tp2631
a(I4267
I1620
tp2632
a(I4267
I2393
tp2633
a(I3447
I2393
tp2634
aa(lp2635
(I5653
I3060
tp2636
a(I5987
I3060
tp2637
a(I5987
I3407
tp2638
a(I5653
I3407
tp2639
aa(lp2640
(I5547
I1567
tp2641
a(I5993
I1567
tp2642
a(I5993
I2287
tp2643
a(I5547
I2287
tp2644
aa(lp2645
(I4773
I1087
tp2646
a(I5333
I1087
tp2647
a(I5333
I1547
tp2648
a(I4773
I1547
tp2649
aaa(lp2650
(lp2651
(I3487
I1680
tp2652
a(I4373
I1680
tp2653
a(I4373
I2420
tp2654
a(I3487
I2420
tp2655
aa(lp2656
(I5547
I1527
tp2657
a(I5993
I1527
tp2658
a(I5993
I2200
tp2659
a(I5547
I2200
tp2660
aa(lp2661
(I-7
I13
tp2662
a(I747
I13
tp2663
a(I747
I1713
tp2664
a(I-7
I1713
tp2665
aaasS'DSC07970.JPG'
p2666
(lp2667
(lp2668
(lp2669
(I2347
I1947
tp2670
a(I3133
I1947
tp2671
a(I3133
I2667
tp2672
a(I2347
I2667
tp2673
aa(lp2674
(I5033
I2107
tp2675
a(I5453
I2107
tp2676
a(I5453
I2553
tp2677
a(I5033
I2553
tp2678
aa(lp2679
(I973
I3080
tp2680
a(I1573
I3080
tp2681
a(I1573
I3640
tp2682
a(I973
I3640
tp2683
aaa(lp2684
(lp2685
(I5067
I2173
tp2686
a(I5373
I2173
tp2687
a(I5373
I2467
tp2688
a(I5067
I2467
tp2689
aa(lp2690
(I2353
I1933
tp2691
a(I3213
I1933
tp2692
a(I3213
I2500
tp2693
a(I2353
I2500
tp2694
aa(lp2695
(I1020
I3020
tp2696
a(I1520
I3020
tp2697
a(I1520
I3527
tp2698
a(I1020
I3527
tp2699
aaa(lp2700
(lp2701
(I1127
I3113
tp2702
a(I1413
I3113
tp2703
a(I1413
I3320
tp2704
a(I1127
I3320
tp2705
aa(lp2706
(I1127
I3333
tp2707
a(I1300
I3333
tp2708
a(I1300
I3513
tp2709
a(I1127
I3513
tp2710
aa(lp2711
(I2567
I2073
tp2712
a(I2773
I2073
tp2713
a(I2773
I2240
tp2714
a(I2567
I2240
tp2715
aa(lp2716
(I2653
I2267
tp2717
a(I3027
I2267
tp2718
a(I3027
I2460
tp2719
a(I2653
I2460
tp2720
aaasS'DSC07922.JPG'
p2721
(lp2722
(lp2723
(lp2724
(I1153
I1200
tp2725
a(I1660
I1200
tp2726
a(I1660
I1727
tp2727
a(I1153
I1727
tp2728
aa(lp2729
(I2827
I2633
tp2730
a(I4300
I2633
tp2731
a(I4300
I3873
tp2732
a(I2827
I3873
tp2733
aaa(lp2734
(lp2735
(I3220
I2800
tp2736
a(I3473
I2800
tp2737
a(I3473
I3073
tp2738
a(I3220
I3073
tp2739
aa(lp2740
(I3067
I3520
tp2741
a(I3340
I3520
tp2742
a(I3340
I3760
tp2743
a(I3067
I3760
tp2744
aa(lp2745
(I3833
I2760
tp2746
a(I3853
I2760
tp2747
a(I3853
I2773
tp2748
a(I3833
I2773
tp2749
aa(lp2750
(I3840
I2767
tp2751
a(I4053
I2767
tp2752
a(I4053
I2987
tp2753
a(I3840
I2987
tp2754
aa(lp2755
(I3580
I3253
tp2756
a(I3967
I3253
tp2757
a(I3967
I3440
tp2758
a(I3580
I3440
tp2759
aa(lp2760
(I3520
I3520
tp2761
a(I3713
I3520
tp2762
a(I3713
I3720
tp2763
a(I3520
I3720
tp2764
aa(lp2765
(I3773
I3507
tp2766
a(I3913
I3507
tp2767
a(I3913
I3613
tp2768
a(I3773
I3613
tp2769
aa(lp2770
(I3993
I3573
tp2771
a(I4127
I3573
tp2772
a(I4127
I3760
tp2773
a(I3993
I3760
tp2774
aa(lp2775
(I3713
I3833
tp2776
a(I3740
I3833
tp2777
a(I3740
I3840
tp2778
a(I3713
I3840
tp2779
aa(lp2780
(I3733
I3840
tp2781
a(I3967
I3840
tp2782
a(I3967
I3980
tp2783
a(I3733
I3980
tp2784
aa(lp2785
(I4733
I3113
tp2786
a(I4900
I3113
tp2787
a(I4900
I3407
tp2788
a(I4733
I3407
tp2789
aa(lp2790
(I1340
I1407
tp2791
a(I1553
I1407
tp2792
a(I1553
I1547
tp2793
a(I1340
I1547
tp2794
aaa(lp2795
(lp2796
(I1193
I1380
tp2797
a(I1600
I1380
tp2798
a(I1600
I1713
tp2799
a(I1193
I1713
tp2800
aa(lp2801
(I2960
I3440
tp2802
a(I3333
I3440
tp2803
a(I3333
I3867
tp2804
a(I2960
I3867
tp2805
aa(lp2806
(I3367
I3373
tp2807
a(I3920
I3373
tp2808
a(I3920
I3840
tp2809
a(I3367
I3840
tp2810
aa(lp2811
(I3627
I3767
tp2812
a(I4167
I3767
tp2813
a(I4167
I3987
tp2814
a(I3627
I3987
tp2815
aa(lp2816
(I3827
I3413
tp2817
a(I4220
I3413
tp2818
a(I4220
I3840
tp2819
a(I3827
I3840
tp2820
aa(lp2821
(I3480
I3133
tp2822
a(I4080
I3133
tp2823
a(I4080
I3527
tp2824
a(I3480
I3527
tp2825
aa(lp2826
(I3020
I2713
tp2827
a(I3600
I2713
tp2828
a(I3600
I3200
tp2829
a(I3020
I3200
tp2830
aa(lp2831
(I3620
I2700
tp2832
a(I4193
I2700
tp2833
a(I4193
I3113
tp2834
a(I3620
I3113
tp2835
aa(lp2836
(I4087
I2487
tp2837
a(I5987
I2487
tp2838
a(I5987
I3987
tp2839
a(I4087
I3987
tp2840
aaasS'DSC08120.JPG'
p2841
(lp2842
(lp2843
(lp2844
(I-7
I1967
tp2845
a(I1180
I1967
tp2846
a(I1180
I3840
tp2847
a(I-7
I3840
tp2848
aa(lp2849
(I1387
I2040
tp2850
a(I3253
I2040
tp2851
a(I3253
I3947
tp2852
a(I1387
I3947
tp2853
aaa(lp2854
(lp2855
(I-7
I1773
tp2856
a(I1567
I1773
tp2857
a(I1567
I3967
tp2858
a(I-7
I3967
tp2859
aa(lp2860
(I720
I1813
tp2861
a(I3547
I1813
tp2862
a(I3547
I3967
tp2863
a(I720
I3967
tp2864
aaa(lp2865
(lp2866
(I460
I307
tp2867
a(I2080
I307
tp2868
a(I2080
I1313
tp2869
a(I460
I1313
tp2870
aa(lp2871
(I0
I1893
tp2872
a(I1360
I1893
tp2873
a(I1360
I3853
tp2874
a(I0
I3853
tp2875
aa(lp2876
(I1547
I2360
tp2877
a(I2933
I2360
tp2878
a(I2933
I3880
tp2879
a(I1547
I3880
tp2880
aaasS'DSC07831.JPG'
p2881
(lp2882
(lp2883
(lp2884
(I3207
I1173
tp2885
a(I3800
I1173
tp2886
a(I3800
I1787
tp2887
a(I3207
I1787
tp2888
aa(lp2889
(I1153
I1707
tp2890
a(I1400
I1707
tp2891
a(I1400
I1920
tp2892
a(I1153
I1920
tp2893
aaa(lp2894
(lp2895
(I3247
I1227
tp2896
a(I3280
I1227
tp2897
a(I3280
I1227
tp2898
a(I3247
I1227
tp2899
aa(lp2900
(I3253
I1233
tp2901
a(I3713
I1233
tp2902
a(I3713
I1693
tp2903
a(I3253
I1693
tp2904
aa(lp2905
(I1187
I1687
tp2906
a(I1367
I1687
tp2907
a(I1367
I1893
tp2908
a(I1187
I1893
tp2909
aaa(lp2910
(lp2911
(I3200
I1147
tp2912
a(I3773
I1147
tp2913
a(I3773
I1767
tp2914
a(I3200
I1767
tp2915
aaasS'DSC07926.JPG'
p2916
(lp2917
(lp2918
(lp2919
(I2200
I3360
tp2920
a(I2460
I3360
tp2921
a(I2460
I3613
tp2922
a(I2200
I3613
tp2923
aa(lp2924
(I4707
I120
tp2925
a(I5120
I120
tp2926
a(I5120
I1053
tp2927
a(I4707
I1053
tp2928
aaa(lp2929
(lp2930
(I4213
I67
tp2931
a(I5920
I67
tp2932
a(I5920
I1333
tp2933
a(I4213
I1333
tp2934
aa(lp2935
(I1960
I3300
tp2936
a(I2573
I3300
tp2937
a(I2573
I3660
tp2938
a(I1960
I3660
tp2939
aaa(lp2940
(lp2941
(I4367
I327
tp2942
a(I5873
I327
tp2943
a(I5873
I1353
tp2944
a(I4367
I1353
tp2945
aa(lp2946
(I4627
I353
tp2947
a(I5873
I353
tp2948
a(I5873
I1333
tp2949
a(I4627
I1333
tp2950
aa(lp2951
(I4393
I207
tp2952
a(I4400
I207
tp2953
a(I4400
I320
tp2954
a(I4393
I320
tp2955
aa(lp2956
(I4387
I113
tp2957
a(I4387
I113
tp2958
a(I4387
I307
tp2959
a(I4387
I307
tp2960
aa(lp2961
(I2127
I3047
tp2962
a(I2920
I3047
tp2963
a(I2920
I3667
tp2964
a(I2127
I3667
tp2965
aaasS'DSC08129.JPG'
p2966
(lp2967
(lp2968
(lp2969
(I2833
I3333
tp2970
a(I4793
I3333
tp2971
a(I4793
I3940
tp2972
a(I2833
I3940
tp2973
aa(lp2974
(I3660
I0
tp2975
a(I4127
I0
tp2976
a(I4127
I433
tp2977
a(I3660
I433
tp2978
aaa(lp2979
(lp2980
(I3507
I7
tp2981
a(I4160
I7
tp2982
a(I4160
I547
tp2983
a(I3507
I547
tp2984
aa(lp2985
(I2913
I3193
tp2986
a(I4893
I3193
tp2987
a(I4893
I3980
tp2988
a(I2913
I3980
tp2989
aaa(lp2990
(lp2991
(I3547
I-7
tp2992
a(I4233
I-7
tp2993
a(I4233
I520
tp2994
a(I3547
I520
tp2995
aa(lp2996
(I2913
I3373
tp2997
a(I4767
I3373
tp2998
a(I4767
I3987
tp2999
a(I2913
I3987
tp3000
aa(lp3001
(I4667
I2993
tp3002
a(I4927
I2993
tp3003
a(I4927
I3160
tp3004
a(I4667
I3160
tp3005
aaasS'DSC08062.JPG'
p3006
(lp3007
(lp3008
a(lp3009
a(lp3010
(lp3011
(I1967
I453
tp3012
a(I5087
I453
tp3013
a(I5087
I3280
tp3014
a(I1967
I3280
tp3015
aa(lp3016
(I13
I13
tp3017
a(I800
I13
tp3018
a(I800
I1473
tp3019
a(I13
I1473
tp3020
aa(lp3021
(I20
I3773
tp3022
a(I320
I3773
tp3023
a(I320
I3980
tp3024
a(I20
I3980
tp3025
aa(lp3026
(I1287
I3860
tp3027
a(I1647
I3860
tp3028
a(I1647
I3980
tp3029
a(I1287
I3980
tp3030
aaasS'DSC08147.JPG'
p3031
(lp3032
(lp3033
(lp3034
(I1727
I-7
tp3035
a(I2653
I-7
tp3036
a(I2653
I513
tp3037
a(I1727
I513
tp3038
aa(lp3039
(I2767
I13
tp3040
a(I4260
I13
tp3041
a(I4260
I540
tp3042
a(I2767
I540
tp3043
aa(lp3044
(I0
I2280
tp3045
a(I1293
I2280
tp3046
a(I1293
I3993
tp3047
a(I0
I3993
tp3048
aaa(lp3049
(lp3050
(I2007
I7
tp3051
a(I2633
I7
tp3052
a(I2633
I360
tp3053
a(I2007
I360
tp3054
aa(lp3055
(I2993
I7
tp3056
a(I4107
I7
tp3057
a(I4107
I367
tp3058
a(I2993
I367
tp3059
aa(lp3060
(I27
I2607
tp3061
a(I733
I2607
tp3062
a(I733
I3227
tp3063
a(I27
I3227
tp3064
aa(lp3065
(I67
I3280
tp3066
a(I973
I3280
tp3067
a(I973
I3967
tp3068
a(I67
I3967
tp3069
aaa(lp3070
(lp3071
(I1500
I0
tp3072
a(I4347
I0
tp3073
a(I4347
I633
tp3074
a(I1500
I633
tp3075
aa(lp3076
(I0
I2127
tp3077
a(I1260
I2127
tp3078
a(I1260
I3993
tp3079
a(I0
I3993
tp3080
aaasS'DSC07830.JPG'
p3081
(lp3082
(lp3083
(lp3084
(I880
I2713
tp3085
a(I1233
I2713
tp3086
a(I1233
I3113
tp3087
a(I880
I3113
tp3088
aaa(lp3089
(lp3090
(I3900
I2460
tp3091
a(I4287
I2460
tp3092
a(I4287
I2793
tp3093
a(I3900
I2793
tp3094
aa(lp3095
(I793
I2700
tp3096
a(I1407
I2700
tp3097
a(I1407
I3120
tp3098
a(I793
I3120
tp3099
aaa(lp3100
(lp3101
(I813
I2693
tp3102
a(I1287
I2693
tp3103
a(I1287
I3180
tp3104
a(I813
I3180
tp3105
aa(lp3106
(I3860
I2433
tp3107
a(I4240
I2433
tp3108
a(I4240
I2813
tp3109
a(I3860
I2813
tp3110
aaasS'DSC07814.JPG'
p3111
(lp3112
(lp3113
(lp3114
(I2253
I2733
tp3115
a(I3667
I2733
tp3116
a(I3667
I3940
tp3117
a(I2253
I3940
tp3118
aa(lp3119
(I1707
I3253
tp3120
a(I2280
I3253
tp3121
a(I2280
I3867
tp3122
a(I1707
I3867
tp3123
aaa(lp3124
(lp3125
(I2580
I2767
tp3126
a(I3487
I2767
tp3127
a(I3487
I3887
tp3128
a(I2580
I3887
tp3129
aaa(lp3130
(lp3131
(I2827
I2993
tp3132
a(I3440
I2993
tp3133
a(I3440
I3707
tp3134
a(I2827
I3707
tp3135
aa(lp3136
(I1933
I3413
tp3137
a(I2287
I3413
tp3138
a(I2287
I3767
tp3139
a(I1933
I3767
tp3140
aaasS'DSC08085.JPG'
p3141
(lp3142
(lp3143
(lp3144
(I1047
I2167
tp3145
a(I1433
I2167
tp3146
a(I1433
I2480
tp3147
a(I1047
I2480
tp3148
aaa(lp3149
(lp3150
(I1067
I2147
tp3151
a(I1420
I2147
tp3152
a(I1420
I2500
tp3153
a(I1067
I2500
tp3154
aaa(lp3155
asS'DSC07834.JPG'
p3156
(lp3157
(lp3158
(lp3159
(I3293
I2180
tp3160
a(I4387
I2180
tp3161
a(I4387
I3240
tp3162
a(I3293
I3240
tp3163
aa(lp3164
(I873
I2520
tp3165
a(I1060
I2520
tp3166
a(I1060
I2807
tp3167
a(I873
I2807
tp3168
aa(lp3169
(I1200
I2573
tp3170
a(I1320
I2573
tp3171
a(I1320
I2780
tp3172
a(I1200
I2780
tp3173
aa(lp3174
(I2473
I2607
tp3175
a(I2847
I2607
tp3176
a(I2847
I3020
tp3177
a(I2473
I3020
tp3178
aa(lp3179
(I3000
I2407
tp3180
a(I3260
I2407
tp3181
a(I3260
I2840
tp3182
a(I3000
I2840
tp3183
aa(lp3184
(I293
I2880
tp3185
a(I307
I2880
tp3186
a(I307
I2880
tp3187
a(I293
I2880
tp3188
aa(lp3189
(I287
I2893
tp3190
a(I767
I2893
tp3191
a(I767
I3567
tp3192
a(I287
I3567
tp3193
aa(lp3194
(I20
I3673
tp3195
a(I673
I3673
tp3196
a(I673
I3973
tp3197
a(I20
I3973
tp3198
aa(lp3199
(I807
I3533
tp3200
a(I1880
I3533
tp3201
a(I1880
I3987
tp3202
a(I807
I3987
tp3203
aaa(lp3204
(lp3205
(I0
I1687
tp3206
a(I373
I1687
tp3207
a(I373
I2087
tp3208
a(I0
I2087
tp3209
aa(lp3210
(I193
I2080
tp3211
a(I327
I2080
tp3212
a(I327
I2287
tp3213
a(I193
I2287
tp3214
aa(lp3215
(I107
I2187
tp3216
a(I267
I2187
tp3217
a(I267
I2380
tp3218
a(I107
I2380
tp3219
aa(lp3220
(I760
I2433
tp3221
a(I1167
I2433
tp3222
a(I1167
I2880
tp3223
a(I760
I2880
tp3224
aa(lp3225
(I1127
I2507
tp3226
a(I1380
I2507
tp3227
a(I1380
I2820
tp3228
a(I1127
I2820
tp3229
aa(lp3230
(I2393
I2553
tp3231
a(I2953
I2553
tp3232
a(I2953
I3120
tp3233
a(I2393
I3120
tp3234
aa(lp3235
(I4467
I2353
tp3236
a(I4687
I2353
tp3237
a(I4687
I2633
tp3238
a(I4467
I2633
tp3239
aa(lp3240
(I2747
I2327
tp3241
a(I3413
I2327
tp3242
a(I3413
I2853
tp3243
a(I2747
I2853
tp3244
aa(lp3245
(I2887
I2040
tp3246
a(I4613
I2040
tp3247
a(I4613
I3380
tp3248
a(I2887
I3380
tp3249
aa(lp3250
(I5253
I0
tp3251
a(I5973
I0
tp3252
a(I5973
I1113
tp3253
a(I5253
I1113
tp3254
aa(lp3255
(I4480
I300
tp3256
a(I5200
I300
tp3257
a(I5200
I940
tp3258
a(I4480
I940
tp3259
aa(lp3260
(I180
I2833
tp3261
a(I927
I2833
tp3262
a(I927
I3720
tp3263
a(I180
I3720
tp3264
aa(lp3265
(I0
I3553
tp3266
a(I700
I3553
tp3267
a(I700
I3987
tp3268
a(I0
I3987
tp3269
aa(lp3270
(I613
I3113
tp3271
a(I1933
I3113
tp3272
a(I1933
I3987
tp3273
a(I613
I3987
tp3274
aaa(lp3275
(lp3276
(I2813
I2067
tp3277
a(I4833
I2067
tp3278
a(I4833
I3473
tp3279
a(I2813
I3473
tp3280
aa(lp3281
(I2033
I2260
tp3282
a(I2780
I2260
tp3283
a(I2780
I3133
tp3284
a(I2033
I3133
tp3285
aa(lp3286
(I753
I2353
tp3287
a(I1627
I2353
tp3288
a(I1627
I2927
tp3289
a(I753
I2927
tp3290
aa(lp3291
(I5720
I287
tp3292
a(I5993
I287
tp3293
a(I5993
I1187
tp3294
a(I5720
I1187
tp3295
aa(lp3296
(I33
I2833
tp3297
a(I1947
I2833
tp3298
a(I1947
I3993
tp3299
a(I33
I3993
tp3300
aa(lp3301
(I27
I1740
tp3302
a(I280
I1740
tp3303
a(I280
I2267
tp3304
a(I27
I2267
tp3305
aaasS'DSC07932.JPG'
p3306
(lp3307
(lp3308
a(lp3309
(lp3310
(I2053
I3000
tp3311
a(I2333
I3000
tp3312
a(I2333
I3207
tp3313
a(I2053
I3207
tp3314
aaa(lp3315
asS'DSC08033.JPG'
p3316
(lp3317
(lp3318
(lp3319
(I4707
I433
tp3320
a(I5253
I433
tp3321
a(I5253
I740
tp3322
a(I4707
I740
tp3323
aa(lp3324
(I4907
I707
tp3325
a(I5460
I707
tp3326
a(I5460
I1060
tp3327
a(I4907
I1060
tp3328
aa(lp3329
(I3213
I707
tp3330
a(I3213
I707
tp3331
a(I3213
I707
tp3332
a(I3213
I707
tp3333
aa(lp3334
(I3227
I700
tp3335
a(I3227
I700
tp3336
a(I3227
I700
tp3337
a(I3227
I700
tp3338
aa(lp3339
(I3200
I707
tp3340
a(I5433
I707
tp3341
a(I5433
I3160
tp3342
a(I3200
I3160
tp3343
aa(lp3344
(I0
I1700
tp3345
a(I1253
I1700
tp3346
a(I1253
I3253
tp3347
a(I0
I3253
tp3348
aa(lp3349
(I1307
I1453
tp3350
a(I3173
I1453
tp3351
a(I3173
I3747
tp3352
a(I1307
I3747
tp3353
aaa(lp3354
(lp3355
(I3213
I653
tp3356
a(I5447
I653
tp3357
a(I5447
I3080
tp3358
a(I3213
I3080
tp3359
aa(lp3360
(I33
I1320
tp3361
a(I3133
I1320
tp3362
a(I3133
I3687
tp3363
a(I33
I3687
tp3364
aa(lp3365
(I4773
I373
tp3366
a(I5200
I373
tp3367
a(I5200
I620
tp3368
a(I4773
I620
tp3369
aaa(lp3370
(lp3371
(I73
I2013
tp3372
a(I1140
I2013
tp3373
a(I1140
I2993
tp3374
a(I73
I2993
tp3375
aa(lp3376
(I1553
I1940
tp3377
a(I2893
I1940
tp3378
a(I2893
I3400
tp3379
a(I1553
I3400
tp3380
aa(lp3381
(I3407
I1147
tp3382
a(I4880
I1147
tp3383
a(I4880
I2353
tp3384
a(I3407
I2353
tp3385
aa(lp3386
(I4367
I2447
tp3387
a(I4893
I2447
tp3388
a(I4893
I2987
tp3389
a(I4367
I2987
tp3390
aaasS'DSC07936.JPG'
p3391
(lp3392
(lp3393
(lp3394
(I2260
I3033
tp3395
a(I3400
I3033
tp3396
a(I3400
I3940
tp3397
a(I2260
I3940
tp3398
aa(lp3399
(I3887
I2747
tp3400
a(I5953
I2747
tp3401
a(I5953
I3953
tp3402
a(I3887
I3953
tp3403
aa(lp3404
(I20
I1547
tp3405
a(I793
I1547
tp3406
a(I793
I3940
tp3407
a(I20
I3940
tp3408
aaa(lp3409
(lp3410
(I27
I1793
tp3411
a(I413
I1793
tp3412
a(I413
I2760
tp3413
a(I27
I2760
tp3414
aa(lp3415
(I687
I2113
tp3416
a(I887
I2113
tp3417
a(I887
I2347
tp3418
a(I687
I2347
tp3419
aa(lp3420
(I33
I2920
tp3421
a(I693
I2920
tp3422
a(I693
I3947
tp3423
a(I33
I3947
tp3424
aa(lp3425
(I2360
I3127
tp3426
a(I3347
I3127
tp3427
a(I3347
I3913
tp3428
a(I2360
I3913
tp3429
aa(lp3430
(I4100
I3080
tp3431
a(I4853
I3080
tp3432
a(I4853
I3707
tp3433
a(I4100
I3707
tp3434
aa(lp3435
(I4947
I3207
tp3436
a(I5247
I3207
tp3437
a(I5247
I3960
tp3438
a(I4947
I3960
tp3439
aaa(lp3440
(lp3441
(I13
I1500
tp3442
a(I1080
I1500
tp3443
a(I1080
I2787
tp3444
a(I13
I2787
tp3445
aa(lp3446
(I13
I2813
tp3447
a(I940
I2813
tp3448
a(I940
I3987
tp3449
a(I13
I3987
tp3450
aa(lp3451
(I2147
I2920
tp3452
a(I3693
I2920
tp3453
a(I3693
I3980
tp3454
a(I2147
I3980
tp3455
aa(lp3456
(I3807
I2867
tp3457
a(I5987
I2867
tp3458
a(I5987
I3973
tp3459
a(I3807
I3973
tp3460
aaasS'DSC08094.JPG'
p3461
(lp3462
(lp3463
(lp3464
(I3873
I53
tp3465
a(I4660
I53
tp3466
a(I4660
I953
tp3467
a(I3873
I953
tp3468
aa(lp3469
(I3320
I3773
tp3470
a(I3667
I3773
tp3471
a(I3667
I3980
tp3472
a(I3320
I3980
tp3473
aaa(lp3474
(lp3475
(I3847
I13
tp3476
a(I4720
I13
tp3477
a(I4720
I1007
tp3478
a(I3847
I1007
tp3479
aa(lp3480
(I3227
I3640
tp3481
a(I3720
I3640
tp3482
a(I3720
I3967
tp3483
a(I3227
I3967
tp3484
aaa(lp3485
(lp3486
(I3760
I20
tp3487
a(I4753
I20
tp3488
a(I4753
I1033
tp3489
a(I3760
I1033
tp3490
aa(lp3491
(I3213
I3640
tp3492
a(I3733
I3640
tp3493
a(I3733
I3987
tp3494
a(I3213
I3987
tp3495
aaasS'DSC07974.JPG'
p3496
(lp3497
(lp3498
(lp3499
(I40
I1007
tp3500
a(I167
I1007
tp3501
a(I167
I1327
tp3502
a(I40
I1327
tp3503
aa(lp3504
(I4047
I2333
tp3505
a(I4207
I2333
tp3506
a(I4207
I2467
tp3507
a(I4047
I2467
tp3508
aa(lp3509
(I3927
I2873
tp3510
a(I4160
I2873
tp3511
a(I4160
I3047
tp3512
a(I3927
I3047
tp3513
aa(lp3514
(I4180
I2713
tp3515
a(I4433
I2713
tp3516
a(I4433
I3067
tp3517
a(I4180
I3067
tp3518
aa(lp3519
(I67
I3767
tp3520
a(I87
I3767
tp3521
a(I87
I3767
tp3522
a(I67
I3767
tp3523
aa(lp3524
(I67
I3780
tp3525
a(I367
I3780
tp3526
a(I367
I3973
tp3527
a(I67
I3973
tp3528
aaa(lp3529
(lp3530
(I-7
I940
tp3531
a(I380
I940
tp3532
a(I380
I1340
tp3533
a(I-7
I1340
tp3534
aa(lp3535
(I13
I3607
tp3536
a(I587
I3607
tp3537
a(I587
I3993
tp3538
a(I13
I3993
tp3539
aa(lp3540
(I3793
I2787
tp3541
a(I4233
I2787
tp3542
a(I4233
I3133
tp3543
a(I3793
I3133
tp3544
aa(lp3545
(I4080
I2607
tp3546
a(I4553
I2607
tp3547
a(I4553
I3233
tp3548
a(I4080
I3233
tp3549
aa(lp3550
(I3967
I2207
tp3551
a(I4267
I2207
tp3552
a(I4267
I2547
tp3553
a(I3967
I2547
tp3554
aa(lp3555
(I3720
I507
tp3556
a(I4173
I507
tp3557
a(I4173
I953
tp3558
a(I3720
I953
tp3559
aaa(lp3560
(lp3561
(I3667
I200
tp3562
a(I4200
I200
tp3563
a(I4200
I933
tp3564
a(I3667
I933
tp3565
aa(lp3566
(I20
I1007
tp3567
a(I200
I1007
tp3568
a(I200
I1400
tp3569
a(I20
I1400
tp3570
aa(lp3571
(I3787
I2273
tp3572
a(I4593
I2273
tp3573
a(I4593
I3240
tp3574
a(I3787
I3240
tp3575
aa(lp3576
(I33
I3640
tp3577
a(I433
I3640
tp3578
a(I433
I3993
tp3579
a(I33
I3993
tp3580
aaasS'DSC07809.JPG'
p3581
(lp3582
(lp3583
(lp3584
(I1267
I0
tp3585
a(I2287
I0
tp3586
a(I2287
I367
tp3587
a(I1267
I367
tp3588
aa(lp3589
(I853
I500
tp3590
a(I1780
I500
tp3591
a(I1780
I1200
tp3592
a(I853
I1200
tp3593
aa(lp3594
(I1527
I820
tp3595
a(I2160
I820
tp3596
a(I2160
I1553
tp3597
a(I1527
I1553
tp3598
aa(lp3599
(I2527
I80
tp3600
a(I3313
I80
tp3601
a(I3313
I813
tp3602
a(I2527
I813
tp3603
aa(lp3604
(I3167
I720
tp3605
a(I3553
I720
tp3606
a(I3553
I1060
tp3607
a(I3167
I1060
tp3608
aa(lp3609
(I4720
I7
tp3610
a(I5613
I7
tp3611
a(I5613
I653
tp3612
a(I4720
I653
tp3613
aa(lp3614
(I5613
I167
tp3615
a(I5893
I167
tp3616
a(I5893
I513
tp3617
a(I5613
I513
tp3618
aa(lp3619
(I5413
I880
tp3620
a(I5840
I880
tp3621
a(I5840
I1240
tp3622
a(I5413
I1240
tp3623
aa(lp3624
(I5400
I1920
tp3625
a(I5833
I1920
tp3626
a(I5833
I2240
tp3627
a(I5400
I2240
tp3628
aa(lp3629
(I3867
I1413
tp3630
a(I5967
I1413
tp3631
a(I5967
I3020
tp3632
a(I3867
I3020
tp3633
aa(lp3634
(I2153
I3020
tp3635
a(I3860
I3020
tp3636
a(I3860
I3987
tp3637
a(I2153
I3987
tp3638
aa(lp3639
(I2287
I1720
tp3640
a(I2893
I1720
tp3641
a(I2893
I2240
tp3642
a(I2287
I2240
tp3643
aa(lp3644
(I1213
I3780
tp3645
a(I1833
I3780
tp3646
a(I1833
I3980
tp3647
a(I1213
I3980
tp3648
aaa(lp3649
(lp3650
(I4973
I107
tp3651
a(I5580
I107
tp3652
a(I5580
I580
tp3653
a(I4973
I580
tp3654
aa(lp3655
(I4047
I1480
tp3656
a(I5927
I1480
tp3657
a(I5927
I2987
tp3658
a(I4047
I2987
tp3659
aa(lp3660
(I5513
I1247
tp3661
a(I5960
I1247
tp3662
a(I5960
I1833
tp3663
a(I5513
I1833
tp3664
aa(lp3665
(I3173
I727
tp3666
a(I3447
I727
tp3667
a(I3447
I1040
tp3668
a(I3173
I1040
tp3669
aa(lp3670
(I2607
I300
tp3671
a(I3120
I300
tp3672
a(I3120
I740
tp3673
a(I2607
I740
tp3674
aa(lp3675
(I913
I713
tp3676
a(I1307
I713
tp3677
a(I1307
I1107
tp3678
a(I913
I1107
tp3679
aa(lp3680
(I1567
I980
tp3681
a(I2093
I980
tp3682
a(I2093
I1433
tp3683
a(I1567
I1433
tp3684
aa(lp3685
(I2420
I1807
tp3686
a(I2893
I1807
tp3687
a(I2893
I2247
tp3688
a(I2420
I2247
tp3689
aa(lp3690
(I2300
I3320
tp3691
a(I3833
I3320
tp3692
a(I3833
I3973
tp3693
a(I2300
I3973
tp3694
aaa(lp3695
(lp3696
(I960
I767
tp3697
a(I1260
I767
tp3698
a(I1260
I1207
tp3699
a(I960
I1207
tp3700
aa(lp3701
(I1560
I887
tp3702
a(I2100
I887
tp3703
a(I2100
I1447
tp3704
a(I1560
I1447
tp3705
aa(lp3706
(I2560
I133
tp3707
a(I3433
I133
tp3708
a(I3433
I1007
tp3709
a(I2560
I1007
tp3710
aa(lp3711
(I2307
I1793
tp3712
a(I2900
I1793
tp3713
a(I2900
I2280
tp3714
a(I2307
I2280
tp3715
aa(lp3716
(I4013
I1313
tp3717
a(I5833
I1313
tp3718
a(I5833
I3000
tp3719
a(I4013
I3000
tp3720
aa(lp3721
(I4907
I67
tp3722
a(I5520
I67
tp3723
a(I5520
I593
tp3724
a(I4907
I593
tp3725
aa(lp3726
(I5600
I120
tp3727
a(I5893
I120
tp3728
a(I5893
I480
tp3729
a(I5600
I480
tp3730
aa(lp3731
(I5427
I873
tp3732
a(I5853
I873
tp3733
a(I5853
I1207
tp3734
a(I5427
I1207
tp3735
aa(lp3736
(I2260
I3107
tp3737
a(I3893
I3107
tp3738
a(I3893
I3967
tp3739
a(I2260
I3967
tp3740
aaasS'DSC07984.JPG'
p3741
(lp3742
(lp3743
a(lp3744
a(lp3745
asS'DSC08238.JPG'
p3746
(lp3747
(lp3748
(lp3749
(I1567
I993
tp3750
a(I2107
I993
tp3751
a(I2107
I1500
tp3752
a(I1567
I1500
tp3753
aa(lp3754
(I2420
I907
tp3755
a(I3247
I907
tp3756
a(I3247
I1733
tp3757
a(I2420
I1733
tp3758
aa(lp3759
(I3460
I2747
tp3760
a(I4787
I2747
tp3761
a(I4787
I4000
tp3762
a(I3460
I4000
tp3763
aaa(lp3764
(lp3765
(I3493
I2787
tp3766
a(I4700
I2787
tp3767
a(I4700
I3973
tp3768
a(I3493
I3973
tp3769
aa(lp3770
(I1367
I767
tp3771
a(I3413
I767
tp3772
a(I3413
I2000
tp3773
a(I1367
I2000
tp3774
aaasS'DSC07968.JPG'
p3775
(lp3776
(lp3777
(lp3778
(I307
I2327
tp3779
a(I2827
I2327
tp3780
a(I2827
I3687
tp3781
a(I307
I3687
tp3782
aa(lp3783
(I5320
I2633
tp3784
a(I5973
I2633
tp3785
a(I5973
I3733
tp3786
a(I5320
I3733
tp3787
aa(lp3788
(I3307
I1367
tp3789
a(I3707
I1367
tp3790
a(I3707
I1780
tp3791
a(I3307
I1780
tp3792
aaa(lp3793
(lp3794
(I5340
I2693
tp3795
a(I5933
I2693
tp3796
a(I5933
I3687
tp3797
a(I5340
I3687
tp3798
aa(lp3799
(I780
I2533
tp3800
a(I1880
I2533
tp3801
a(I1880
I3453
tp3802
a(I780
I3453
tp3803
aaa(lp3804
(lp3805
(I927
I2587
tp3806
a(I1887
I2587
tp3807
a(I1887
I3253
tp3808
a(I927
I3253
tp3809
aaasS'DSC07835.JPG'
p3810
(lp3811
(lp3812
(lp3813
(I3167
I2460
tp3814
a(I3673
I2460
tp3815
a(I3673
I2933
tp3816
a(I3167
I2933
tp3817
aa(lp3818
(I5513
I3480
tp3819
a(I5967
I3480
tp3820
a(I5967
I3980
tp3821
a(I5513
I3980
tp3822
aaa(lp3823
(lp3824
(I3173
I2413
tp3825
a(I3713
I2413
tp3826
a(I3713
I3020
tp3827
a(I3173
I3020
tp3828
aa(lp3829
(I5480
I3420
tp3830
a(I5973
I3420
tp3831
a(I5973
I3987
tp3832
a(I5480
I3987
tp3833
aaa(lp3834
(lp3835
(I4733
I1140
tp3836
a(I5940
I1140
tp3837
a(I5940
I3247
tp3838
a(I4733
I3247
tp3839
aa(lp3840
(I4560
I2620
tp3841
a(I5953
I2620
tp3842
a(I5953
I3973
tp3843
a(I4560
I3973
tp3844
aaasS'DSC08040.JPG'
p3845
(lp3846
(lp3847
(lp3848
(I4187
I3067
tp3849
a(I5960
I3067
tp3850
a(I5960
I3967
tp3851
a(I4187
I3967
tp3852
aaa(lp3853
a(lp3854
(lp3855
(I4420
I2880
tp3856
a(I5973
I2880
tp3857
a(I5973
I3973
tp3858
a(I4420
I3973
tp3859
aaasS'DSC08028.JPG'
p3860
(lp3861
(lp3862
(lp3863
(I0
I7
tp3864
a(I1967
I7
tp3865
a(I1967
I1013
tp3866
a(I0
I1013
tp3867
aa(lp3868
(I-7
I1413
tp3869
a(I360
I1413
tp3870
a(I360
I2420
tp3871
a(I-7
I2420
tp3872
aa(lp3873
(I1227
I2053
tp3874
a(I2860
I2053
tp3875
a(I2860
I3287
tp3876
a(I1227
I3287
tp3877
aa(lp3878
(I2220
I740
tp3879
a(I2667
I740
tp3880
a(I2667
I1100
tp3881
a(I2220
I1100
tp3882
aa(lp3883
(I2427
I860
tp3884
a(I3153
I860
tp3885
a(I3153
I1513
tp3886
a(I2427
I1513
tp3887
aaa(lp3888
(lp3889
(I1640
I2133
tp3890
a(I2567
I2133
tp3891
a(I2567
I3087
tp3892
a(I1640
I3087
tp3893
aa(lp3894
(I2693
I1080
tp3895
a(I2960
I1080
tp3896
a(I2960
I1400
tp3897
a(I2693
I1400
tp3898
aa(lp3899
(I27
I13
tp3900
a(I1860
I13
tp3901
a(I1860
I807
tp3902
a(I27
I807
tp3903
aa(lp3904
(I20
I1760
tp3905
a(I167
I1760
tp3906
a(I167
I2193
tp3907
a(I20
I2193
tp3908
aaa(lp3909
(lp3910
(I1487
I2147
tp3911
a(I2640
I2147
tp3912
a(I2640
I3147
tp3913
a(I1487
I3147
tp3914
aa(lp3915
(I2593
I867
tp3916
a(I3160
I867
tp3917
a(I3160
I1507
tp3918
a(I2593
I1507
tp3919
aa(lp3920
(I20
I-7
tp3921
a(I1913
I-7
tp3922
a(I1913
I947
tp3923
a(I20
I947
tp3924
aaasS'DSC08088.JPG'
p3925
(lp3926
(lp3927
a(lp3928
(lp3929
(I527
I1467
tp3930
a(I2360
I1467
tp3931
a(I2360
I3513
tp3932
a(I527
I3513
tp3933
aaa(lp3934
(lp3935
(I533
I1487
tp3936
a(I2460
I1487
tp3937
a(I2460
I3427
tp3938
a(I533
I3427
tp3939
aaasS'DSC08073.JPG'
p3940
(lp3941
(lp3942
(lp3943
(I293
I7
tp3944
a(I3513
I7
tp3945
a(I3513
I2040
tp3946
a(I293
I2040
tp3947
aa(lp3948
(I953
I2267
tp3949
a(I1000
I2267
tp3950
a(I1000
I2267
tp3951
a(I953
I2267
tp3952
aa(lp3953
(I960
I2247
tp3954
a(I2820
I2247
tp3955
a(I2820
I3733
tp3956
a(I960
I3733
tp3957
aa(lp3958
(I2920
I2107
tp3959
a(I5160
I2107
tp3960
a(I5160
I3933
tp3961
a(I2920
I3933
tp3962
aa(lp3963
(I5307
I2167
tp3964
a(I5980
I2167
tp3965
a(I5980
I3733
tp3966
a(I5307
I3733
tp3967
aa(lp3968
(I4827
I133
tp3969
a(I5960
I133
tp3970
a(I5960
I1907
tp3971
a(I4827
I1907
tp3972
aaa(lp3973
(lp3974
(I307
I13
tp3975
a(I3513
I13
tp3976
a(I3513
I1607
tp3977
a(I307
I1607
tp3978
aa(lp3979
(I2307
I460
tp3980
a(I3913
I460
tp3981
a(I3913
I2053
tp3982
a(I2307
I2053
tp3983
aa(lp3984
(I4640
I140
tp3985
a(I5980
I140
tp3986
a(I5980
I2087
tp3987
a(I4640
I2087
tp3988
aa(lp3989
(I5060
I2247
tp3990
a(I5993
I2247
tp3991
a(I5993
I3807
tp3992
a(I5060
I3807
tp3993
aa(lp3994
(I2280
I2167
tp3995
a(I5380
I2167
tp3996
a(I5380
I3967
tp3997
a(I2280
I3967
tp3998
aa(lp3999
(I927
I2027
tp4000
a(I2767
I2027
tp4001
a(I2767
I3813
tp4002
a(I927
I3813
tp4003
aaa(lp4004
(lp4005
(I2587
I567
tp4006
a(I3560
I567
tp4007
a(I3560
I1767
tp4008
a(I2587
I1767
tp4009
aa(lp4010
(I1140
I1927
tp4011
a(I2680
I1927
tp4012
a(I2680
I3687
tp4013
a(I1140
I3687
tp4014
aa(lp4015
(I2660
I2520
tp4016
a(I5173
I2520
tp4017
a(I5173
I3967
tp4018
a(I2660
I3967
tp4019
aa(lp4020
(I5253
I2387
tp4021
a(I5973
I2387
tp4022
a(I5973
I3700
tp4023
a(I5253
I3700
tp4024
aa(lp4025
(I640
I53
tp4026
a(I2607
I53
tp4027
a(I2607
I1633
tp4028
a(I640
I1633
tp4029
aa(lp4030
(I4953
I347
tp4031
a(I5913
I347
tp4032
a(I5913
I2107
tp4033
a(I4953
I2107
tp4034
aaasS'DSC08029.JPG'
p4035
(lp4036
(lp4037
(lp4038
(I2860
I0
tp4039
a(I3447
I0
tp4040
a(I3447
I247
tp4041
a(I2860
I247
tp4042
aa(lp4043
(I0
I1313
tp4044
a(I893
I1313
tp4045
a(I893
I2587
tp4046
a(I0
I2587
tp4047
aa(lp4048
(I7
I2947
tp4049
a(I1433
I2947
tp4050
a(I1433
I3987
tp4051
a(I7
I3987
tp4052
aa(lp4053
(I4053
I3573
tp4054
a(I4913
I3573
tp4055
a(I4913
I3973
tp4056
a(I4053
I3973
tp4057
aaa(lp4058
(lp4059
(I2847
I0
tp4060
a(I3520
I0
tp4061
a(I3520
I387
tp4062
a(I2847
I387
tp4063
aa(lp4064
(I2107
I533
tp4065
a(I2527
I533
tp4066
a(I2527
I1033
tp4067
a(I2107
I1033
tp4068
aa(lp4069
(I5687
I233
tp4070
a(I5987
I233
tp4071
a(I5987
I520
tp4072
a(I5687
I520
tp4073
aa(lp4074
(I3773
I3347
tp4075
a(I5127
I3347
tp4076
a(I5127
I3993
tp4077
a(I3773
I3993
tp4078
aa(lp4079
(I2200
I3820
tp4080
a(I2633
I3820
tp4081
a(I2633
I3987
tp4082
a(I2200
I3987
tp4083
aa(lp4084
(I13
I2873
tp4085
a(I1520
I2873
tp4086
a(I1520
I3980
tp4087
a(I13
I3980
tp4088
aa(lp4089
(I0
I1233
tp4090
a(I1120
I1233
tp4091
a(I1120
I2680
tp4092
a(I0
I2680
tp4093
aa(lp4094
(I787
I700
tp4095
a(I1027
I700
tp4096
a(I1027
I1007
tp4097
a(I787
I1007
tp4098
aa(lp4099
(I3467
I1107
tp4100
a(I3840
I1107
tp4101
a(I3840
I1380
tp4102
a(I3467
I1380
tp4103
aa(lp4104
(I4893
I1193
tp4105
a(I5267
I1193
tp4106
a(I5267
I1653
tp4107
a(I4893
I1653
tp4108
aaa(lp4109
(lp4110
(I20
I1320
tp4111
a(I660
I1320
tp4112
a(I660
I2767
tp4113
a(I20
I2767
tp4114
aa(lp4115
(I-7
I2913
tp4116
a(I1253
I2913
tp4117
a(I1253
I3927
tp4118
a(I-7
I3927
tp4119
aa(lp4120
(I2087
I733
tp4121
a(I2507
I733
tp4122
a(I2507
I1107
tp4123
a(I2087
I1107
tp4124
aa(lp4125
(I2860
I0
tp4126
a(I3533
I0
tp4127
a(I3533
I340
tp4128
a(I2860
I340
tp4129
aa(lp4130
(I3853
I3480
tp4131
a(I4847
I3480
tp4132
a(I4847
I3953
tp4133
a(I3853
I3953
tp4134
aaasS'DSC08233.JPG'
p4135
(lp4136
(lp4137
(lp4138
(I1280
I3573
tp4139
a(I1547
I3573
tp4140
a(I1547
I3780
tp4141
a(I1280
I3780
tp4142
aaa(lp4143
(lp4144
(I1353
I3593
tp4145
a(I1480
I3593
tp4146
a(I1480
I3733
tp4147
a(I1353
I3733
tp4148
aaa(lp4149
asS'DSC08136.JPG'
p4150
(lp4151
(lp4152
a(lp4153
a(lp4154
asS'DSC08025.JPG'
p4155
(lp4156
(lp4157
(lp4158
(I1907
I120
tp4159
a(I2727
I120
tp4160
a(I2727
I1067
tp4161
a(I1907
I1067
tp4162
aa(lp4163
(I13
I3187
tp4164
a(I1013
I3187
tp4165
a(I1013
I3973
tp4166
a(I13
I3973
tp4167
aa(lp4168
(I1187
I2760
tp4169
a(I2593
I2760
tp4170
a(I2593
I3973
tp4171
a(I1187
I3973
tp4172
aaa(lp4173
(lp4174
(I1593
I0
tp4175
a(I2967
I0
tp4176
a(I2967
I1193
tp4177
a(I1593
I1193
tp4178
aa(lp4179
(I13
I2467
tp4180
a(I2987
I2467
tp4181
a(I2987
I3987
tp4182
a(I13
I3987
tp4183
aa(lp4184
(I5687
I3580
tp4185
a(I5973
I3580
tp4186
a(I5973
I3860
tp4187
a(I5687
I3860
tp4188
aa(lp4189
(I5240
I3607
tp4190
a(I5720
I3607
tp4191
a(I5720
I3980
tp4192
a(I5240
I3980
tp4193
aa(lp4194
(I4333
I3393
tp4195
a(I4660
I3393
tp4196
a(I4660
I3700
tp4197
a(I4333
I3700
tp4198
aaa(lp4199
(lp4200
(I20
I2300
tp4201
a(I2820
I2300
tp4202
a(I2820
I3980
tp4203
a(I20
I3980
tp4204
aa(lp4205
(I1660
I67
tp4206
a(I2880
I67
tp4207
a(I2880
I1220
tp4208
a(I1660
I1220
tp4209
aa(lp4210
(I4333
I3333
tp4211
a(I5960
I3333
tp4212
a(I5960
I3980
tp4213
a(I4333
I3980
tp4214
aaasS'DSC08126.JPG'
p4215
(lp4216
(lp4217
(lp4218
(I2593
I1920
tp4219
a(I3207
I1920
tp4220
a(I3207
I2573
tp4221
a(I2593
I2573
tp4222
aaa(lp4223
(lp4224
(I2460
I1887
tp4225
a(I3247
I1887
tp4226
a(I3247
I2607
tp4227
a(I2460
I2607
tp4228
aaa(lp4229
(lp4230
(I2400
I1913
tp4231
a(I3293
I1913
tp4232
a(I3293
I2667
tp4233
a(I2400
I2667
tp4234
aaasS'DSC07976.JPG'
p4235
(lp4236
(lp4237
(lp4238
(I600
I2127
tp4239
a(I1307
I2127
tp4240
a(I1307
I2747
tp4241
a(I600
I2747
tp4242
aaa(lp4243
(lp4244
(I673
I2220
tp4245
a(I1220
I2220
tp4246
a(I1220
I2547
tp4247
a(I673
I2547
tp4248
aaa(lp4249
asS'DSC08015.JPG'
p4250
(lp4251
(lp4252
(lp4253
(I780
I3613
tp4254
a(I1207
I3613
tp4255
a(I1207
I3973
tp4256
a(I780
I3973
tp4257
aaa(lp4258
(lp4259
(I707
I3587
tp4260
a(I1213
I3587
tp4261
a(I1213
I3973
tp4262
a(I707
I3973
tp4263
aaa(lp4264
(lp4265
(I867
I3593
tp4266
a(I1227
I3593
tp4267
a(I1227
I3993
tp4268
a(I867
I3993
tp4269
aaasS'DSC07963.JPG'
p4270
(lp4271
(lp4272
(lp4273
(I5407
I-7
tp4274
a(I5740
I-7
tp4275
a(I5740
I1047
tp4276
a(I5407
I1047
tp4277
aaa(lp4278
(lp4279
(I5147
I1653
tp4280
a(I5400
I1653
tp4281
a(I5400
I1853
tp4282
a(I5147
I1853
tp4283
aaa(lp4284
(lp4285
(I5120
I1653
tp4286
a(I5513
I1653
tp4287
a(I5513
I1913
tp4288
a(I5120
I1913
tp4289
aaasS'DSC08020.JPG'
p4290
(lp4291
(lp4292
(lp4293
(I1767
I720
tp4294
a(I3860
I720
tp4295
a(I3860
I1887
tp4296
a(I1767
I1887
tp4297
aaa(lp4298
(lp4299
(I1533
I473
tp4300
a(I3920
I473
tp4301
a(I3920
I1920
tp4302
a(I1533
I1920
tp4303
aaa(lp4304
(lp4305
(I1913
I513
tp4306
a(I3853
I513
tp4307
a(I3853
I2147
tp4308
a(I1913
I2147
tp4309
aaasS'DSC07804.JPG'
p4310
(lp4311
(lp4312
(lp4313
(I647
I1987
tp4314
a(I1460
I1987
tp4315
a(I1460
I2747
tp4316
a(I647
I2747
tp4317
aaa(lp4318
(lp4319
(I773
I2133
tp4320
a(I1500
I2133
tp4321
a(I1500
I2867
tp4322
a(I773
I2867
tp4323
aaa(lp4324
(lp4325
(I687
I2133
tp4326
a(I1507
I2133
tp4327
a(I1507
I2907
tp4328
a(I687
I2907
tp4329
aaasS'DSC08246.JPG'
p4330
(lp4331
(lp4332
(lp4333
(I13
I27
tp4334
a(I747
I27
tp4335
a(I747
I1333
tp4336
a(I13
I1333
tp4337
aa(lp4338
(I80
I3147
tp4339
a(I880
I3147
tp4340
a(I880
I3887
tp4341
a(I80
I3887
tp4342
aaa(lp4343
(lp4344
(I0
I7
tp4345
a(I1187
I7
tp4346
a(I1187
I2180
tp4347
a(I0
I2180
tp4348
aa(lp4349
(I0
I2340
tp4350
a(I1153
I2340
tp4351
a(I1153
I3927
tp4352
a(I0
I3927
tp4353
aaa(lp4354
(lp4355
(I7
I13
tp4356
a(I1313
I13
tp4357
a(I1313
I2280
tp4358
a(I7
I2280
tp4359
aa(lp4360
(I13
I2167
tp4361
a(I1340
I2167
tp4362
a(I1340
I3927
tp4363
a(I13
I3927
tp4364
aaasS'DSC07982.JPG'
p4365
(lp4366
(lp4367
(lp4368
(I193
I2893
tp4369
a(I1247
I2893
tp4370
a(I1247
I3887
tp4371
a(I193
I3887
tp4372
aaa(lp4373
(lp4374
(I60
I2340
tp4375
a(I1527
I2340
tp4376
a(I1527
I3940
tp4377
a(I60
I3940
tp4378
aaa(lp4379
(lp4380
(I53
I2387
tp4381
a(I1873
I2387
tp4382
a(I1873
I3980
tp4383
a(I53
I3980
tp4384
aa(lp4385
(I1973
I2393
tp4386
a(I3320
I2393
tp4387
a(I3320
I3653
tp4388
a(I1973
I3653
tp4389
aa(lp4390
(I5220
I93
tp4391
a(I5980
I93
tp4392
a(I5980
I1380
tp4393
a(I5220
I1380
tp4394
aaasS'DSC08143.JPG'
p4395
(lp4396
(lp4397
a(lp4398
(lp4399
(I13
I1087
tp4400
a(I1067
I1087
tp4401
a(I1067
I3273
tp4402
a(I13
I3273
tp4403
aa(lp4404
(I20
I3473
tp4405
a(I587
I3473
tp4406
a(I587
I3920
tp4407
a(I20
I3920
tp4408
aaa(lp4409
(lp4410
(I2327
I2453
tp4411
a(I2620
I2453
tp4412
a(I2620
I2633
tp4413
a(I2327
I2633
tp4414
aaasS'DSC08017.JPG'
p4415
(lp4416
(lp4417
(lp4418
(I3387
I2193
tp4419
a(I3780
I2193
tp4420
a(I3780
I2527
tp4421
a(I3387
I2527
tp4422
aaa(lp4423
(lp4424
(I5313
I2493
tp4425
a(I5900
I2493
tp4426
a(I5900
I3000
tp4427
a(I5313
I3000
tp4428
aa(lp4429
(I2647
I607
tp4430
a(I3293
I607
tp4431
a(I3293
I1213
tp4432
a(I2647
I1213
tp4433
aa(lp4434
(I1720
I1373
tp4435
a(I2013
I1373
tp4436
a(I2013
I1727
tp4437
a(I1720
I1727
tp4438
aa(lp4439
(I1947
I1773
tp4440
a(I2527
I1773
tp4441
a(I2527
I2307
tp4442
a(I1947
I2307
tp4443
aa(lp4444
(I1153
I1353
tp4445
a(I1413
I1353
tp4446
a(I1413
I1607
tp4447
a(I1153
I1607
tp4448
aa(lp4449
(I293
I1620
tp4450
a(I820
I1620
tp4451
a(I820
I2107
tp4452
a(I293
I2107
tp4453
aa(lp4454
(I627
I2413
tp4455
a(I960
I2413
tp4456
a(I960
I2767
tp4457
a(I627
I2767
tp4458
aa(lp4459
(I3353
I2207
tp4460
a(I3807
I2207
tp4461
a(I3807
I2560
tp4462
a(I3353
I2560
tp4463
aaa(lp4464
(lp4465
(I5347
I2513
tp4466
a(I5907
I2513
tp4467
a(I5907
I3033
tp4468
a(I5347
I3033
tp4469
aaasS'DSC07907.JPG'
p4470
(lp4471
(lp4472
(lp4473
(I2993
I3187
tp4474
a(I3813
I3187
tp4475
a(I3813
I3987
tp4476
a(I2993
I3987
tp4477
aa(lp4478
(I573
I3740
tp4479
a(I2420
I3740
tp4480
a(I2420
I3987
tp4481
a(I573
I3987
tp4482
aaa(lp4483
(lp4484
(I313
I3240
tp4485
a(I2433
I3240
tp4486
a(I2433
I3993
tp4487
a(I313
I3993
tp4488
aa(lp4489
(I2647
I2840
tp4490
a(I4000
I2840
tp4491
a(I4000
I3987
tp4492
a(I2647
I3987
tp4493
aaa(lp4494
(lp4495
(I2480
I2727
tp4496
a(I2840
I2727
tp4497
a(I2840
I3033
tp4498
a(I2480
I3033
tp4499
aa(lp4500
(I2613
I2800
tp4501
a(I4147
I2800
tp4502
a(I4147
I3987
tp4503
a(I2613
I3987
tp4504
aa(lp4505
(I307
I3107
tp4506
a(I2553
I3107
tp4507
a(I2553
I3993
tp4508
a(I307
I3993
tp4509
aaasS'DSC07933.JPG'
p4510
(lp4511
(lp4512
(lp4513
(I1860
I647
tp4514
a(I3533
I647
tp4515
a(I3533
I1993
tp4516
a(I1860
I1993
tp4517
aa(lp4518
(I4153
I1033
tp4519
a(I5040
I1033
tp4520
a(I5040
I2067
tp4521
a(I4153
I2067
tp4522
aa(lp4523
(I2913
I2067
tp4524
a(I4560
I2067
tp4525
a(I4560
I3133
tp4526
a(I2913
I3133
tp4527
aa(lp4528
(I5160
I553
tp4529
a(I5993
I553
tp4530
a(I5993
I2433
tp4531
a(I5160
I2433
tp4532
aa(lp4533
(I4040
I273
tp4534
a(I4627
I273
tp4535
a(I4627
I787
tp4536
a(I4040
I787
tp4537
aa(lp4538
(I-7
I1033
tp4539
a(I1040
I1033
tp4540
a(I1040
I2887
tp4541
a(I-7
I2887
tp4542
aaa(lp4543
(lp4544
(I3007
I2307
tp4545
a(I3387
I2307
tp4546
a(I3387
I2607
tp4547
a(I3007
I2607
tp4548
aa(lp4549
(I3300
I2420
tp4550
a(I3993
I2420
tp4551
a(I3993
I3073
tp4552
a(I3300
I3073
tp4553
aa(lp4554
(I3847
I2073
tp4555
a(I4533
I2073
tp4556
a(I4533
I2807
tp4557
a(I3847
I2807
tp4558
aa(lp4559
(I4200
I1080
tp4560
a(I5053
I1080
tp4561
a(I5053
I2160
tp4562
a(I4200
I2160
tp4563
aa(lp4564
(I5093
I633
tp4565
a(I5973
I633
tp4566
a(I5973
I2373
tp4567
a(I5093
I2373
tp4568
aa(lp4569
(I3207
I1313
tp4570
a(I3627
I1313
tp4571
a(I3627
I1727
tp4572
a(I3207
I1727
tp4573
aa(lp4574
(I1833
I793
tp4575
a(I3340
I793
tp4576
a(I3340
I1960
tp4577
a(I1833
I1960
tp4578
aa(lp4579
(I13
I1060
tp4580
a(I1027
I1060
tp4581
a(I1027
I2847
tp4582
a(I13
I2847
tp4583
aa(lp4584
(I4060
I273
tp4585
a(I4693
I273
tp4586
a(I4693
I760
tp4587
a(I4060
I760
tp4588
aaa(lp4589
(lp4590
(I13
I1253
tp4591
a(I853
I1253
tp4592
a(I853
I2680
tp4593
a(I13
I2680
tp4594
aa(lp4595
(I1933
I1267
tp4596
a(I2407
I1267
tp4597
a(I2407
I1787
tp4598
a(I1933
I1787
tp4599
aa(lp4600
(I2373
I973
tp4601
a(I3213
I973
tp4602
a(I3213
I1893
tp4603
a(I2373
I1893
tp4604
aa(lp4605
(I3287
I1313
tp4606
a(I3533
I1313
tp4607
a(I3533
I1713
tp4608
a(I3287
I1713
tp4609
aa(lp4610
(I3100
I2387
tp4611
a(I3113
I2387
tp4612
a(I3113
I2387
tp4613
a(I3100
I2387
tp4614
aa(lp4615
(I3107
I2393
tp4616
a(I3347
I2393
tp4617
a(I3347
I2580
tp4618
a(I3107
I2580
tp4619
aa(lp4620
(I3413
I2493
tp4621
a(I3927
I2493
tp4622
a(I3927
I2980
tp4623
a(I3413
I2980
tp4624
aa(lp4625
(I3920
I2147
tp4626
a(I4473
I2147
tp4627
a(I4473
I2647
tp4628
a(I3920
I2647
tp4629
aa(lp4630
(I4220
I1240
tp4631
a(I4820
I1240
tp4632
a(I4820
I1913
tp4633
a(I4220
I1913
tp4634
aa(lp4635
(I4187
I407
tp4636
a(I4493
I407
tp4637
a(I4493
I633
tp4638
a(I4187
I633
tp4639
aaasS'DSC08116.JPG'
p4640
(lp4641
(lp4642
(lp4643
(I27
I7
tp4644
a(I2840
I7
tp4645
a(I2840
I2667
tp4646
a(I27
I2667
tp4647
aa(lp4648
(I13
I2713
tp4649
a(I1160
I2713
tp4650
a(I1160
I3967
tp4651
a(I13
I3967
tp4652
aaa(lp4653
(lp4654
(I47
I33
tp4655
a(I2647
I33
tp4656
a(I2647
I2320
tp4657
a(I47
I2320
tp4658
aa(lp4659
(I53
I2813
tp4660
a(I1113
I2813
tp4661
a(I1113
I3953
tp4662
a(I53
I3953
tp4663
aaa(lp4664
(lp4665
(I7
I2787
tp4666
a(I1160
I2787
tp4667
a(I1160
I3980
tp4668
a(I7
I3980
tp4669
aa(lp4670
(I7
I13
tp4671
a(I2913
I13
tp4672
a(I2913
I2753
tp4673
a(I7
I2753
tp4674
aaasS'DSC07985.JPG'
p4675
(lp4676
(lp4677
a(lp4678
a(lp4679
asS'DSC07921.JPG'
p4680
(lp4681
(lp4682
(lp4683
(I2260
I307
tp4684
a(I2487
I307
tp4685
a(I2487
I613
tp4686
a(I2260
I613
tp4687
aa(lp4688
(I2927
I1853
tp4689
a(I2980
I1853
tp4690
a(I2980
I1867
tp4691
a(I2927
I1867
tp4692
aa(lp4693
(I2933
I1860
tp4694
a(I3180
I1860
tp4695
a(I3180
I2133
tp4696
a(I2933
I2133
tp4697
aa(lp4698
(I2493
I2540
tp4699
a(I2740
I2540
tp4700
a(I2740
I2753
tp4701
a(I2493
I2753
tp4702
aa(lp4703
(I2760
I3407
tp4704
a(I2787
I3407
tp4705
a(I2787
I3413
tp4706
a(I2760
I3413
tp4707
aa(lp4708
(I2773
I3400
tp4709
a(I2947
I3400
tp4710
a(I2947
I3533
tp4711
a(I2773
I3533
tp4712
aa(lp4713
(I4267
I2060
tp4714
a(I4420
I2060
tp4715
a(I4420
I2233
tp4716
a(I4267
I2233
tp4717
aa(lp4718
(I4573
I2527
tp4719
a(I4760
I2527
tp4720
a(I4760
I2733
tp4721
a(I4573
I2733
tp4722
aaa(lp4723
(lp4724
(I2120
I227
tp4725
a(I2547
I227
tp4726
a(I2547
I673
tp4727
a(I2120
I673
tp4728
aa(lp4729
(I2860
I1840
tp4730
a(I3233
I1840
tp4731
a(I3233
I2113
tp4732
a(I2860
I2113
tp4733
aa(lp4734
(I2433
I2500
tp4735
a(I2787
I2500
tp4736
a(I2787
I2833
tp4737
a(I2433
I2833
tp4738
aa(lp4739
(I2707
I3353
tp4740
a(I2967
I3353
tp4741
a(I2967
I3613
tp4742
a(I2707
I3613
tp4743
aa(lp4744
(I5347
I2227
tp4745
a(I5833
I2227
tp4746
a(I5833
I2647
tp4747
a(I5347
I2647
tp4748
aa(lp4749
(I4080
I1980
tp4750
a(I4773
I1980
tp4751
a(I4773
I2807
tp4752
a(I4080
I2807
tp4753
aaa(lp4754
(lp4755
(I4100
I1947
tp4756
a(I4893
I1947
tp4757
a(I4893
I2900
tp4758
a(I4100
I2900
tp4759
aa(lp4760
(I5233
I2133
tp4761
a(I5840
I2133
tp4762
a(I5840
I2787
tp4763
a(I5233
I2787
tp4764
aa(lp4765
(I2093
I260
tp4766
a(I2587
I260
tp4767
a(I2587
I740
tp4768
a(I2093
I740
tp4769
aa(lp4770
(I2760
I3327
tp4771
a(I2947
I3327
tp4772
a(I2947
I3613
tp4773
a(I2760
I3613
tp4774
aa(lp4775
(I2467
I2440
tp4776
a(I2793
I2440
tp4777
a(I2793
I2840
tp4778
a(I2467
I2840
tp4779
aa(lp4780
(I2880
I1813
tp4781
a(I3260
I1813
tp4782
a(I3260
I2233
tp4783
a(I2880
I2233
tp4784
aaasS'DSC08247.JPG'
p4785
(lp4786
(lp4787
(lp4788
(I4067
I2347
tp4789
a(I4500
I2347
tp4790
a(I4500
I2813
tp4791
a(I4067
I2813
tp4792
aa(lp4793
(I3820
I3227
tp4794
a(I4840
I3227
tp4795
a(I4840
I3973
tp4796
a(I3820
I3973
tp4797
aa(lp4798
(I927
I2700
tp4799
a(I2087
I2700
tp4800
a(I2087
I3733
tp4801
a(I927
I3733
tp4802
aaa(lp4803
(lp4804
(I-7
I987
tp4805
a(I3307
I987
tp4806
a(I3307
I3987
tp4807
a(I-7
I3987
tp4808
aa(lp4809
(I3793
I2053
tp4810
a(I4640
I2053
tp4811
a(I4640
I3133
tp4812
a(I3793
I3133
tp4813
aa(lp4814
(I2987
I2420
tp4815
a(I5353
I2420
tp4816
a(I5353
I3973
tp4817
a(I2987
I3973
tp4818
aa(lp4819
(I4920
I1700
tp4820
a(I5980
I1700
tp4821
a(I5980
I3980
tp4822
a(I4920
I3980
tp4823
aa(lp4824
(I2260
I340
tp4825
a(I4260
I340
tp4826
a(I4260
I1473
tp4827
a(I2260
I1473
tp4828
aaa(lp4829
(lp4830
(I3887
I2073
tp4831
a(I4553
I2073
tp4832
a(I4553
I3013
tp4833
a(I3887
I3013
tp4834
aa(lp4835
(I5160
I1967
tp4836
a(I5980
I1967
tp4837
a(I5980
I3973
tp4838
a(I5160
I3973
tp4839
aa(lp4840
(I3387
I2840
tp4841
a(I5027
I2840
tp4842
a(I5027
I3947
tp4843
a(I3387
I3947
tp4844
aa(lp4845
(I27
I2013
tp4846
a(I2293
I2013
tp4847
a(I2293
I3967
tp4848
a(I27
I3967
tp4849
aaasS'DSC07983.JPG'
p4850
(lp4851
(lp4852
(lp4853
(I913
I13
tp4854
a(I2340
I13
tp4855
a(I2340
I1060
tp4856
a(I913
I1060
tp4857
aaa(lp4858
(lp4859
(I1053
I0
tp4860
a(I2060
I0
tp4861
a(I2060
I967
tp4862
a(I1053
I967
tp4863
aaa(lp4864
(lp4865
(I1220
I40
tp4866
a(I2060
I40
tp4867
a(I2060
I920
tp4868
a(I1220
I920
tp4869
aaasS'DSC08128.JPG'
p4870
(lp4871
(lp4872
(lp4873
(I1087
I2673
tp4874
a(I1907
I2673
tp4875
a(I1907
I3680
tp4876
a(I1087
I3680
tp4877
aaa(lp4878
(lp4879
(I727
I2667
tp4880
a(I2413
I2667
tp4881
a(I2413
I3787
tp4882
a(I727
I3787
tp4883
aa(lp4884
(I2860
I1187
tp4885
a(I3300
I1187
tp4886
a(I3300
I1993
tp4887
a(I2860
I1993
tp4888
aaa(lp4889
(lp4890
(I2833
I1113
tp4891
a(I3240
I1113
tp4892
a(I3240
I1487
tp4893
a(I2833
I1487
tp4894
aa(lp4895
(I2847
I1653
tp4896
a(I3287
I1653
tp4897
a(I3287
I2087
tp4898
a(I2847
I2087
tp4899
aaasS'DSC07967.JPG'
p4900
(lp4901
(lp4902
a(lp4903
a(lp4904
asS'DSC07972.JPG'
p4905
(lp4906
(lp4907
(lp4908
(I2680
I3373
tp4909
a(I3127
I3373
tp4910
a(I3127
I3907
tp4911
a(I2680
I3907
tp4912
aa(lp4913
(I5693
I1900
tp4914
a(I5980
I1900
tp4915
a(I5980
I2647
tp4916
a(I5693
I2647
tp4917
aa(lp4918
(I7
I0
tp4919
a(I2027
I0
tp4920
a(I2027
I1253
tp4921
a(I7
I1253
tp4922
aa(lp4923
(I2893
I7
tp4924
a(I4040
I7
tp4925
a(I4040
I807
tp4926
a(I2893
I807
tp4927
aaa(lp4928
(lp4929
(I2727
I3400
tp4930
a(I2740
I3400
tp4931
a(I2740
I3400
tp4932
a(I2727
I3400
tp4933
aa(lp4934
(I2727
I3407
tp4935
a(I3147
I3407
tp4936
a(I3147
I3867
tp4937
a(I2727
I3867
tp4938
aaa(lp4939
(lp4940
(I2667
I3367
tp4941
a(I3147
I3367
tp4942
a(I3147
I3900
tp4943
a(I2667
I3900
tp4944
aa(lp4945
(I3353
I920
tp4946
a(I4713
I920
tp4947
a(I4713
I1727
tp4948
a(I3353
I1727
tp4949
aa(lp4950
(I4327
I107
tp4951
a(I5400
I107
tp4952
a(I5400
I840
tp4953
a(I4327
I840
tp4954
aaasS'DSC08009.JPG'
p4955
(lp4956
(lp4957
a(lp4958
a(lp4959
asS'DSC08080.JPG'
p4960
(lp4961
(lp4962
a(lp4963
a(lp4964
asS'DSC07833.JPG'
p4965
(lp4966
(lp4967
(lp4968
(I0
I13
tp4969
a(I2093
I13
tp4970
a(I2093
I2780
tp4971
a(I0
I2780
tp4972
aa(lp4973
(I2160
I940
tp4974
a(I4920
I940
tp4975
a(I4920
I2207
tp4976
a(I2160
I2207
tp4977
aa(lp4978
(I1153
I3347
tp4979
a(I2133
I3347
tp4980
a(I2133
I3927
tp4981
a(I1153
I3927
tp4982
aa(lp4983
(I5387
I3453
tp4984
a(I5973
I3453
tp4985
a(I5973
I3980
tp4986
a(I5387
I3980
tp4987
aaa(lp4988
(lp4989
(I340
I27
tp4990
a(I860
I27
tp4991
a(I860
I607
tp4992
a(I340
I607
tp4993
aa(lp4994
(I1447
I500
tp4995
a(I2033
I500
tp4996
a(I2033
I1180
tp4997
a(I1447
I1180
tp4998
aa(lp4999
(I780
I633
tp5000
a(I1413
I633
tp5001
a(I1413
I1240
tp5002
a(I780
I1240
tp5003
aa(lp5004
(I13
I887
tp5005
a(I53
I887
tp5006
a(I53
I893
tp5007
a(I13
I893
tp5008
aa(lp5009
(I33
I887
tp5010
a(I420
I887
tp5011
a(I420
I1720
tp5012
a(I33
I1720
tp5013
aa(lp5014
(I347
I1080
tp5015
a(I1427
I1080
tp5016
a(I1427
I2280
tp5017
a(I347
I2280
tp5018
aa(lp5019
(I1700
I1220
tp5020
a(I1847
I1220
tp5021
a(I1847
I1400
tp5022
a(I1700
I1400
tp5023
aa(lp5024
(I1913
I1207
tp5025
a(I1927
I1207
tp5026
a(I1927
I1207
tp5027
a(I1913
I1207
tp5028
aa(lp5029
(I1913
I1187
tp5030
a(I2000
I1187
tp5031
a(I2000
I1300
tp5032
a(I1913
I1300
tp5033
aa(lp5034
(I2147
I1040
tp5035
a(I2293
I1040
tp5036
a(I2293
I1233
tp5037
a(I2147
I1233
tp5038
aa(lp5039
(I2447
I973
tp5040
a(I2627
I973
tp5041
a(I2627
I1133
tp5042
a(I2447
I1133
tp5043
aa(lp5044
(I3100
I980
tp5045
a(I3313
I980
tp5046
a(I3313
I1213
tp5047
a(I3100
I1213
tp5048
aa(lp5049
(I3853
I1093
tp5050
a(I3873
I1093
tp5051
a(I3873
I1093
tp5052
a(I3853
I1093
tp5053
aa(lp5054
(I3860
I1093
tp5055
a(I4027
I1093
tp5056
a(I4027
I1247
tp5057
a(I3860
I1247
tp5058
aa(lp5059
(I4393
I1253
tp5060
a(I4593
I1253
tp5061
a(I4593
I1493
tp5062
a(I4393
I1493
tp5063
aa(lp5064
(I4047
I1253
tp5065
a(I4160
I1253
tp5066
a(I4160
I1380
tp5067
a(I4047
I1380
tp5068
aa(lp5069
(I3940
I1400
tp5070
a(I4080
I1400
tp5071
a(I4080
I1547
tp5072
a(I3940
I1547
tp5073
aa(lp5074
(I4213
I1540
tp5075
a(I4420
I1540
tp5076
a(I4420
I1693
tp5077
a(I4213
I1693
tp5078
aa(lp5079
(I3687
I1813
tp5080
a(I3707
I1813
tp5081
a(I3707
I1813
tp5082
a(I3687
I1813
tp5083
aa(lp5084
(I3693
I1807
tp5085
a(I3880
I1807
tp5086
a(I3880
I1953
tp5087
a(I3693
I1953
tp5088
aa(lp5089
(I3353
I1707
tp5090
a(I3587
I1707
tp5091
a(I3587
I1973
tp5092
a(I3353
I1973
tp5093
aa(lp5094
(I3267
I0
tp5095
a(I4173
I0
tp5096
a(I4173
I267
tp5097
a(I3267
I267
tp5098
aa(lp5099
(I1527
I3453
tp5100
a(I1933
I3453
tp5101
a(I1933
I3853
tp5102
a(I1527
I3853
tp5103
aaasS'DSC07829.JPG'
p5104
(lp5105
(lp5106
(lp5107
(I2720
I1580
tp5108
a(I3327
I1580
tp5109
a(I3327
I2147
tp5110
a(I2720
I2147
tp5111
aa(lp5112
(I2973
I2500
tp5113
a(I3533
I2500
tp5114
a(I3533
I2993
tp5115
a(I2973
I2993
tp5116
aa(lp5117
(I967
I2233
tp5118
a(I1313
I2233
tp5119
a(I1313
I2533
tp5120
a(I967
I2533
tp5121
aa(lp5122
(I353
I1820
tp5123
a(I587
I1820
tp5124
a(I587
I2067
tp5125
a(I353
I2067
tp5126
aa(lp5127
(I4313
I87
tp5128
a(I4767
I87
tp5129
a(I4767
I467
tp5130
a(I4313
I467
tp5131
aaa(lp5132
(lp5133
(I3107
I2553
tp5134
a(I3520
I2553
tp5135
a(I3520
I2913
tp5136
a(I3107
I2913
tp5137
aa(lp5138
(I3067
I1667
tp5139
a(I3320
I1667
tp5140
a(I3320
I1967
tp5141
a(I3067
I1967
tp5142
aa(lp5143
(I4427
I100
tp5144
a(I4653
I100
tp5145
a(I4653
I380
tp5146
a(I4427
I380
tp5147
aa(lp5148
(I4220
I440
tp5149
a(I4433
I440
tp5150
a(I4433
I653
tp5151
a(I4220
I653
tp5152
aaa(lp5153
(lp5154
(I2973
I2373
tp5155
a(I3753
I2373
tp5156
a(I3753
I3153
tp5157
a(I2973
I3153
tp5158
aaasS'DSC08113.JPG'
p5159
(lp5160
(lp5161
(lp5162
(I1760
I127
tp5163
a(I2153
I127
tp5164
a(I2153
I587
tp5165
a(I1760
I587
tp5166
aa(lp5167
(I2173
I500
tp5168
a(I2447
I500
tp5169
a(I2447
I840
tp5170
a(I2173
I840
tp5171
aa(lp5172
(I3967
I1060
tp5173
a(I4640
I1060
tp5174
a(I4640
I2087
tp5175
a(I3967
I2087
tp5176
aa(lp5177
(I160
I1387
tp5178
a(I2420
I1387
tp5179
a(I2420
I3780
tp5180
a(I160
I3780
tp5181
aaa(lp5182
(lp5183
(I4213
I1293
tp5184
a(I4547
I1293
tp5185
a(I4547
I1953
tp5186
a(I4213
I1953
tp5187
aa(lp5188
(I527
I1693
tp5189
a(I540
I1693
tp5190
a(I540
I1693
tp5191
a(I527
I1693
tp5192
aa(lp5193
(I527
I1693
tp5194
a(I1967
I1693
tp5195
a(I1967
I3460
tp5196
a(I527
I3460
tp5197
aaa(lp5198
(lp5199
(I160
I1533
tp5200
a(I2253
I1533
tp5201
a(I2253
I3633
tp5202
a(I160
I3633
tp5203
aa(lp5204
(I4053
I1233
tp5205
a(I4700
I1233
tp5206
a(I4700
I2087
tp5207
a(I4053
I2087
tp5208
aaasS'DSC08039.JPG'
p5209
(lp5210
(lp5211
(lp5212
(I4187
I0
tp5213
a(I5973
I0
tp5214
a(I5973
I553
tp5215
a(I4187
I553
tp5216
aa(lp5217
(I5067
I267
tp5218
a(I5987
I267
tp5219
a(I5987
I1733
tp5220
a(I5067
I1733
tp5221
aaa(lp5222
(lp5223
(I4773
I40
tp5224
a(I5967
I40
tp5225
a(I5967
I1813
tp5226
a(I4773
I1813
tp5227
aaa(lp5228
asS'DSC07928.JPG'
p5229
(lp5230
(lp5231
(lp5232
(I920
I3667
tp5233
a(I1380
I3667
tp5234
a(I1380
I3980
tp5235
a(I920
I3980
tp5236
aaa(lp5237
a(lp5238
asS'DSC08012.JPG'
p5239
(lp5240
(lp5241
(lp5242
(I240
I73
tp5243
a(I1647
I73
tp5244
a(I1647
I1280
tp5245
a(I240
I1280
tp5246
aaa(lp5247
(lp5248
(I240
I13
tp5249
a(I1700
I13
tp5250
a(I1700
I1307
tp5251
a(I240
I1307
tp5252
aaa(lp5253
(lp5254
(I527
I267
tp5255
a(I1220
I267
tp5256
a(I1220
I1027
tp5257
a(I527
I1027
tp5258
aaasS'DSC07988.JPG'
p5259
(lp5260
(lp5261
a(lp5262
a(lp5263
asS'DSC07973.JPG'
p5264
(lp5265
(lp5266
(lp5267
(I2687
I193
tp5268
a(I3173
I193
tp5269
a(I3173
I633
tp5270
a(I2687
I633
tp5271
aa(lp5272
(I2067
I1907
tp5273
a(I3460
I1907
tp5274
a(I3460
I3140
tp5275
a(I2067
I3140
tp5276
aa(lp5277
(I820
I3753
tp5278
a(I1020
I3753
tp5279
a(I1020
I3973
tp5280
a(I820
I3973
tp5281
aaa(lp5282
(lp5283
(I2147
I2073
tp5284
a(I3220
I2073
tp5285
a(I3220
I3100
tp5286
a(I2147
I3100
tp5287
aaa(lp5288
(lp5289
(I2147
I2453
tp5290
a(I3513
I2453
tp5291
a(I3513
I3013
tp5292
a(I2147
I3013
tp5293
aaasS'DSC08243.JPG'
p5294
(lp5295
(lp5296
(lp5297
(I-7
I2547
tp5298
a(I927
I2547
tp5299
a(I927
I3480
tp5300
a(I-7
I3480
tp5301
aaa(lp5302
a(lp5303
(lp5304
(I0
I2620
tp5305
a(I680
I2620
tp5306
a(I680
I3553
tp5307
a(I0
I3553
tp5308
aaasS'DSC07836.JPG'
p5309
(lp5310
(lp5311
(lp5312
(I2567
I487
tp5313
a(I4020
I487
tp5314
a(I4020
I1473
tp5315
a(I2567
I1473
tp5316
aaa(lp5317
(lp5318
(I2940
I540
tp5319
a(I3780
I540
tp5320
a(I3780
I1280
tp5321
a(I2940
I1280
tp5322
aa(lp5323
(I4580
I380
tp5324
a(I4820
I380
tp5325
a(I4820
I907
tp5326
a(I4580
I907
tp5327
aa(lp5328
(I27
I2520
tp5329
a(I873
I2520
tp5330
a(I873
I3233
tp5331
a(I27
I3233
tp5332
aa(lp5333
(I13
I1287
tp5334
a(I220
I1287
tp5335
a(I220
I2060
tp5336
a(I13
I2060
tp5337
aaa(lp5338
(lp5339
(I2707
I413
tp5340
a(I3913
I413
tp5341
a(I3913
I1527
tp5342
a(I2707
I1527
tp5343
aa(lp5344
(I4487
I167
tp5345
a(I5387
I167
tp5346
a(I5387
I1100
tp5347
a(I4487
I1100
tp5348
aa(lp5349
(I13
I2433
tp5350
a(I880
I2433
tp5351
a(I880
I3347
tp5352
a(I13
I3347
tp5353
aa(lp5354
(I-7
I1047
tp5355
a(I333
I1047
tp5356
a(I333
I1993
tp5357
a(I-7
I1993
tp5358
aa(lp5359
(I3560
I3473
tp5360
a(I3967
I3473
tp5361
a(I3967
I3860
tp5362
a(I3560
I3860
tp5363
aa(lp5364
(I4447
I2133
tp5365
a(I4893
I2133
tp5366
a(I4893
I2567
tp5367
a(I4447
I2567
tp5368
aaasS'DSC08081.JPG'
p5369
(lp5370
(lp5371
a(lp5372
a(lp5373
asS'DSC08013.JPG'
p5374
(lp5375
(lp5376
(lp5377
(I1280
I1153
tp5378
a(I1867
I1153
tp5379
a(I1867
I1607
tp5380
a(I1280
I1607
tp5381
aa(lp5382
(I1860
I1807
tp5383
a(I2247
I1807
tp5384
a(I2247
I2113
tp5385
a(I1860
I2113
tp5386
aaa(lp5387
(lp5388
(I1373
I1167
tp5389
a(I1847
I1167
tp5390
a(I1847
I1587
tp5391
a(I1373
I1587
tp5392
aaa(lp5393
(lp5394
(I1327
I1140
tp5395
a(I1933
I1140
tp5396
a(I1933
I1640
tp5397
a(I1327
I1640
tp5398
aa(lp5399
(I1880
I1833
tp5400
a(I2280
I1833
tp5401
a(I2280
I2180
tp5402
a(I1880
I2180
tp5403
aaasS'DSC07925.JPG'
p5404
(lp5405
(lp5406
(lp5407
(I467
I987
tp5408
a(I760
I987
tp5409
a(I760
I1287
tp5410
a(I467
I1287
tp5411
aa(lp5412
(I2800
I1233
tp5413
a(I2960
I1233
tp5414
a(I2960
I1400
tp5415
a(I2800
I1400
tp5416
aaa(lp5417
(lp5418
(I353
I880
tp5419
a(I833
I880
tp5420
a(I833
I1393
tp5421
a(I353
I1393
tp5422
aa(lp5423
(I2593
I1127
tp5424
a(I3107
I1127
tp5425
a(I3107
I1467
tp5426
a(I2593
I1467
tp5427
aaa(lp5428
(lp5429
(I353
I867
tp5430
a(I833
I867
tp5431
a(I833
I1373
tp5432
a(I353
I1373
tp5433
aa(lp5434
(I2700
I1153
tp5435
a(I3000
I1153
tp5436
a(I3000
I1500
tp5437
a(I2700
I1500
tp5438
aaasS'DSC08011.JPG'
p5439
(lp5440
(lp5441
a(lp5442
a(lp5443
(lp5444
(I2693
I2540
tp5445
a(I3247
I2540
tp5446
a(I3247
I3293
tp5447
a(I2693
I3293
tp5448
aaasS'DSC08089.JPG'
p5449
(lp5450
(lp5451
(lp5452
(I20
I7
tp5453
a(I593
I7
tp5454
a(I593
I247
tp5455
a(I20
I247
tp5456
aa(lp5457
(I2227
I840
tp5458
a(I4060
I840
tp5459
a(I4060
I2320
tp5460
a(I2227
I2320
tp5461
aaa(lp5462
(lp5463
(I2727
I1333
tp5464
a(I3793
I1333
tp5465
a(I3793
I2167
tp5466
a(I2727
I2167
tp5467
aaa(lp5468
(lp5469
(I2460
I1140
tp5470
a(I4080
I1140
tp5471
a(I4080
I2300
tp5472
a(I2460
I2300
tp5473
aaasS'DSC07965.JPG'
p5474
(lp5475
(lp5476
(lp5477
(I1620
I3193
tp5478
a(I2280
I3193
tp5479
a(I2280
I3853
tp5480
a(I1620
I3853
tp5481
aa(lp5482
(I107
I3040
tp5483
a(I640
I3040
tp5484
a(I640
I3580
tp5485
a(I107
I3580
tp5486
aa(lp5487
(I3200
I2513
tp5488
a(I5620
I2513
tp5489
a(I5620
I3980
tp5490
a(I3200
I3980
tp5491
aa(lp5492
(I5713
I2787
tp5493
a(I5973
I2787
tp5494
a(I5973
I3980
tp5495
a(I5713
I3980
tp5496
aaa(lp5497
(lp5498
(I87
I2987
tp5499
a(I580
I2987
tp5500
a(I580
I3393
tp5501
a(I87
I3393
tp5502
aa(lp5503
(I1593
I3260
tp5504
a(I2093
I3260
tp5505
a(I2093
I3700
tp5506
a(I1593
I3700
tp5507
aa(lp5508
(I1980
I3407
tp5509
a(I2387
I3407
tp5510
a(I2387
I3720
tp5511
a(I1980
I3720
tp5512
aa(lp5513
(I3113
I2453
tp5514
a(I4687
I2453
tp5515
a(I4687
I3360
tp5516
a(I3113
I3360
tp5517
aa(lp5518
(I3160
I3067
tp5519
a(I5767
I3067
tp5520
a(I5767
I3987
tp5521
a(I3160
I3987
tp5522
aa(lp5523
(I5660
I2947
tp5524
a(I5987
I2947
tp5525
a(I5987
I3593
tp5526
a(I5660
I3593
tp5527
aa(lp5528
(I740
I460
tp5529
a(I1200
I460
tp5530
a(I1200
I913
tp5531
a(I740
I913
tp5532
aaa(lp5533
(lp5534
(I907
I613
tp5535
a(I1093
I613
tp5536
a(I1093
I813
tp5537
a(I907
I813
tp5538
aa(lp5539
(I247
I3093
tp5540
a(I500
I3093
tp5541
a(I500
I3367
tp5542
a(I247
I3367
tp5543
aa(lp5544
(I1713
I3313
tp5545
a(I1967
I3313
tp5546
a(I1967
I3613
tp5547
a(I1713
I3613
tp5548
aa(lp5549
(I2033
I3473
tp5550
a(I2213
I3473
tp5551
a(I2213
I3640
tp5552
a(I2033
I3640
tp5553
aa(lp5554
(I3500
I2607
tp5555
a(I4413
I2607
tp5556
a(I4413
I3187
tp5557
a(I3500
I3187
tp5558
aa(lp5559
(I3513
I3247
tp5560
a(I4880
I3247
tp5561
a(I4880
I3973
tp5562
a(I3513
I3973
tp5563
aaasS'DSC07818.JPG'
p5564
(lp5565
(lp5566
(lp5567
(I1820
I13
tp5568
a(I2253
I13
tp5569
a(I2253
I200
tp5570
a(I1820
I200
tp5571
aaa(lp5572
a(lp5573
asS'DSC08146.JPG'
p5574
(lp5575
(lp5576
(lp5577
(I2887
I0
tp5578
a(I4527
I0
tp5579
a(I4527
I1007
tp5580
a(I2887
I1007
tp5581
aa(lp5582
(I3680
I1067
tp5583
a(I5953
I1067
tp5584
a(I5953
I3020
tp5585
a(I3680
I3020
tp5586
aa(lp5587
(I13
I433
tp5588
a(I927
I433
tp5589
a(I927
I2107
tp5590
a(I13
I2107
tp5591
aa(lp5592
(I2753
I3013
tp5593
a(I4427
I3013
tp5594
a(I4427
I3967
tp5595
a(I2753
I3967
tp5596
aa(lp5597
(I987
I333
tp5598
a(I1667
I333
tp5599
a(I1667
I1373
tp5600
a(I987
I1373
tp5601
aaa(lp5602
(lp5603
(I2320
I0
tp5604
a(I4913
I0
tp5605
a(I4913
I1347
tp5606
a(I2320
I1347
tp5607
aa(lp5608
(I0
I240
tp5609
a(I1933
I240
tp5610
a(I1933
I2113
tp5611
a(I0
I2113
tp5612
aa(lp5613
(I293
I-7
tp5614
a(I993
I-7
tp5615
a(I993
I187
tp5616
a(I293
I187
tp5617
aa(lp5618
(I2533
I2907
tp5619
a(I4620
I2907
tp5620
a(I4620
I3993
tp5621
a(I2533
I3993
tp5622
aa(lp5623
(I2560
I1887
tp5624
a(I3520
I1887
tp5625
a(I3520
I2880
tp5626
a(I2560
I2880
tp5627
aa(lp5628
(I3533
I353
tp5629
a(I5973
I353
tp5630
a(I5973
I3340
tp5631
a(I3533
I3340
tp5632
aaa(lp5633
(lp5634
(I2827
I0
tp5635
a(I4440
I0
tp5636
a(I4440
I1107
tp5637
a(I2827
I1107
tp5638
aa(lp5639
(I7
I547
tp5640
a(I1607
I547
tp5641
a(I1607
I1807
tp5642
a(I7
I1807
tp5643
aa(lp5644
(I4113
I1087
tp5645
a(I4133
I1087
tp5646
a(I4133
I1093
tp5647
a(I4113
I1093
tp5648
aa(lp5649
(I4340
I653
tp5650
a(I5973
I653
tp5651
a(I5973
I3487
tp5652
a(I4340
I3487
tp5653
aa(lp5654
(I4280
I3253
tp5655
a(I4327
I3253
tp5656
a(I4327
I3253
tp5657
a(I4280
I3253
tp5658
aa(lp5659
(I4187
I3240
tp5660
a(I4313
I3240
tp5661
a(I4313
I3240
tp5662
a(I4187
I3240
tp5663
aa(lp5664
(I2713
I2847
tp5665
a(I4713
I2847
tp5666
a(I4713
I3960
tp5667
a(I2713
I3960
tp5668
aa(lp5669
(I2433
I1913
tp5670
a(I3553
I1913
tp5671
a(I3553
I2747
tp5672
a(I2433
I2747
tp5673
aa(lp5674
(I4267
I1693
tp5675
a(I4307
I1693
tp5676
a(I4307
I1713
tp5677
a(I4267
I1713
tp5678
aaasS'DSC08079.JPG'
p5679
(lp5680
(lp5681
(lp5682
(I593
I1727
tp5683
a(I1160
I1727
tp5684
a(I1160
I2153
tp5685
a(I593
I2153
tp5686
aa(lp5687
(I867
I2373
tp5688
a(I1347
I2373
tp5689
a(I1347
I2853
tp5690
a(I867
I2853
tp5691
aa(lp5692
(I1460
I1720
tp5693
a(I1847
I1720
tp5694
a(I1847
I2213
tp5695
a(I1460
I2213
tp5696
aa(lp5697
(I1993
I1927
tp5698
a(I2353
I1927
tp5699
a(I2353
I2480
tp5700
a(I1993
I2480
tp5701
aa(lp5702
(I4500
I2920
tp5703
a(I4887
I2920
tp5704
a(I4887
I3313
tp5705
a(I4500
I3313
tp5706
aaa(lp5707
(lp5708
(I607
I1773
tp5709
a(I1040
I1773
tp5710
a(I1040
I2133
tp5711
a(I607
I2133
tp5712
aa(lp5713
(I960
I2333
tp5714
a(I1393
I2333
tp5715
a(I1393
I2920
tp5716
a(I960
I2920
tp5717
aa(lp5718
(I1387
I1780
tp5719
a(I1827
I1780
tp5720
a(I1827
I2213
tp5721
a(I1387
I2213
tp5722
aa(lp5723
(I1967
I2000
tp5724
a(I2347
I2000
tp5725
a(I2347
I2487
tp5726
a(I1967
I2487
tp5727
aa(lp5728
(I4507
I2927
tp5729
a(I4893
I2927
tp5730
a(I4893
I3320
tp5731
a(I4507
I3320
tp5732
aaa(lp5733
(lp5734
(I693
I1853
tp5735
a(I960
I1853
tp5736
a(I960
I2067
tp5737
a(I693
I2067
tp5738
aa(lp5739
(I1047
I2447
tp5740
a(I1347
I2447
tp5741
a(I1347
I2793
tp5742
a(I1047
I2793
tp5743
aa(lp5744
(I2027
I2053
tp5745
a(I2307
I2053
tp5746
a(I2307
I2393
tp5747
a(I2027
I2393
tp5748
aa(lp5749
(I4607
I3020
tp5750
a(I4840
I3020
tp5751
a(I4840
I3260
tp5752
a(I4607
I3260
tp5753
aaasS'DSC07962.JPG'
p5754
(lp5755
(lp5756
(lp5757
(I4960
I987
tp5758
a(I5793
I987
tp5759
a(I5793
I1707
tp5760
a(I4960
I1707
tp5761
aa(lp5762
(I3887
I3413
tp5763
a(I4227
I3413
tp5764
a(I4227
I3713
tp5765
a(I3887
I3713
tp5766
aa(lp5767
(I2433
I3420
tp5768
a(I3313
I3420
tp5769
a(I3313
I3993
tp5770
a(I2433
I3993
tp5771
aa(lp5772
(I2667
I2833
tp5773
a(I3707
I2833
tp5774
a(I3707
I3587
tp5775
a(I2667
I3587
tp5776
aa(lp5777
(I100
I613
tp5778
a(I3187
I613
tp5779
a(I3187
I3313
tp5780
a(I100
I3313
tp5781
aaa(lp5782
(lp5783
(I173
I773
tp5784
a(I3053
I773
tp5785
a(I3053
I3240
tp5786
a(I173
I3240
tp5787
aa(lp5788
(I2800
I2820
tp5789
a(I3540
I2820
tp5790
a(I3540
I3433
tp5791
a(I2800
I3433
tp5792
aa(lp5793
(I2520
I3420
tp5794
a(I3113
I3420
tp5795
a(I3113
I3960
tp5796
a(I2520
I3960
tp5797
aa(lp5798
(I3867
I3473
tp5799
a(I4147
I3473
tp5800
a(I4147
I3673
tp5801
a(I3867
I3673
tp5802
aa(lp5803
(I5067
I1040
tp5804
a(I5827
I1040
tp5805
a(I5827
I1707
tp5806
a(I5067
I1707
tp5807
aaa(lp5808
(lp5809
(I5053
I993
tp5810
a(I5840
I993
tp5811
a(I5840
I1733
tp5812
a(I5053
I1733
tp5813
aa(lp5814
(I2360
I2913
tp5815
a(I4193
I2913
tp5816
a(I4193
I3993
tp5817
a(I2360
I3993
tp5818
aaasS'DSC08231.JPG'
p5819
(lp5820
(lp5821
(lp5822
(I1720
I1213
tp5823
a(I3827
I1213
tp5824
a(I3827
I2240
tp5825
a(I1720
I2240
tp5826
aaa(lp5827
(lp5828
(I1727
I1140
tp5829
a(I3467
I1140
tp5830
a(I3467
I2260
tp5831
a(I1727
I2260
tp5832
aaa(lp5833
(lp5834
(I2147
I1240
tp5835
a(I3013
I1240
tp5836
a(I3013
I2207
tp5837
a(I2147
I2207
tp5838
aaasS'DSC08016.JPG'
p5839
(lp5840
(lp5841
a(lp5842
a(lp5843
asS'DSC07832.JPG'
p5844
(lp5845
(lp5846
(lp5847
(I4527
I2353
tp5848
a(I5980
I2353
tp5849
a(I5980
I3993
tp5850
a(I4527
I3993
tp5851
aa(lp5852
(I5187
I20
tp5853
a(I5987
I20
tp5854
a(I5987
I827
tp5855
a(I5187
I827
tp5856
aa(lp5857
(I1133
I27
tp5858
a(I1753
I27
tp5859
a(I1753
I300
tp5860
a(I1133
I300
tp5861
aaa(lp5862
(lp5863
(I1207
I13
tp5864
a(I1700
I13
tp5865
a(I1700
I267
tp5866
a(I1207
I267
tp5867
aa(lp5868
(I1987
I1740
tp5869
a(I2020
I1740
tp5870
a(I2020
I1753
tp5871
a(I1987
I1753
tp5872
aa(lp5873
(I1993
I1760
tp5874
a(I2253
I1760
tp5875
a(I2253
I2000
tp5876
a(I1993
I2000
tp5877
aa(lp5878
(I3440
I1733
tp5879
a(I3587
I1733
tp5880
a(I3587
I1927
tp5881
a(I3440
I1927
tp5882
aa(lp5883
(I4233
I387
tp5884
a(I4467
I387
tp5885
a(I4467
I553
tp5886
a(I4233
I553
tp5887
aaa(lp5888
(lp5889
(I5200
I40
tp5890
a(I5913
I40
tp5891
a(I5913
I793
tp5892
a(I5200
I793
tp5893
aa(lp5894
(I1113
I-7
tp5895
a(I1820
I-7
tp5896
a(I1820
I333
tp5897
a(I1113
I333
tp5898
aa(lp5899
(I3307
I1647
tp5900
a(I3987
I1647
tp5901
a(I3987
I2187
tp5902
a(I3307
I2187
tp5903
aa(lp5904
(I1853
I1647
tp5905
a(I2300
I1647
tp5906
a(I2300
I2180
tp5907
a(I1853
I2180
tp5908
aa(lp5909
(I4120
I267
tp5910
a(I4493
I267
tp5911
a(I4493
I653
tp5912
a(I4120
I653
tp5913
aaasS'DSC08148.JPG'
p5914
(lp5915
(lp5916
(lp5917
(I7
I2700
tp5918
a(I1013
I2700
tp5919
a(I1013
I3987
tp5920
a(I7
I3987
tp5921
aa(lp5922
(I2980
I1093
tp5923
a(I3927
I1093
tp5924
a(I3927
I2487
tp5925
a(I2980
I2487
tp5926
aa(lp5927
(I4687
I1193
tp5928
a(I5393
I1193
tp5929
a(I5393
I2133
tp5930
a(I4687
I2133
tp5931
aa(lp5932
(I3773
I3373
tp5933
a(I4253
I3373
tp5934
a(I4253
I3793
tp5935
a(I3773
I3793
tp5936
aa(lp5937
(I4527
I3267
tp5938
a(I4913
I3267
tp5939
a(I4913
I3720
tp5940
a(I4527
I3720
tp5941
aaa(lp5942
(lp5943
(I0
I547
tp5944
a(I1293
I547
tp5945
a(I1293
I1820
tp5946
a(I0
I1820
tp5947
aa(lp5948
(I2233
I1127
tp5949
a(I4193
I1127
tp5950
a(I4193
I3287
tp5951
a(I2233
I3287
tp5952
aa(lp5953
(I4640
I1167
tp5954
a(I5413
I1167
tp5955
a(I5413
I2100
tp5956
a(I4640
I2100
tp5957
aa(lp5958
(I3787
I3347
tp5959
a(I4247
I3347
tp5960
a(I4247
I3860
tp5961
a(I3787
I3860
tp5962
aa(lp5963
(I4500
I3253
tp5964
a(I5040
I3253
tp5965
a(I5040
I3853
tp5966
a(I4500
I3853
tp5967
aa(lp5968
(I5293
I3527
tp5969
a(I5973
I3527
tp5970
a(I5973
I3973
tp5971
a(I5293
I3973
tp5972
aa(lp5973
(I13
I2667
tp5974
a(I1133
I2667
tp5975
a(I1133
I3980
tp5976
a(I13
I3980
tp5977
aaa(lp5978
(lp5979
(I2687
I927
tp5980
a(I4187
I927
tp5981
a(I4187
I2433
tp5982
a(I2687
I2433
tp5983
aa(lp5984
(I4607
I1207
tp5985
a(I5333
I1207
tp5986
a(I5333
I1960
tp5987
a(I4607
I1960
tp5988
aa(lp5989
(I0
I2607
tp5990
a(I913
I2607
tp5991
a(I913
I3967
tp5992
a(I0
I3967
tp5993
aa(lp5994
(I3827
I3447
tp5995
a(I4200
I3447
tp5996
a(I4200
I3760
tp5997
a(I3827
I3760
tp5998
aa(lp5999
(I4400
I3347
tp6000
a(I4993
I3347
tp6001
a(I4993
I3693
tp6002
a(I4400
I3693
tp6003
aa(lp6004
(I1453
I2540
tp6005
a(I4113
I2540
tp6006
a(I4113
I3480
tp6007
a(I1453
I3480
tp6008
aaasS'DSC07937.JPG'
p6009
(lp6010
(lp6011
(lp6012
(I5233
I7
tp6013
a(I5973
I7
tp6014
a(I5973
I900
tp6015
a(I5233
I900
tp6016
aa(lp6017
(I4540
I1133
tp6018
a(I5773
I1133
tp6019
a(I5773
I2607
tp6020
a(I4540
I2607
tp6021
aa(lp6022
(I5067
I2073
tp6023
a(I5967
I2073
tp6024
a(I5967
I3273
tp6025
a(I5067
I3273
tp6026
aa(lp6027
(I4407
I2933
tp6028
a(I5960
I2933
tp6029
a(I5960
I3960
tp6030
a(I4407
I3960
tp6031
aa(lp6032
(I1640
I3387
tp6033
a(I2527
I3387
tp6034
a(I2527
I3987
tp6035
a(I1640
I3987
tp6036
aa(lp6037
(I3040
I893
tp6038
a(I3940
I893
tp6039
a(I3940
I2193
tp6040
a(I3040
I2193
tp6041
aa(lp6042
(I440
I13
tp6043
a(I1767
I13
tp6044
a(I1767
I767
tp6045
a(I440
I767
tp6046
aa(lp6047
(I27
I20
tp6048
a(I380
I20
tp6049
a(I380
I613
tp6050
a(I27
I613
tp6051
aaa(lp6052
(lp6053
(I3027
I900
tp6054
a(I4040
I900
tp6055
a(I4040
I2353
tp6056
a(I3027
I2353
tp6057
aa(lp6058
(I4647
I7
tp6059
a(I5967
I7
tp6060
a(I5967
I3967
tp6061
a(I4647
I3967
tp6062
aa(lp6063
(I1627
I3347
tp6064
a(I2327
I3347
tp6065
a(I2327
I3987
tp6066
a(I1627
I3987
tp6067
aa(lp6068
(I20
I7
tp6069
a(I1813
I7
tp6070
a(I1813
I873
tp6071
a(I20
I873
tp6072
aaa(lp6073
(lp6074
(I27
I27
tp6075
a(I1807
I27
tp6076
a(I1807
I740
tp6077
a(I27
I740
tp6078
aa(lp6079
(I3100
I1073
tp6080
a(I3953
I1073
tp6081
a(I3953
I2220
tp6082
a(I3100
I2220
tp6083
aa(lp6084
(I3873
I1213
tp6085
a(I4200
I1213
tp6086
a(I4200
I1633
tp6087
a(I3873
I1633
tp6088
aa(lp6089
(I4487
I1260
tp6090
a(I5107
I1260
tp6091
a(I5107
I2687
tp6092
a(I4487
I2687
tp6093
aa(lp6094
(I4427
I3027
tp6095
a(I5100
I3027
tp6096
a(I5100
I3940
tp6097
a(I4427
I3940
tp6098
aa(lp6099
(I1707
I3480
tp6100
a(I2360
I3480
tp6101
a(I2360
I3940
tp6102
a(I1707
I3940
tp6103
aaasS'DSC08232.JPG'
p6104
(lp6105
(lp6106
(lp6107
(I13
I980
tp6108
a(I353
I980
tp6109
a(I353
I1313
tp6110
a(I13
I1313
tp6111
aa(lp6112
(I5147
I447
tp6113
a(I5507
I447
tp6114
a(I5507
I713
tp6115
a(I5147
I713
tp6116
aaa(lp6117
(lp6118
(I5173
I413
tp6119
a(I5527
I413
tp6120
a(I5527
I780
tp6121
a(I5173
I780
tp6122
aaa(lp6123
asS'DSC08230.JPG'
p6124
(lp6125
(lp6126
(lp6127
(I280
I1460
tp6128
a(I1080
I1460
tp6129
a(I1080
I2107
tp6130
a(I280
I2107
tp6131
aaa(lp6132
(lp6133
(I247
I1440
tp6134
a(I1180
I1440
tp6135
a(I1180
I2153
tp6136
a(I247
I2153
tp6137
aaa(lp6138
(lp6139
(I387
I1660
tp6140
a(I653
I1660
tp6141
a(I653
I1973
tp6142
a(I387
I1973
tp6143
aa(lp6144
(I680
I1633
tp6145
a(I993
I1633
tp6146
a(I993
I1913
tp6147
a(I680
I1913
tp6148
aaasS'DSC07828.JPG'
p6149
(lp6150
(lp6151
a(lp6152
(lp6153
(I3080
I0
tp6154
a(I3460
I0
tp6155
a(I3460
I147
tp6156
a(I3080
I147
tp6157
aa(lp6158
(I2620
I433
tp6159
a(I2933
I433
tp6160
a(I2933
I707
tp6161
a(I2620
I707
tp6162
aaa(lp6163
asS'DSC08122.JPG'
p6164
(lp6165
(lp6166
(lp6167
(I0
I1220
tp6168
a(I687
I1220
tp6169
a(I687
I2887
tp6170
a(I0
I2887
tp6171
aaa(lp6172
(lp6173
(I7
I1320
tp6174
a(I393
I1320
tp6175
a(I393
I3100
tp6176
a(I7
I3100
tp6177
aaa(lp6178
(lp6179
(I20
I7
tp6180
a(I980
I7
tp6181
a(I980
I707
tp6182
a(I20
I707
tp6183
aa(lp6184
(I-7
I747
tp6185
a(I-7
I747
tp6186
a(I-7
I3000
tp6187
a(I-7
I3000
tp6188
aa(lp6189
(I27
I773
tp6190
a(I640
I773
tp6191
a(I640
I2620
tp6192
a(I27
I2620
tp6193
aaasS'DSC07806.JPG'
p6194
(lp6195
(lp6196
(lp6197
(I2293
I7
tp6198
a(I2660
I7
tp6199
a(I2660
I253
tp6200
a(I2293
I253
tp6201
aa(lp6202
(I2920
I200
tp6203
a(I3240
I200
tp6204
a(I3240
I560
tp6205
a(I2920
I560
tp6206
aa(lp6207
(I0
I460
tp6208
a(I20
I460
tp6209
a(I20
I473
tp6210
a(I0
I473
tp6211
aa(lp6212
(I13
I453
tp6213
a(I27
I453
tp6214
a(I27
I467
tp6215
a(I13
I467
tp6216
aa(lp6217
(I27
I460
tp6218
a(I247
I460
tp6219
a(I247
I1233
tp6220
a(I27
I1233
tp6221
aa(lp6222
(I2220
I3320
tp6223
a(I2587
I3320
tp6224
a(I2587
I3613
tp6225
a(I2220
I3613
tp6226
aaa(lp6227
(lp6228
(I2133
I0
tp6229
a(I2653
I0
tp6230
a(I2653
I347
tp6231
a(I2133
I347
tp6232
aa(lp6233
(I2827
I147
tp6234
a(I3380
I147
tp6235
a(I3380
I807
tp6236
a(I2827
I807
tp6237
aa(lp6238
(I5353
I660
tp6239
a(I5967
I660
tp6240
a(I5967
I1833
tp6241
a(I5353
I1833
tp6242
aa(lp6243
(I2020
I3213
tp6244
a(I2593
I3213
tp6245
a(I2593
I3773
tp6246
a(I2020
I3773
tp6247
aa(lp6248
(I0
I300
tp6249
a(I213
I300
tp6250
a(I213
I1307
tp6251
a(I0
I1307
tp6252
aaa(lp6253
(lp6254
(I1960
I3213
tp6255
a(I2693
I3213
tp6256
a(I2693
I3853
tp6257
a(I1960
I3853
tp6258
aa(lp6259
(I2667
I173
tp6260
a(I3407
I173
tp6261
a(I3407
I813
tp6262
a(I2667
I813
tp6263
aaasS'DSC08091.JPG'
p6264
(lp6265
(lp6266
a(lp6267
a(lp6268
asS'DSC08115.JPG'
p6269
(lp6270
(lp6271
a(lp6272
a(lp6273
asS'DSC08037.JPG'
p6274
(lp6275
(lp6276
(lp6277
(I587
I13
tp6278
a(I3160
I13
tp6279
a(I3160
I787
tp6280
a(I587
I787
tp6281
aa(lp6282
(I2173
I280
tp6283
a(I3273
I280
tp6284
a(I3273
I1480
tp6285
a(I2173
I1480
tp6286
aa(lp6287
(I3327
I7
tp6288
a(I5713
I7
tp6289
a(I5713
I1793
tp6290
a(I3327
I1793
tp6291
aa(lp6292
(I4987
I3473
tp6293
a(I5647
I3473
tp6294
a(I5647
I3853
tp6295
a(I4987
I3853
tp6296
aa(lp6297
(I4747
I3800
tp6298
a(I5367
I3800
tp6299
a(I5367
I3993
tp6300
a(I4747
I3993
tp6301
aa(lp6302
(I5627
I467
tp6303
a(I5973
I467
tp6304
a(I5973
I2253
tp6305
a(I5627
I2253
tp6306
aaa(lp6307
(lp6308
(I13
I1287
tp6309
a(I173
I1287
tp6310
a(I173
I1880
tp6311
a(I13
I1880
tp6312
aa(lp6313
(I2407
I407
tp6314
a(I3280
I407
tp6315
a(I3280
I1207
tp6316
a(I2407
I1207
tp6317
aa(lp6318
(I3480
I27
tp6319
a(I5107
I27
tp6320
a(I5107
I1533
tp6321
a(I3480
I1533
tp6322
aa(lp6323
(I913
I13
tp6324
a(I2867
I13
tp6325
a(I2867
I540
tp6326
a(I913
I540
tp6327
aa(lp6328
(I3427
I1960
tp6329
a(I3680
I1960
tp6330
a(I3680
I2220
tp6331
a(I3427
I2220
tp6332
aaa(lp6333
(lp6334
(I847
I20
tp6335
a(I3167
I20
tp6336
a(I3167
I1400
tp6337
a(I847
I1400
tp6338
aa(lp6339
(I3333
I47
tp6340
a(I5433
I47
tp6341
a(I5433
I1640
tp6342
a(I3333
I1640
tp6343
aa(lp6344
(I5613
I913
tp6345
a(I5993
I913
tp6346
a(I5993
I2247
tp6347
a(I5613
I2247
tp6348
aa(lp6349
(I4880
I3420
tp6350
a(I5500
I3420
tp6351
a(I5500
I3993
tp6352
a(I4880
I3993
tp6353
aa(lp6354
(I-7
I1260
tp6355
a(I160
I1260
tp6356
a(I160
I2113
tp6357
a(I-7
I2113
tp6358
aaasS'DSC07975.JPG'
p6359
(lp6360
(lp6361
(lp6362
(I4320
I-7
tp6363
a(I5973
I-7
tp6364
a(I5973
I740
tp6365
a(I4320
I740
tp6366
aaa(lp6367
(lp6368
(I173
I773
tp6369
a(I193
I773
tp6370
a(I193
I773
tp6371
a(I173
I773
tp6372
aa(lp6373
(I180
I773
tp6374
a(I980
I773
tp6375
a(I980
I1353
tp6376
a(I180
I1353
tp6377
aaa(lp6378
(lp6379
(I4080
I13
tp6380
a(I5973
I13
tp6381
a(I5973
I933
tp6382
a(I4080
I933
tp6383
aaasS'DSC08248.JPG'
p6384
(lp6385
(lp6386
(lp6387
(I2167
I73
tp6388
a(I3487
I73
tp6389
a(I3487
I1867
tp6390
a(I2167
I1867
tp6391
aa(lp6392
(I3627
I7
tp6393
a(I5967
I7
tp6394
a(I5967
I1347
tp6395
a(I3627
I1347
tp6396
aa(lp6397
(I3553
I1407
tp6398
a(I5967
I1407
tp6399
a(I5967
I3940
tp6400
a(I3553
I3940
tp6401
aa(lp6402
(I13
I2253
tp6403
a(I453
I2253
tp6404
a(I453
I3440
tp6405
a(I13
I3440
tp6406
aaa(lp6407
(lp6408
(I2620
I320
tp6409
a(I2633
I320
tp6410
a(I2633
I320
tp6411
a(I2620
I320
tp6412
aa(lp6413
(I2620
I333
tp6414
a(I3280
I333
tp6415
a(I3280
I1000
tp6416
a(I2620
I1000
tp6417
aa(lp6418
(I2593
I1067
tp6419
a(I3220
I1067
tp6420
a(I3220
I1640
tp6421
a(I2593
I1640
tp6422
aa(lp6423
(I4187
I273
tp6424
a(I4893
I273
tp6425
a(I4893
I1273
tp6426
a(I4187
I1273
tp6427
aa(lp6428
(I7
I2600
tp6429
a(I333
I2600
tp6430
a(I333
I3213
tp6431
a(I7
I3213
tp6432
aa(lp6433
(I420
I3567
tp6434
a(I753
I3567
tp6435
a(I753
I3893
tp6436
a(I420
I3893
tp6437
aa(lp6438
(I3667
I2487
tp6439
a(I4673
I2487
tp6440
a(I4673
I3487
tp6441
a(I3667
I3487
tp6442
aaa(lp6443
(lp6444
(I13
I1593
tp6445
a(I853
I1593
tp6446
a(I853
I3527
tp6447
a(I13
I3527
tp6448
aa(lp6449
(I173
I3453
tp6450
a(I1193
I3453
tp6451
a(I1193
I3993
tp6452
a(I173
I3993
tp6453
aa(lp6454
(I2400
I2153
tp6455
a(I5987
I2153
tp6456
a(I5987
I3993
tp6457
a(I2400
I3993
tp6458
aa(lp6459
(I1833
I7
tp6460
a(I3753
I7
tp6461
a(I3753
I2060
tp6462
a(I1833
I2060
tp6463
aa(lp6464
(I3427
I13
tp6465
a(I5987
I13
tp6466
a(I5987
I1727
tp6467
a(I3427
I1727
tp6468
aaasS'DSC07912.JPG'
p6469
(lp6470
(lp6471
(lp6472
(I733
I907
tp6473
a(I1560
I907
tp6474
a(I1560
I1873
tp6475
a(I733
I1873
tp6476
aa(lp6477
(I2827
I1400
tp6478
a(I3627
I1400
tp6479
a(I3627
I2607
tp6480
a(I2827
I2607
tp6481
aa(lp6482
(I4093
I493
tp6483
a(I4513
I493
tp6484
a(I4513
I1080
tp6485
a(I4093
I1080
tp6486
aa(lp6487
(I4947
I307
tp6488
a(I5220
I307
tp6489
a(I5220
I713
tp6490
a(I4947
I713
tp6491
aaa(lp6492
(lp6493
(I733
I913
tp6494
a(I1500
I913
tp6495
a(I1500
I1833
tp6496
a(I733
I1833
tp6497
aa(lp6498
(I2453
I1480
tp6499
a(I3680
I1480
tp6500
a(I3680
I2527
tp6501
a(I2453
I2527
tp6502
aa(lp6503
(I3920
I500
tp6504
a(I4593
I500
tp6505
a(I4593
I1080
tp6506
a(I3920
I1080
tp6507
aa(lp6508
(I2633
I473
tp6509
a(I3027
I473
tp6510
a(I3027
I987
tp6511
a(I2633
I987
tp6512
aa(lp6513
(I4933
I307
tp6514
a(I5247
I307
tp6515
a(I5247
I773
tp6516
a(I4933
I773
tp6517
aaa(lp6518
(lp6519
(I960
I1047
tp6520
a(I1447
I1047
tp6521
a(I1447
I1733
tp6522
a(I960
I1733
tp6523
aa(lp6524
(I2527
I1827
tp6525
a(I2660
I1827
tp6526
a(I2660
I2040
tp6527
a(I2527
I2040
tp6528
aa(lp6529
(I4160
I633
tp6530
a(I4387
I633
tp6531
a(I4387
I980
tp6532
a(I4160
I980
tp6533
aa(lp6534
(I2760
I593
tp6535
a(I2907
I593
tp6536
a(I2907
I807
tp6537
a(I2760
I807
tp6538
aa(lp6539
(I2820
I1767
tp6540
a(I2993
I1767
tp6541
a(I2993
I2000
tp6542
a(I2820
I2000
tp6543
aa(lp6544
(I3053
I1627
tp6545
a(I3627
I1627
tp6546
a(I3627
I2353
tp6547
a(I3053
I2353
tp6548
aaasS'DSC08145.JPG'
p6549
(lp6550
(lp6551
(lp6552
(I-7
I7
tp6553
a(I800
I7
tp6554
a(I800
I1713
tp6555
a(I-7
I1713
tp6556
aa(lp6557
(I847
I87
tp6558
a(I3147
I87
tp6559
a(I3147
I2133
tp6560
a(I847
I2133
tp6561
aa(lp6562
(I2467
I7
tp6563
a(I3100
I7
tp6564
a(I3100
I307
tp6565
a(I2467
I307
tp6566
aa(lp6567
(I3727
I-7
tp6568
a(I4933
I-7
tp6569
a(I4933
I973
tp6570
a(I3727
I973
tp6571
aa(lp6572
(I4487
I-7
tp6573
a(I5980
I-7
tp6574
a(I5980
I2100
tp6575
a(I4487
I2100
tp6576
aa(lp6577
(I5040
I3020
tp6578
a(I5993
I3020
tp6579
a(I5993
I3953
tp6580
a(I5040
I3953
tp6581
aa(lp6582
(I13
I1100
tp6583
a(I2200
I1100
tp6584
a(I2200
I3987
tp6585
a(I13
I3987
tp6586
aaa(lp6587
(lp6588
(I-7
I7
tp6589
a(I533
I7
tp6590
a(I533
I1147
tp6591
a(I-7
I1147
tp6592
aa(lp6593
(I1040
I400
tp6594
a(I2880
I400
tp6595
a(I2880
I2000
tp6596
a(I1040
I2000
tp6597
aa(lp6598
(I20
I1207
tp6599
a(I2093
I1207
tp6600
a(I2093
I3967
tp6601
a(I20
I3967
tp6602
aa(lp6603
(I3913
I0
tp6604
a(I5973
I0
tp6605
a(I5973
I593
tp6606
a(I3913
I593
tp6607
aa(lp6608
(I4993
I653
tp6609
a(I5960
I653
tp6610
a(I5960
I2000
tp6611
a(I4993
I2000
tp6612
aaasS'DSC07960.JPG'
p6613
(lp6614
(lp6615
(lp6616
(I4833
I7
tp6617
a(I5600
I7
tp6618
a(I5600
I400
tp6619
a(I4833
I400
tp6620
aa(lp6621
(I4627
I867
tp6622
a(I5020
I867
tp6623
a(I5020
I1280
tp6624
a(I4627
I1280
tp6625
aaa(lp6626
(lp6627
(I4713
I933
tp6628
a(I4973
I933
tp6629
a(I4973
I1213
tp6630
a(I4713
I1213
tp6631
aa(lp6632
(I-7
I3793
tp6633
a(I227
I3793
tp6634
a(I227
I3920
tp6635
a(I-7
I3920
tp6636
aaa(lp6637
asS'DSC08119.JPG'
p6638
(lp6639
(lp6640
(lp6641
(I747
I13
tp6642
a(I2200
I13
tp6643
a(I2200
I280
tp6644
a(I747
I280
tp6645
aa(lp6646
(I3360
I320
tp6647
a(I3620
I320
tp6648
a(I3620
I700
tp6649
a(I3360
I700
tp6650
aa(lp6651
(I2980
I567
tp6652
a(I3333
I567
tp6653
a(I3333
I1433
tp6654
a(I2980
I1433
tp6655
aa(lp6656
(I2487
I2327
tp6657
a(I3660
I2327
tp6658
a(I3660
I3253
tp6659
a(I2487
I3253
tp6660
aa(lp6661
(I1407
I1773
tp6662
a(I1600
I1773
tp6663
a(I1600
I1940
tp6664
a(I1407
I1940
tp6665
aa(lp6666
(I1407
I1513
tp6667
a(I1673
I1513
tp6668
a(I1673
I1700
tp6669
a(I1407
I1700
tp6670
aa(lp6671
(I1800
I1420
tp6672
a(I1940
I1420
tp6673
a(I1940
I1700
tp6674
a(I1800
I1700
tp6675
aa(lp6676
(I87
I3833
tp6677
a(I420
I3833
tp6678
a(I420
I3980
tp6679
a(I87
I3980
tp6680
aaa(lp6681
(lp6682
(I180
I0
tp6683
a(I3533
I0
tp6684
a(I3533
I613
tp6685
a(I180
I613
tp6686
aa(lp6687
(I1293
I1680
tp6688
a(I1707
I1680
tp6689
a(I1707
I2120
tp6690
a(I1293
I2120
tp6691
aa(lp6692
(I1280
I1347
tp6693
a(I2080
I1347
tp6694
a(I2080
I1740
tp6695
a(I1280
I1740
tp6696
aa(lp6697
(I2633
I7
tp6698
a(I3973
I7
tp6699
a(I3973
I1840
tp6700
a(I2633
I1840
tp6701
aa(lp6702
(I5600
I253
tp6703
a(I5993
I253
tp6704
a(I5993
I907
tp6705
a(I5600
I907
tp6706
aa(lp6707
(I2067
I1807
tp6708
a(I3900
I1807
tp6709
a(I3900
I3400
tp6710
a(I2067
I3400
tp6711
aa(lp6712
(I-7
I3647
tp6713
a(I553
I3647
tp6714
a(I553
I3993
tp6715
a(I-7
I3993
tp6716
aaa(lp6717
(lp6718
(I1327
I1340
tp6719
a(I1747
I1340
tp6720
a(I1747
I2100
tp6721
a(I1327
I2100
tp6722
aa(lp6723
(I2267
I2040
tp6724
a(I3820
I2040
tp6725
a(I3820
I3767
tp6726
a(I2267
I3767
tp6727
aa(lp6728
(I687
I13
tp6729
a(I4000
I13
tp6730
a(I4000
I1753
tp6731
a(I687
I1753
tp6732
aa(lp6733
(I20
I3780
tp6734
a(I520
I3780
tp6735
a(I520
I3993
tp6736
a(I20
I3993
tp6737
aaasS'DSC07939.JPG'
p6738
(lp6739
(lp6740
(lp6741
(I40
I7
tp6742
a(I1147
I7
tp6743
a(I1147
I447
tp6744
a(I40
I447
tp6745
aa(lp6746
(I80
I700
tp6747
a(I667
I700
tp6748
a(I667
I1253
tp6749
a(I80
I1253
tp6750
aa(lp6751
(I133
I2093
tp6752
a(I1440
I2093
tp6753
a(I1440
I3060
tp6754
a(I133
I3060
tp6755
aa(lp6756
(I1667
I1747
tp6757
a(I3187
I1747
tp6758
a(I3187
I2927
tp6759
a(I1667
I2927
tp6760
aa(lp6761
(I1520
I2947
tp6762
a(I2827
I2947
tp6763
a(I2827
I3987
tp6764
a(I1520
I3987
tp6765
aa(lp6766
(I1247
I7
tp6767
a(I3127
I7
tp6768
a(I3127
I1673
tp6769
a(I1247
I1673
tp6770
aa(lp6771
(I4273
I1220
tp6772
a(I5913
I1220
tp6773
a(I5913
I2727
tp6774
a(I4273
I2727
tp6775
aa(lp6776
(I4800
I573
tp6777
a(I5980
I573
tp6778
a(I5980
I1173
tp6779
a(I4800
I1173
tp6780
aa(lp6781
(I3707
I27
tp6782
a(I5987
I27
tp6783
a(I5987
I753
tp6784
a(I3707
I753
tp6785
aaa(lp6786
(lp6787
(I0
I7
tp6788
a(I1320
I7
tp6789
a(I1320
I500
tp6790
a(I0
I500
tp6791
aa(lp6792
(I920
I0
tp6793
a(I3340
I0
tp6794
a(I3340
I1727
tp6795
a(I920
I1727
tp6796
aa(lp6797
(I3413
I0
tp6798
a(I5993
I0
tp6799
a(I5993
I2787
tp6800
a(I3413
I2787
tp6801
aa(lp6802
(I433
I947
tp6803
a(I433
I947
tp6804
a(I433
I947
tp6805
a(I433
I947
tp6806
aa(lp6807
(I20
I647
tp6808
a(I793
I647
tp6809
a(I793
I1267
tp6810
a(I20
I1267
tp6811
aa(lp6812
(I447
I1313
tp6813
a(I593
I1313
tp6814
a(I593
I1473
tp6815
a(I447
I1473
tp6816
aa(lp6817
(I80
I1880
tp6818
a(I1607
I1880
tp6819
a(I1607
I3267
tp6820
a(I80
I3267
tp6821
aa(lp6822
(I7
I3340
tp6823
a(I447
I3340
tp6824
a(I447
I3987
tp6825
a(I7
I3987
tp6826
aa(lp6827
(I1633
I1560
tp6828
a(I3333
I1560
tp6829
a(I3333
I3013
tp6830
a(I1633
I3013
tp6831
aa(lp6832
(I1493
I2740
tp6833
a(I2887
I2740
tp6834
a(I2887
I3980
tp6835
a(I1493
I3980
tp6836
aaa(lp6837
(lp6838
(I1093
I47
tp6839
a(I3033
I47
tp6840
a(I3033
I1527
tp6841
a(I1093
I1527
tp6842
aa(lp6843
(I3640
I47
tp6844
a(I5980
I47
tp6845
a(I5980
I2740
tp6846
a(I3640
I2740
tp6847
aa(lp6848
(I1320
I1613
tp6849
a(I3153
I1613
tp6850
a(I3153
I3980
tp6851
a(I1320
I3980
tp6852
aa(lp6853
(I100
I1980
tp6854
a(I1227
I1980
tp6855
a(I1227
I3200
tp6856
a(I100
I3200
tp6857
aaasS'DSC08236.JPG'
p6858
(lp6859
(lp6860
a(lp6861
a(lp6862
asS'DSC07913.JPG'
p6863
(lp6864
(lp6865
(lp6866
(I3720
I2313
tp6867
a(I4453
I2313
tp6868
a(I4453
I2967
tp6869
a(I3720
I2967
tp6870
aa(lp6871
(I3747
I3100
tp6872
a(I4147
I3100
tp6873
a(I4147
I3487
tp6874
a(I3747
I3487
tp6875
aa(lp6876
(I3147
I2513
tp6877
a(I3380
I2513
tp6878
a(I3380
I2793
tp6879
a(I3147
I2793
tp6880
aa(lp6881
(I3700
I1660
tp6882
a(I3980
I1660
tp6883
a(I3980
I1953
tp6884
a(I3700
I1953
tp6885
aa(lp6886
(I2567
I3713
tp6887
a(I2887
I3713
tp6888
a(I2887
I3953
tp6889
a(I2567
I3953
tp6890
aa(lp6891
(I2680
I3347
tp6892
a(I2980
I3347
tp6893
a(I2980
I3573
tp6894
a(I2680
I3573
tp6895
aaa(lp6896
(lp6897
(I3773
I1660
tp6898
a(I3947
I1660
tp6899
a(I3947
I1887
tp6900
a(I3773
I1887
tp6901
aa(lp6902
(I3200
I2553
tp6903
a(I3373
I2553
tp6904
a(I3373
I2720
tp6905
a(I3200
I2720
tp6906
aa(lp6907
(I2660
I3733
tp6908
a(I2867
I3733
tp6909
a(I2867
I3953
tp6910
a(I2660
I3953
tp6911
aa(lp6912
(I2760
I3393
tp6913
a(I2933
I3393
tp6914
a(I2933
I3527
tp6915
a(I2760
I3527
tp6916
aa(lp6917
(I3807
I3180
tp6918
a(I4147
I3180
tp6919
a(I4147
I3493
tp6920
a(I3807
I3493
tp6921
aa(lp6922
(I3800
I2373
tp6923
a(I4107
I2373
tp6924
a(I4107
I2680
tp6925
a(I3800
I2680
tp6926
aa(lp6927
(I4100
I2667
tp6928
a(I4333
I2667
tp6929
a(I4333
I2940
tp6930
a(I4100
I2940
tp6931
aa(lp6932
(I4387
I2753
tp6933
a(I4533
I2753
tp6934
a(I4533
I2927
tp6935
a(I4387
I2927
tp6936
aaa(lp6937
(lp6938
(I3640
I1587
tp6939
a(I4000
I1587
tp6940
a(I4000
I1967
tp6941
a(I3640
I1967
tp6942
aa(lp6943
(I3127
I2480
tp6944
a(I3407
I2480
tp6945
a(I3407
I2780
tp6946
a(I3127
I2780
tp6947
aa(lp6948
(I3740
I2307
tp6949
a(I4207
I2307
tp6950
a(I4207
I2660
tp6951
a(I3740
I2660
tp6952
aa(lp6953
(I4040
I2680
tp6954
a(I4373
I2680
tp6955
a(I4373
I2987
tp6956
a(I4040
I2987
tp6957
aa(lp6958
(I3687
I3127
tp6959
a(I4200
I3127
tp6960
a(I4200
I3573
tp6961
a(I3687
I3573
tp6962
aa(lp6963
(I2687
I3313
tp6964
a(I2987
I3313
tp6965
a(I2987
I3627
tp6966
a(I2687
I3627
tp6967
aaasS'DSC08245.JPG'
p6968
(lp6969
(lp6970
a(lp6971
a(lp6972
asS'DSC08140.JPG'
p6973
(lp6974
(lp6975
a(lp6976
a(lp6977
asS'DSC08249.JPG'
p6978
(lp6979
(lp6980
(lp6981
(I3707
I0
tp6982
a(I5927
I0
tp6983
a(I5927
I1140
tp6984
a(I3707
I1140
tp6985
aa(lp6986
(I2520
I2920
tp6987
a(I4307
I2920
tp6988
a(I4307
I3947
tp6989
a(I2520
I3947
tp6990
aaa(lp6991
(lp6992
(I260
I33
tp6993
a(I1453
I33
tp6994
a(I1453
I607
tp6995
a(I260
I607
tp6996
aa(lp6997
(I3813
I67
tp6998
a(I4600
I67
tp6999
a(I4600
I707
tp7000
a(I3813
I707
tp7001
aa(lp7002
(I3033
I3153
tp7003
a(I4093
I3153
tp7004
a(I4093
I3813
tp7005
a(I3033
I3813
tp7006
aaa(lp7007
(lp7008
(I5153
I-7
tp7009
a(I5980
I-7
tp7010
a(I5980
I1260
tp7011
a(I5153
I1260
tp7012
aa(lp7013
(I3127
I20
tp7014
a(I5927
I20
tp7015
a(I5927
I1587
tp7016
a(I3127
I1587
tp7017
aa(lp7018
(I0
I7
tp7019
a(I1547
I7
tp7020
a(I1547
I953
tp7021
a(I0
I953
tp7022
aa(lp7023
(I2667
I2607
tp7024
a(I4520
I2607
tp7025
a(I4520
I3993
tp7026
a(I2667
I3993
tp7027
aa(lp7028
(I4973
I3167
tp7029
a(I5980
I3167
tp7030
a(I5980
I3987
tp7031
a(I4973
I3987
tp7032
aaasS'DSC08022.JPG'
p7033
(lp7034
(lp7035
a(lp7036
a(lp7037
asS'DSC08240.JPG'
p7038
(lp7039
(lp7040
(lp7041
(I2613
I3447
tp7042
a(I4240
I3447
tp7043
a(I4240
I3947
tp7044
a(I2613
I3947
tp7045
aa(lp7046
(I4833
I3033
tp7047
a(I5973
I3033
tp7048
a(I5973
I3947
tp7049
a(I4833
I3947
tp7050
aaa(lp7051
(lp7052
(I1647
I3307
tp7053
a(I2693
I3307
tp7054
a(I2693
I3973
tp7055
a(I1647
I3973
tp7056
aa(lp7057
(I2847
I3167
tp7058
a(I4367
I3167
tp7059
a(I4367
I3987
tp7060
a(I2847
I3987
tp7061
aa(lp7062
(I4533
I2807
tp7063
a(I5987
I2807
tp7064
a(I5987
I3993
tp7065
a(I4533
I3993
tp7066
aaa(lp7067
(lp7068
(I5960
I2853
tp7069
a(I5960
I2853
tp7070
a(I5960
I2853
tp7071
a(I5960
I2853
tp7072
aa(lp7073
(I4800
I2853
tp7074
a(I5960
I2853
tp7075
a(I5960
I4000
tp7076
a(I4800
I4000
tp7077
aa(lp7078
(I3013
I3273
tp7079
a(I4373
I3273
tp7080
a(I4373
I3980
tp7081
a(I3013
I3980
tp7082
aa(lp7083
(I1527
I3380
tp7084
a(I2400
I3380
tp7085
a(I2400
I4000
tp7086
a(I1527
I4000
tp7087
aaasS'DSC08251.JPG'
p7088
(lp7089
(lp7090
(lp7091
(I153
I33
tp7092
a(I2567
I33
tp7093
a(I2567
I880
tp7094
a(I153
I880
tp7095
aa(lp7096
(I3113
I13
tp7097
a(I5960
I13
tp7098
a(I5960
I2147
tp7099
a(I3113
I2147
tp7100
aaa(lp7101
(lp7102
(I587
I7
tp7103
a(I1360
I7
tp7104
a(I1360
I667
tp7105
a(I587
I667
tp7106
aa(lp7107
(I3547
I13
tp7108
a(I4667
I13
tp7109
a(I4667
I1220
tp7110
a(I3547
I1220
tp7111
aaa(lp7112
(lp7113
(I3127
I7
tp7114
a(I5973
I7
tp7115
a(I5973
I2873
tp7116
a(I3127
I2873
tp7117
aa(lp7118
(I0
I-7
tp7119
a(I2253
I-7
tp7120
a(I2253
I1607
tp7121
a(I0
I1607
tp7122
aaasS'DSC07935.JPG'
p7123
(lp7124
(lp7125
(lp7126
(I4627
I7
tp7127
a(I5973
I7
tp7128
a(I5973
I780
tp7129
a(I4627
I780
tp7130
aa(lp7131
(I5453
I933
tp7132
a(I5980
I933
tp7133
a(I5980
I1913
tp7134
a(I5453
I1913
tp7135
aa(lp7136
(I2420
I-7
tp7137
a(I3753
I-7
tp7138
a(I3753
I333
tp7139
a(I2420
I333
tp7140
aa(lp7141
(I20
I0
tp7142
a(I713
I0
tp7143
a(I713
I240
tp7144
a(I20
I240
tp7145
aaa(lp7146
(lp7147
(I4467
I7
tp7148
a(I4467
I7
tp7149
a(I4467
I13
tp7150
a(I4467
I13
tp7151
aa(lp7152
(I4453
I7
tp7153
a(I5947
I7
tp7154
a(I5947
I913
tp7155
a(I4453
I913
tp7156
aa(lp7157
(I5340
I907
tp7158
a(I5973
I907
tp7159
a(I5973
I1900
tp7160
a(I5340
I1900
tp7161
aa(lp7162
(I1853
I313
tp7163
a(I2260
I313
tp7164
a(I2260
I633
tp7165
a(I1853
I633
tp7166
aa(lp7167
(I2387
I13
tp7168
a(I3580
I13
tp7169
a(I3580
I220
tp7170
a(I2387
I220
tp7171
aaa(lp7172
(lp7173
(I2633
I7
tp7174
a(I3440
I7
tp7175
a(I3440
I180
tp7176
a(I2633
I180
tp7177
aa(lp7178
(I3380
I893
tp7179
a(I3767
I893
tp7180
a(I3767
I1233
tp7181
a(I3380
I1233
tp7182
aa(lp7183
(I1940
I340
tp7184
a(I2247
I340
tp7185
a(I2247
I587
tp7186
a(I1940
I587
tp7187
aa(lp7188
(I1073
I600
tp7189
a(I1333
I600
tp7190
a(I1333
I847
tp7191
a(I1073
I847
tp7192
aa(lp7193
(I3053
I3847
tp7194
a(I3233
I3847
tp7195
a(I3233
I3993
tp7196
a(I3053
I3993
tp7197
aa(lp7198
(I113
I0
tp7199
a(I553
I0
tp7200
a(I553
I160
tp7201
a(I113
I160
tp7202
aaasS'DSC08127.JPG'
p7203
(lp7204
(lp7205
a(lp7206
a(lp7207
asS'DSC07821.JPG'
p7208
(lp7209
(lp7210
(lp7211
(I173
I780
tp7212
a(I667
I780
tp7213
a(I667
I1147
tp7214
a(I173
I1147
tp7215
aa(lp7216
(I0
I1073
tp7217
a(I833
I1073
tp7218
a(I833
I1873
tp7219
a(I0
I1873
tp7220
aa(lp7221
(I860
I1673
tp7222
a(I2360
I1673
tp7223
a(I2360
I3073
tp7224
a(I860
I3073
tp7225
aa(lp7226
(I5020
I3420
tp7227
a(I5500
I3420
tp7228
a(I5500
I3987
tp7229
a(I5020
I3987
tp7230
aa(lp7231
(I3520
I1953
tp7232
a(I3900
I1953
tp7233
a(I3900
I2307
tp7234
a(I3520
I2307
tp7235
aa(lp7236
(I3647
I1787
tp7237
a(I4040
I1787
tp7238
a(I4040
I2107
tp7239
a(I3647
I2107
tp7240
aa(lp7241
(I4180
I1287
tp7242
a(I4820
I1287
tp7243
a(I4820
I1820
tp7244
a(I4180
I1820
tp7245
aa(lp7246
(I2913
I3047
tp7247
a(I3307
I3047
tp7248
a(I3307
I3313
tp7249
a(I2913
I3313
tp7250
aa(lp7251
(I3333
I3040
tp7252
a(I3580
I3040
tp7253
a(I3580
I3307
tp7254
a(I3333
I3307
tp7255
aa(lp7256
(I3307
I3753
tp7257
a(I3653
I3753
tp7258
a(I3653
I3980
tp7259
a(I3307
I3980
tp7260
aa(lp7261
(I1247
I3347
tp7262
a(I1547
I3347
tp7263
a(I1547
I3647
tp7264
a(I1247
I3647
tp7265
aaa(lp7266
(lp7267
(I200
I887
tp7268
a(I613
I887
tp7269
a(I613
I1760
tp7270
a(I200
I1760
tp7271
aa(lp7272
(I4380
I1307
tp7273
a(I4793
I1307
tp7274
a(I4793
I1753
tp7275
a(I4380
I1753
tp7276
aa(lp7277
(I3713
I1760
tp7278
a(I3913
I1760
tp7279
a(I3913
I2247
tp7280
a(I3713
I2247
tp7281
aaa(lp7282
(lp7283
(I47
I787
tp7284
a(I953
I787
tp7285
a(I953
I1913
tp7286
a(I47
I1913
tp7287
aa(lp7288
(I1027
I1633
tp7289
a(I2300
I1633
tp7290
a(I2300
I3193
tp7291
a(I1027
I3193
tp7292
aa(lp7293
(I4233
I1267
tp7294
a(I4853
I1267
tp7295
a(I4853
I1847
tp7296
a(I4233
I1847
tp7297
aa(lp7298
(I3560
I1740
tp7299
a(I4027
I1740
tp7300
a(I4027
I2313
tp7301
a(I3560
I2313
tp7302
aa(lp7303
(I1240
I3353
tp7304
a(I1627
I3353
tp7305
a(I1627
I3733
tp7306
a(I1240
I3733
tp7307
aaasS'DSC08130.JPG'
p7308
(lp7309
(lp7310
(lp7311
(I5673
I1453
tp7312
a(I5980
I1453
tp7313
a(I5980
I2080
tp7314
a(I5673
I2080
tp7315
aaa(lp7316
(lp7317
(I853
I947
tp7318
a(I1253
I947
tp7319
a(I1253
I1287
tp7320
a(I853
I1287
tp7321
aaa(lp7322
(lp7323
(I893
I927
tp7324
a(I1147
I927
tp7325
a(I1147
I1253
tp7326
a(I893
I1253
tp7327
aa(lp7328
(I5633
I1187
tp7329
a(I5980
I1187
tp7330
a(I5980
I2393
tp7331
a(I5633
I2393
tp7332
aaasS'DSC08114.JPG'
p7333
(lp7334
(lp7335
(lp7336
(I4027
I913
tp7337
a(I4760
I913
tp7338
a(I4760
I1853
tp7339
a(I4027
I1853
tp7340
aaa(lp7341
(lp7342
(I4060
I800
tp7343
a(I4893
I800
tp7344
a(I4893
I1893
tp7345
a(I4060
I1893
tp7346
aa(lp7347
(I93
I1973
tp7348
a(I333
I1973
tp7349
a(I333
I2580
tp7350
a(I93
I2580
tp7351
aaa(lp7352
(lp7353
(I13
I1000
tp7354
a(I233
I1000
tp7355
a(I233
I2073
tp7356
a(I13
I2073
tp7357
aa(lp7358
(I4240
I1107
tp7359
a(I4800
I1107
tp7360
a(I4800
I1800
tp7361
a(I4240
I1800
tp7362
aaasS'DSC08134.JPG'
p7363
(lp7364
(lp7365
(lp7366
(I13
I1253
tp7367
a(I967
I1253
tp7368
a(I967
I3980
tp7369
a(I13
I3980
tp7370
aa(lp7371
(I1267
I60
tp7372
a(I5200
I60
tp7373
a(I5200
I3987
tp7374
a(I1267
I3987
tp7375
aa(lp7376
(I5247
I433
tp7377
a(I5960
I433
tp7378
a(I5960
I1747
tp7379
a(I5247
I1747
tp7380
aa(lp7381
(I5353
I2033
tp7382
a(I5973
I2033
tp7383
a(I5973
I3680
tp7384
a(I5353
I3680
tp7385
aaa(lp7386
(lp7387
(I1660
I213
tp7388
a(I2887
I213
tp7389
a(I2887
I1280
tp7390
a(I1660
I1280
tp7391
aa(lp7392
(I7
I1527
tp7393
a(I1253
I1527
tp7394
a(I1253
I3887
tp7395
a(I7
I3887
tp7396
aa(lp7397
(I3793
I1687
tp7398
a(I4800
I1687
tp7399
a(I4800
I2513
tp7400
a(I3793
I2513
tp7401
aa(lp7402
(I1913
I2213
tp7403
a(I3087
I2213
tp7404
a(I3087
I3300
tp7405
a(I1913
I3300
tp7406
aa(lp7407
(I3193
I2580
tp7408
a(I5080
I2580
tp7409
a(I5080
I3960
tp7410
a(I3193
I3960
tp7411
aa(lp7412
(I2373
I3327
tp7413
a(I3187
I3327
tp7414
a(I3187
I3973
tp7415
a(I2373
I3973
tp7416
aaasS'DSC07934.JPG'
p7417
(lp7418
(lp7419
(lp7420
(I3033
I1213
tp7421
a(I5060
I1213
tp7422
a(I5060
I3207
tp7423
a(I3033
I3207
tp7424
aa(lp7425
(I2973
I933
tp7426
a(I3260
I933
tp7427
a(I3260
I1187
tp7428
a(I2973
I1187
tp7429
aa(lp7430
(I3260
I547
tp7431
a(I4107
I547
tp7432
a(I4107
I933
tp7433
a(I3260
I933
tp7434
aa(lp7435
(I4513
I13
tp7436
a(I4813
I13
tp7437
a(I4813
I200
tp7438
a(I4513
I200
tp7439
aa(lp7440
(I13
I1260
tp7441
a(I1800
I1260
tp7442
a(I1800
I2860
tp7443
a(I13
I2860
tp7444
aa(lp7445
(I7
I2860
tp7446
a(I1167
I2860
tp7447
a(I1167
I3987
tp7448
a(I7
I3987
tp7449
aa(lp7450
(I1887
I2920
tp7451
a(I2680
I2920
tp7452
a(I2680
I3940
tp7453
a(I1887
I3940
tp7454
aa(lp7455
(I4667
I2707
tp7456
a(I5900
I2707
tp7457
a(I5900
I3447
tp7458
a(I4667
I3447
tp7459
aaa(lp7460
(lp7461
(I413
I1480
tp7462
a(I1747
I1480
tp7463
a(I1747
I2800
tp7464
a(I413
I2800
tp7465
aa(lp7466
(I7
I1667
tp7467
a(I447
I1667
tp7468
a(I447
I2873
tp7469
a(I7
I2873
tp7470
aa(lp7471
(I27
I2900
tp7472
a(I867
I2900
tp7473
a(I867
I3933
tp7474
a(I27
I3933
tp7475
aa(lp7476
(I1540
I2833
tp7477
a(I2853
I2833
tp7478
a(I2853
I3920
tp7479
a(I1540
I3920
tp7480
aa(lp7481
(I3533
I1773
tp7482
a(I4807
I1773
tp7483
a(I4807
I2887
tp7484
a(I3533
I2887
tp7485
aa(lp7486
(I3060
I967
tp7487
a(I3267
I967
tp7488
a(I3267
I1267
tp7489
a(I3060
I1267
tp7490
aa(lp7491
(I3360
I533
tp7492
a(I4087
I533
tp7493
a(I4087
I860
tp7494
a(I3360
I860
tp7495
aa(lp7496
(I4513
I13
tp7497
a(I4787
I13
tp7498
a(I4787
I200
tp7499
a(I4513
I200
tp7500
aa(lp7501
(I1213
I220
tp7502
a(I1400
I220
tp7503
a(I1400
I380
tp7504
a(I1213
I380
tp7505
aaa(lp7506
(lp7507
(I4400
I7
tp7508
a(I4967
I7
tp7509
a(I4967
I320
tp7510
a(I4400
I320
tp7511
aa(lp7512
(I2787
I433
tp7513
a(I4127
I433
tp7514
a(I4127
I1327
tp7515
a(I2787
I1327
tp7516
aa(lp7517
(I3220
I1527
tp7518
a(I4947
I1527
tp7519
a(I4947
I3120
tp7520
a(I3220
I3120
tp7521
aa(lp7522
(I13
I1140
tp7523
a(I1780
I1140
tp7524
a(I1780
I2873
tp7525
a(I13
I2873
tp7526
aa(lp7527
(I1227
I2953
tp7528
a(I2773
I2953
tp7529
a(I2773
I3980
tp7530
a(I1227
I3980
tp7531
aa(lp7532
(I0
I2907
tp7533
a(I1020
I2907
tp7534
a(I1020
I3967
tp7535
a(I0
I3967
tp7536
aaasS'DSC08083.JPG'
p7537
(lp7538
(lp7539
a(lp7540
a(lp7541
asS'DSC08038.JPG'
p7542
(lp7543
(lp7544
(lp7545
(I1147
I760
tp7546
a(I1413
I760
tp7547
a(I1413
I1087
tp7548
a(I1147
I1087
tp7549
aa(lp7550
(I900
I1120
tp7551
a(I1253
I1120
tp7552
a(I1253
I1333
tp7553
a(I900
I1333
tp7554
aaa(lp7555
(lp7556
(I860
I593
tp7557
a(I1507
I593
tp7558
a(I1507
I1207
tp7559
a(I860
I1207
tp7560
aa(lp7561
(I660
I940
tp7562
a(I1313
I940
tp7563
a(I1313
I1513
tp7564
a(I660
I1513
tp7565
aa(lp7566
(I2953
I3193
tp7567
a(I4460
I3193
tp7568
a(I4460
I3940
tp7569
a(I2953
I3940
tp7570
aaa(lp7571
(lp7572
(I553
I453
tp7573
a(I1580
I453
tp7574
a(I1580
I1620
tp7575
a(I553
I1620
tp7576
aa(lp7577
(I2587
I2987
tp7578
a(I3913
I2987
tp7579
a(I3913
I3927
tp7580
a(I2587
I3927
tp7581
aaasS'DSC08124.JPG'
p7582
(lp7583
(lp7584
(lp7585
(I1073
I1927
tp7586
a(I2560
I1927
tp7587
a(I2560
I3413
tp7588
a(I1073
I3413
tp7589
aaa(lp7590
(lp7591
(I247
I1507
tp7592
a(I2847
I1507
tp7593
a(I2847
I3540
tp7594
a(I247
I3540
tp7595
aaa(lp7596
(lp7597
(I567
I1673
tp7598
a(I2913
I1673
tp7599
a(I2913
I3580
tp7600
a(I567
I3580
tp7601
aaasS'DSC07989.JPG'
p7602
(lp7603
(lp7604
(lp7605
(I3420
I-7
tp7606
a(I4907
I-7
tp7607
a(I4907
I807
tp7608
a(I3420
I807
tp7609
aa(lp7610
(I20
I0
tp7611
a(I520
I0
tp7612
a(I520
I167
tp7613
a(I20
I167
tp7614
aa(lp7615
(I0
I120
tp7616
a(I800
I120
tp7617
a(I800
I1200
tp7618
a(I0
I1200
tp7619
aa(lp7620
(I0
I1367
tp7621
a(I1187
I1367
tp7622
a(I1187
I3420
tp7623
a(I0
I3420
tp7624
aaa(lp7625
(lp7626
(I3527
I13
tp7627
a(I4493
I13
tp7628
a(I4493
I733
tp7629
a(I3527
I733
tp7630
aa(lp7631
(I20
I20
tp7632
a(I667
I20
tp7633
a(I667
I3200
tp7634
a(I20
I3200
tp7635
aaa(lp7636
(lp7637
(I20
I93
tp7638
a(I1027
I93
tp7639
a(I1027
I3453
tp7640
a(I20
I3453
tp7641
aa(lp7642
(I3487
I7
tp7643
a(I4607
I7
tp7644
a(I4607
I767
tp7645
a(I3487
I767
tp7646
aaasS'DSC07958.JPG'
p7647
(lp7648
(lp7649
(lp7650
(I20
I7
tp7651
a(I2240
I7
tp7652
a(I2240
I933
tp7653
a(I20
I933
tp7654
aaa(lp7655
(lp7656
(I20
I13
tp7657
a(I1360
I13
tp7658
a(I1360
I407
tp7659
a(I20
I407
tp7660
aaa(lp7661
asS'DSC07918.JPG'
p7662
(lp7663
(lp7664
(lp7665
(I5720
I3653
tp7666
a(I5980
I3653
tp7667
a(I5980
I3987
tp7668
a(I5720
I3987
tp7669
aaa(lp7670
a(lp7671
asS'DSC08024.JPG'
p7672
(lp7673
(lp7674
(lp7675
(I5387
I0
tp7676
a(I5647
I0
tp7677
a(I5647
I133
tp7678
a(I5387
I133
tp7679
aa(lp7680
(I4987
I20
tp7681
a(I5387
I20
tp7682
a(I5387
I487
tp7683
a(I4987
I487
tp7684
aa(lp7685
(I2820
I2793
tp7686
a(I3180
I2793
tp7687
a(I3180
I3073
tp7688
a(I2820
I3073
tp7689
aa(lp7690
(I2813
I3113
tp7691
a(I3173
I3113
tp7692
a(I3173
I3367
tp7693
a(I2813
I3367
tp7694
aa(lp7695
(I40
I3140
tp7696
a(I373
I3140
tp7697
a(I373
I3807
tp7698
a(I40
I3807
tp7699
aa(lp7700
(I320
I2233
tp7701
a(I927
I2233
tp7702
a(I927
I2733
tp7703
a(I320
I2733
tp7704
aaa(lp7705
(lp7706
(I1320
I-7
tp7707
a(I3240
I-7
tp7708
a(I3240
I900
tp7709
a(I1320
I900
tp7710
aa(lp7711
(I393
I2207
tp7712
a(I833
I2207
tp7713
a(I833
I2707
tp7714
a(I393
I2707
tp7715
aa(lp7716
(I13
I3207
tp7717
a(I320
I3207
tp7718
a(I320
I3847
tp7719
a(I13
I3847
tp7720
aaa(lp7721
(lp7722
(I347
I2240
tp7723
a(I833
I2240
tp7724
a(I833
I2673
tp7725
a(I347
I2673
tp7726
aa(lp7727
(I1193
I13
tp7728
a(I3180
I13
tp7729
a(I3180
I727
tp7730
a(I1193
I727
tp7731
aa(lp7732
(I7
I3180
tp7733
a(I333
I3180
tp7734
a(I333
I3800
tp7735
a(I7
I3800
tp7736
aaasS'DSC08135.JPG'
p7737
(lp7738
(lp7739
(lp7740
(I5440
I3400
tp7741
a(I5987
I3400
tp7742
a(I5987
I3980
tp7743
a(I5440
I3980
tp7744
aa(lp7745
(I2147
I3700
tp7746
a(I2707
I3700
tp7747
a(I2707
I3993
tp7748
a(I2147
I3993
tp7749
aaa(lp7750
(lp7751
(I2180
I3727
tp7752
a(I2647
I3727
tp7753
a(I2647
I3940
tp7754
a(I2180
I3940
tp7755
aaa(lp7756
asS'DSC08077.JPG'
p7757
(lp7758
(lp7759
(lp7760
(I1453
I1713
tp7761
a(I4053
I1713
tp7762
a(I4053
I3900
tp7763
a(I1453
I3900
tp7764
aa(lp7765
(I13
I1147
tp7766
a(I1353
I1147
tp7767
a(I1353
I3320
tp7768
a(I13
I3320
tp7769
aaa(lp7770
(lp7771
(I13
I1493
tp7772
a(I1220
I1493
tp7773
a(I1220
I3100
tp7774
a(I13
I3100
tp7775
aa(lp7776
(I1587
I1907
tp7777
a(I3993
I1907
tp7778
a(I3993
I3927
tp7779
a(I1587
I3927
tp7780
aaa(lp7781
(lp7782
(I-7
I807
tp7783
a(I1947
I807
tp7784
a(I1947
I3473
tp7785
a(I-7
I3473
tp7786
aa(lp7787
(I1453
I1473
tp7788
a(I4300
I1473
tp7789
a(I4300
I3980
tp7790
a(I1453
I3980
tp7791
aa(lp7792
(I-7
I3420
tp7793
a(I313
I3420
tp7794
a(I313
I3993
tp7795
a(I-7
I3993
tp7796
aa(lp7797
(I4393
I207
tp7798
a(I5660
I207
tp7799
a(I5660
I2280
tp7800
a(I4393
I2280
tp7801
aaasS'DSC07959.JPG'
p7802
(lp7803
(lp7804
(lp7805
(I420
I1607
tp7806
a(I2573
I1607
tp7807
a(I2573
I3380
tp7808
a(I420
I3380
tp7809
aa(lp7810
(I500
I3440
tp7811
a(I3080
I3440
tp7812
a(I3080
I3980
tp7813
a(I500
I3980
tp7814
aaa(lp7815
(lp7816
(I13
I353
tp7817
a(I760
I353
tp7818
a(I760
I1133
tp7819
a(I13
I1133
tp7820
aa(lp7821
(I320
I1573
tp7822
a(I2660
I1573
tp7823
a(I2660
I3567
tp7824
a(I320
I3567
tp7825
aa(lp7826
(I427
I3660
tp7827
a(I880
I3660
tp7828
a(I880
I3987
tp7829
a(I427
I3987
tp7830
aa(lp7831
(I580
I3320
tp7832
a(I3107
I3320
tp7833
a(I3107
I3987
tp7834
a(I580
I3987
tp7835
aaa(lp7836
(lp7837
(I647
I1620
tp7838
a(I2493
I1620
tp7839
a(I2493
I3267
tp7840
a(I647
I3267
tp7841
aa(lp7842
(I807
I3407
tp7843
a(I2713
I3407
tp7844
a(I2713
I3993
tp7845
a(I807
I3993
tp7846
aa(lp7847
(I53
I493
tp7848
a(I413
I493
tp7849
a(I413
I833
tp7850
a(I53
I833
tp7851
aaasS'DSC07914.JPG'
p7852
(lp7853
(lp7854
(lp7855
(I1853
I1233
tp7856
a(I3627
I1233
tp7857
a(I3627
I2553
tp7858
a(I1853
I2553
tp7859
aa(lp7860
(I1133
I2327
tp7861
a(I2453
I2327
tp7862
a(I2453
I3927
tp7863
a(I1133
I3927
tp7864
aaa(lp7865
(lp7866
(I2113
I1473
tp7867
a(I3320
I1473
tp7868
a(I3320
I2313
tp7869
a(I2113
I2313
tp7870
aa(lp7871
(I4413
I1333
tp7872
a(I4640
I1333
tp7873
a(I4640
I1560
tp7874
a(I4413
I1560
tp7875
aa(lp7876
(I4067
I1407
tp7877
a(I4227
I1407
tp7878
a(I4227
I1553
tp7879
a(I4067
I1553
tp7880
aa(lp7881
(I4200
I1613
tp7882
a(I4420
I1613
tp7883
a(I4420
I1793
tp7884
a(I4200
I1793
tp7885
aa(lp7886
(I1533
I3060
tp7887
a(I2253
I3060
tp7888
a(I2253
I3713
tp7889
a(I1533
I3713
tp7890
aaa(lp7891
(lp7892
(I2727
I1313
tp7893
a(I2727
I1313
tp7894
a(I2727
I1320
tp7895
a(I2727
I1320
tp7896
aa(lp7897
(I2693
I1313
tp7898
a(I2693
I1313
tp7899
a(I2693
I1313
tp7900
a(I2693
I1313
tp7901
aa(lp7902
(I1680
I1053
tp7903
a(I3513
I1053
tp7904
a(I3513
I2553
tp7905
a(I1680
I2553
tp7906
aa(lp7907
(I1073
I2313
tp7908
a(I2680
I2313
tp7909
a(I2680
I3860
tp7910
a(I1073
I3860
tp7911
aaasS'DSC07930.JPG'
p7912
(lp7913
(lp7914
(lp7915
(I33
I513
tp7916
a(I707
I513
tp7917
a(I707
I1007
tp7918
a(I33
I1007
tp7919
aa(lp7920
(I1387
I673
tp7921
a(I1767
I673
tp7922
a(I1767
I1080
tp7923
a(I1387
I1080
tp7924
aa(lp7925
(I2813
I1927
tp7926
a(I3640
I1927
tp7927
a(I3640
I2453
tp7928
a(I2813
I2453
tp7929
aa(lp7930
(I960
I2707
tp7931
a(I1287
I2707
tp7932
a(I1287
I3020
tp7933
a(I960
I3020
tp7934
aaa(lp7935
(lp7936
(I2807
I1927
tp7937
a(I3653
I1927
tp7938
a(I3653
I2427
tp7939
a(I2807
I2427
tp7940
aa(lp7941
(I1347
I720
tp7942
a(I1827
I720
tp7943
a(I1827
I1167
tp7944
a(I1347
I1167
tp7945
aa(lp7946
(I33
I560
tp7947
a(I807
I560
tp7948
a(I807
I1040
tp7949
a(I33
I1040
tp7950
aa(lp7951
(I907
I2673
tp7952
a(I1340
I2673
tp7953
a(I1340
I3020
tp7954
a(I907
I3020
tp7955
aaa(lp7956
(lp7957
(I2827
I1800
tp7958
a(I3633
I1800
tp7959
a(I3633
I2540
tp7960
a(I2827
I2540
tp7961
aa(lp7962
(I1353
I700
tp7963
a(I1813
I700
tp7964
a(I1813
I1167
tp7965
a(I1353
I1167
tp7966
aa(lp7967
(I53
I473
tp7968
a(I653
I473
tp7969
a(I653
I1020
tp7970
a(I53
I1020
tp7971
aaasS'DSC08030.JPG'
p7972
(lp7973
(lp7974
(lp7975
(I380
I3547
tp7976
a(I860
I3547
tp7977
a(I860
I3940
tp7978
a(I380
I3940
tp7979
aa(lp7980
(I2447
I3353
tp7981
a(I3087
I3353
tp7982
a(I3087
I3993
tp7983
a(I2447
I3993
tp7984
aaa(lp7985
(lp7986
(I2380
I3487
tp7987
a(I3100
I3487
tp7988
a(I3100
I3993
tp7989
a(I2380
I3993
tp7990
aa(lp7991
(I293
I3480
tp7992
a(I753
I3480
tp7993
a(I753
I3873
tp7994
a(I293
I3873
tp7995
aaa(lp7996
(lp7997
(I420
I3533
tp7998
a(I693
I3533
tp7999
a(I693
I3833
tp8000
a(I420
I3833
tp8001
aaasS'DSC08090.JPG'
p8002
(lp8003
(lp8004
(lp8005
(I20
I913
tp8006
a(I1773
I913
tp8007
a(I1773
I2853
tp8008
a(I20
I2853
tp8009
aaa(lp8010
(lp8011
(I53
I1053
tp8012
a(I1687
I1053
tp8013
a(I1687
I2733
tp8014
a(I53
I2733
tp8015
aaa(lp8016
(lp8017
(I567
I1120
tp8018
a(I827
I1120
tp8019
a(I827
I1367
tp8020
a(I567
I1367
tp8021
aa(lp8022
(I280
I1487
tp8023
a(I1640
I1487
tp8024
a(I1640
I2633
tp8025
a(I280
I2633
tp8026
aaasS'DSC08063.JPG'
p8027
(lp8028
(lp8029
(lp8030
(I147
I153
tp8031
a(I3687
I153
tp8032
a(I3687
I3067
tp8033
a(I147
I3067
tp8034
aa(lp8035
(I4127
I1673
tp8036
a(I5587
I1673
tp8037
a(I5587
I2547
tp8038
a(I4127
I2547
tp8039
aaa(lp8040
(lp8041
(I847
I527
tp8042
a(I2940
I527
tp8043
a(I2940
I2547
tp8044
a(I847
I2547
tp8045
aa(lp8046
(I4513
I1960
tp8047
a(I4887
I1960
tp8048
a(I4887
I2347
tp8049
a(I4513
I2347
tp8050
aaa(lp8051
(lp8052
(I460
I220
tp8053
a(I3193
I220
tp8054
a(I3193
I3000
tp8055
a(I460
I3000
tp8056
aa(lp8057
(I4353
I1727
tp8058
a(I5447
I1727
tp8059
a(I5447
I2553
tp8060
a(I4353
I2553
tp8061
aaasS'DSC08235.JPG'
p8062
(lp8063
(lp8064
(lp8065
(I1333
I2280
tp8066
a(I2727
I2280
tp8067
a(I2727
I3467
tp8068
a(I1333
I3467
tp8069
aa(lp8070
(I5287
I2047
tp8071
a(I5967
I2047
tp8072
a(I5967
I2720
tp8073
a(I5287
I2720
tp8074
aaa(lp8075
(lp8076
(I2140
I2533
tp8077
a(I2447
I2533
tp8078
a(I2447
I2787
tp8079
a(I2140
I2787
tp8080
aa(lp8081
(I1800
I2887
tp8082
a(I2047
I2887
tp8083
a(I2047
I3133
tp8084
a(I1800
I3133
tp8085
aaa(lp8086
(lp8087
(I5153
I1987
tp8088
a(I5980
I1987
tp8089
a(I5980
I2767
tp8090
a(I5153
I2767
tp8091
aa(lp8092
(I1860
I2400
tp8093
a(I2627
I2400
tp8094
a(I2627
I3020
tp8095
a(I1860
I3020
tp8096
aa(lp8097
(I1480
I2727
tp8098
a(I2107
I2727
tp8099
a(I2107
I3233
tp8100
a(I1480
I3233
tp8101
aaasS'DSC07827.JPG'
p8102
(lp8103
(lp8104
(lp8105
(I3167
I2073
tp8106
a(I3427
I2073
tp8107
a(I3427
I2473
tp8108
a(I3167
I2473
tp8109
aa(lp8110
(I1567
I2193
tp8111
a(I1707
I2193
tp8112
a(I1707
I2367
tp8113
a(I1567
I2367
tp8114
aa(lp8115
(I1120
I3713
tp8116
a(I1133
I3713
tp8117
a(I1133
I3713
tp8118
a(I1120
I3713
tp8119
aa(lp8120
(I1107
I3700
tp8121
a(I2033
I3700
tp8122
a(I2033
I3967
tp8123
a(I1107
I3967
tp8124
aaa(lp8125
(lp8126
(I3040
I2020
tp8127
a(I3580
I2020
tp8128
a(I3580
I2547
tp8129
a(I3040
I2547
tp8130
aa(lp8131
(I1493
I2133
tp8132
a(I1760
I2133
tp8133
a(I1760
I2413
tp8134
a(I1493
I2413
tp8135
aa(lp8136
(I1247
I2233
tp8137
a(I1487
I2233
tp8138
a(I1487
I2480
tp8139
a(I1247
I2480
tp8140
aa(lp8141
(I953
I3587
tp8142
a(I2220
I3587
tp8143
a(I2220
I3980
tp8144
a(I953
I3980
tp8145
aaa(lp8146
(lp8147
(I3053
I2047
tp8148
a(I3460
I2047
tp8149
a(I3460
I2587
tp8150
a(I3053
I2587
tp8151
aa(lp8152
(I927
I3593
tp8153
a(I2040
I3593
tp8154
a(I2040
I3993
tp8155
a(I927
I3993
tp8156
aaasS'DSC08137.JPG'
p8157
(lp8158
(lp8159
(lp8160
(I0
I-7
tp8161
a(I653
I-7
tp8162
a(I653
I807
tp8163
a(I0
I807
tp8164
aaa(lp8165
(lp8166
(I0
I-7
tp8167
a(I907
I-7
tp8168
a(I907
I1247
tp8169
a(I0
I1247
tp8170
aaa(lp8171
(lp8172
(I13
I20
tp8173
a(I800
I20
tp8174
a(I800
I1060
tp8175
a(I13
I1060
tp8176
aaasS'DSC07825.JPG'
p8177
(lp8178
(lp8179
(lp8180
(I633
I580
tp8181
a(I847
I580
tp8182
a(I847
I853
tp8183
a(I633
I853
tp8184
aa(lp8185
(I440
I653
tp8186
a(I647
I653
tp8187
a(I647
I873
tp8188
a(I440
I873
tp8189
aa(lp8190
(I1093
I0
tp8191
a(I1973
I0
tp8192
a(I1973
I160
tp8193
a(I1093
I160
tp8194
aa(lp8195
(I4547
I587
tp8196
a(I4860
I587
tp8197
a(I4860
I887
tp8198
a(I4547
I887
tp8199
aa(lp8200
(I3900
I3287
tp8201
a(I4500
I3287
tp8202
a(I4500
I3940
tp8203
a(I3900
I3940
tp8204
aaa(lp8205
(lp8206
(I100
I0
tp8207
a(I773
I0
tp8208
a(I773
I513
tp8209
a(I100
I513
tp8210
aa(lp8211
(I447
I567
tp8212
a(I960
I567
tp8213
a(I960
I993
tp8214
a(I447
I993
tp8215
aa(lp8216
(I3760
I447
tp8217
a(I4007
I447
tp8218
a(I4007
I787
tp8219
a(I3760
I787
tp8220
aaa(lp8221
(lp8222
(I3667
I3047
tp8223
a(I4707
I3047
tp8224
a(I4707
I3967
tp8225
a(I3667
I3967
tp8226
aa(lp8227
(I913
I0
tp8228
a(I1900
I0
tp8229
a(I1900
I247
tp8230
a(I913
I247
tp8231
aa(lp8232
(I367
I500
tp8233
a(I1033
I500
tp8234
a(I1033
I953
tp8235
a(I367
I953
tp8236
aa(lp8237
(I387
I3633
tp8238
a(I920
I3633
tp8239
a(I920
I3980
tp8240
a(I387
I3980
tp8241
aaasS'DSC07971.JPG'
p8242
(lp8243
(lp8244
(lp8245
(I653
I1387
tp8246
a(I1167
I1387
tp8247
a(I1167
I1780
tp8248
a(I653
I1780
tp8249
aa(lp8250
(I3453
I2133
tp8251
a(I3867
I2133
tp8252
a(I3867
I2640
tp8253
a(I3453
I2640
tp8254
aaa(lp8255
(lp8256
(I533
I1340
tp8257
a(I1193
I1340
tp8258
a(I1193
I1773
tp8259
a(I533
I1773
tp8260
aa(lp8261
(I3453
I2140
tp8262
a(I3840
I2140
tp8263
a(I3840
I2620
tp8264
a(I3453
I2620
tp8265
aaa(lp8266
(lp8267
(I640
I1373
tp8268
a(I1160
I1373
tp8269
a(I1160
I1773
tp8270
a(I640
I1773
tp8271
aaasS'DSC07910.JPG'
p8272
(lp8273
(lp8274
(lp8275
(I1827
I1173
tp8276
a(I3747
I1173
tp8277
a(I3747
I2520
tp8278
a(I1827
I2520
tp8279
aa(lp8280
(I387
I2607
tp8281
a(I1820
I2607
tp8282
a(I1820
I3847
tp8283
a(I387
I3847
tp8284
aa(lp8285
(I3853
I460
tp8286
a(I5193
I460
tp8287
a(I5193
I1433
tp8288
a(I3853
I1433
tp8289
aaa(lp8290
(lp8291
(I1927
I1087
tp8292
a(I3787
I1087
tp8293
a(I3787
I2360
tp8294
a(I1927
I2360
tp8295
aa(lp8296
(I267
I2607
tp8297
a(I1360
I2607
tp8298
a(I1360
I3700
tp8299
a(I267
I3700
tp8300
aa(lp8301
(I3820
I340
tp8302
a(I3820
I340
tp8303
a(I3820
I387
tp8304
a(I3820
I387
tp8305
aa(lp8306
(I3820
I407
tp8307
a(I3820
I407
tp8308
a(I3820
I427
tp8309
a(I3820
I427
tp8310
aa(lp8311
(I3860
I120
tp8312
a(I5000
I120
tp8313
a(I5000
I1140
tp8314
a(I3860
I1140
tp8315
aaa(lp8316
(lp8317
(I3960
I427
tp8318
a(I3960
I427
tp8319
a(I3960
I427
tp8320
a(I3960
I427
tp8321
aa(lp8322
(I3960
I427
tp8323
a(I3960
I427
tp8324
a(I3960
I427
tp8325
a(I3960
I427
tp8326
aa(lp8327
(I3960
I420
tp8328
a(I5033
I420
tp8329
a(I5033
I547
tp8330
a(I3960
I547
tp8331
aa(lp8332
(I5007
I533
tp8333
a(I5007
I533
tp8334
a(I5007
I533
tp8335
a(I5007
I533
tp8336
aa(lp8337
(I3827
I533
tp8338
a(I5007
I533
tp8339
a(I5007
I1240
tp8340
a(I3827
I1240
tp8341
aa(lp8342
(I1900
I1167
tp8343
a(I3727
I1167
tp8344
a(I3727
I2407
tp8345
a(I1900
I2407
tp8346
aa(lp8347
(I347
I2620
tp8348
a(I1433
I2620
tp8349
a(I1433
I3573
tp8350
a(I347
I3573
tp8351
aaasS'DSC07919.JPG'
p8352
(lp8353
(lp8354
a(lp8355
(lp8356
(I5487
I587
tp8357
a(I5813
I587
tp8358
a(I5813
I953
tp8359
a(I5487
I953
tp8360
aaa(lp8361
(lp8362
(I1867
I1527
tp8363
a(I2267
I1527
tp8364
a(I2267
I2047
tp8365
a(I1867
I2047
tp8366
aa(lp8367
(I5493
I580
tp8368
a(I5833
I580
tp8369
a(I5833
I880
tp8370
a(I5493
I880
tp8371
aaasS'DSC08021.JPG'
p8372
(lp8373
(lp8374
(lp8375
(I4027
I893
tp8376
a(I4907
I893
tp8377
a(I4907
I2073
tp8378
a(I4027
I2073
tp8379
aaa(lp8380
a(lp8381
(lp8382
(I973
I2540
tp8383
a(I1393
I2540
tp8384
a(I1393
I2867
tp8385
a(I973
I2867
tp8386
aaasS'DSC07927.JPG'
p8387
(lp8388
(lp8389
(lp8390
(I487
I47
tp8391
a(I1567
I47
tp8392
a(I1567
I320
tp8393
a(I487
I320
tp8394
aa(lp8395
(I27
I313
tp8396
a(I1553
I313
tp8397
a(I1553
I2120
tp8398
a(I27
I2120
tp8399
aa(lp8400
(I47
I2147
tp8401
a(I2747
I2147
tp8402
a(I2747
I3960
tp8403
a(I47
I3960
tp8404
aaa(lp8405
(lp8406
(I4213
I2987
tp8407
a(I4640
I2987
tp8408
a(I4640
I3440
tp8409
a(I4213
I3440
tp8410
aa(lp8411
(I5440
I780
tp8412
a(I5953
I780
tp8413
a(I5953
I1207
tp8414
a(I5440
I1207
tp8415
aa(lp8416
(I147
I133
tp8417
a(I1300
I133
tp8418
a(I1300
I927
tp8419
a(I147
I927
tp8420
aaa(lp8421
(lp8422
(I5467
I747
tp8423
a(I5973
I747
tp8424
a(I5973
I1227
tp8425
a(I5467
I1227
tp8426
aa(lp8427
(I233
I153
tp8428
a(I1400
I153
tp8429
a(I1400
I673
tp8430
a(I233
I673
tp8431
aaasS'DSC07938.JPG'
p8432
(lp8433
(lp8434
(lp8435
(I3473
I1713
tp8436
a(I4853
I1713
tp8437
a(I4853
I3240
tp8438
a(I3473
I3240
tp8439
aa(lp8440
(I4147
I3327
tp8441
a(I5140
I3327
tp8442
a(I5140
I3973
tp8443
a(I4147
I3973
tp8444
aa(lp8445
(I5180
I1740
tp8446
a(I5980
I1740
tp8447
a(I5980
I3973
tp8448
a(I5180
I3973
tp8449
aa(lp8450
(I1093
I1013
tp8451
a(I2973
I1013
tp8452
a(I2973
I2640
tp8453
a(I1093
I2640
tp8454
aa(lp8455
(I60
I0
tp8456
a(I873
I0
tp8457
a(I873
I233
tp8458
a(I60
I233
tp8459
aa(lp8460
(I1960
I7
tp8461
a(I3247
I7
tp8462
a(I3247
I447
tp8463
a(I1960
I447
tp8464
aa(lp8465
(I7
I493
tp8466
a(I427
I493
tp8467
a(I427
I927
tp8468
a(I7
I927
tp8469
aa(lp8470
(I13
I1407
tp8471
a(I1473
I1407
tp8472
a(I1473
I3987
tp8473
a(I13
I3987
tp8474
aaa(lp8475
(lp8476
(I3507
I1773
tp8477
a(I4693
I1773
tp8478
a(I4693
I3320
tp8479
a(I3507
I3320
tp8480
aa(lp8481
(I1033
I993
tp8482
a(I2727
I993
tp8483
a(I2727
I2667
tp8484
a(I1033
I2667
tp8485
aa(lp8486
(I27
I1340
tp8487
a(I400
I1340
tp8488
a(I400
I2660
tp8489
a(I27
I2660
tp8490
aa(lp8491
(I160
I567
tp8492
a(I467
I567
tp8493
a(I467
I940
tp8494
a(I160
I940
tp8495
aa(lp8496
(I2013
I0
tp8497
a(I3200
I0
tp8498
a(I3200
I393
tp8499
a(I2013
I393
tp8500
aa(lp8501
(I5320
I1673
tp8502
a(I5987
I1673
tp8503
a(I5987
I3567
tp8504
a(I5320
I3567
tp8505
aa(lp8506
(I4240
I3413
tp8507
a(I4960
I3413
tp8508
a(I4960
I3900
tp8509
a(I4240
I3900
tp8510
aa(lp8511
(I5147
I3533
tp8512
a(I5973
I3533
tp8513
a(I5973
I3980
tp8514
a(I5147
I3980
tp8515
aa(lp8516
(I0
I2713
tp8517
a(I1280
I2713
tp8518
a(I1280
I3993
tp8519
a(I0
I3993
tp8520
aaa(lp8521
(lp8522
(I2060
I7
tp8523
a(I3180
I7
tp8524
a(I3180
I387
tp8525
a(I2060
I387
tp8526
aa(lp8527
(I1067
I1033
tp8528
a(I2807
I1033
tp8529
a(I2807
I2633
tp8530
a(I1067
I2633
tp8531
aa(lp8532
(I13
I1387
tp8533
a(I1500
I1387
tp8534
a(I1500
I3973
tp8535
a(I13
I3973
tp8536
aa(lp8537
(I3433
I1807
tp8538
a(I4893
I1807
tp8539
a(I4893
I3313
tp8540
a(I3433
I3313
tp8541
aa(lp8542
(I4213
I3353
tp8543
a(I5100
I3353
tp8544
a(I5100
I3953
tp8545
a(I4213
I3953
tp8546
aa(lp8547
(I5207
I1807
tp8548
a(I5987
I1807
tp8549
a(I5987
I3980
tp8550
a(I5207
I3980
tp8551
aa(lp8552
(I160
I0
tp8553
a(I753
I0
tp8554
a(I753
I200
tp8555
a(I160
I200
tp8556
aaasS'DSC07824.JPG'
p8557
(lp8558
(lp8559
(lp8560
(I1600
I1100
tp8561
a(I2373
I1100
tp8562
a(I2373
I2020
tp8563
a(I1600
I2020
tp8564
aa(lp8565
(I2460
I2067
tp8566
a(I3173
I2067
tp8567
a(I3173
I2807
tp8568
a(I2460
I2807
tp8569
aa(lp8570
(I1920
I2187
tp8571
a(I2267
I2187
tp8572
a(I2267
I2553
tp8573
a(I1920
I2553
tp8574
aa(lp8575
(I3700
I2447
tp8576
a(I4300
I2447
tp8577
a(I4300
I3120
tp8578
a(I3700
I3120
tp8579
aa(lp8580
(I5373
I2513
tp8581
a(I5853
I2513
tp8582
a(I5853
I2927
tp8583
a(I5373
I2927
tp8584
aa(lp8585
(I1933
I3173
tp8586
a(I2380
I3173
tp8587
a(I2380
I3547
tp8588
a(I1933
I3547
tp8589
aa(lp8590
(I400
I533
tp8591
a(I880
I533
tp8592
a(I880
I1000
tp8593
a(I400
I1000
tp8594
aaa(lp8595
(lp8596
(I1573
I1173
tp8597
a(I1953
I1173
tp8598
a(I1953
I1493
tp8599
a(I1573
I1493
tp8600
aa(lp8601
(I1767
I1220
tp8602
a(I2187
I1220
tp8603
a(I2187
I1927
tp8604
a(I1767
I1927
tp8605
aa(lp8606
(I1913
I2207
tp8607
a(I2200
I2207
tp8608
a(I2200
I2420
tp8609
a(I1913
I2420
tp8610
aa(lp8611
(I2487
I2120
tp8612
a(I3100
I2120
tp8613
a(I3100
I2553
tp8614
a(I2487
I2553
tp8615
aa(lp8616
(I2780
I2480
tp8617
a(I3073
I2480
tp8618
a(I3073
I2733
tp8619
a(I2780
I2733
tp8620
aa(lp8621
(I3733
I2507
tp8622
a(I4267
I2507
tp8623
a(I4267
I3060
tp8624
a(I3733
I3060
tp8625
aa(lp8626
(I1947
I3220
tp8627
a(I2353
I3220
tp8628
a(I2353
I3507
tp8629
a(I1947
I3507
tp8630
aa(lp8631
(I3287
I3807
tp8632
a(I3747
I3807
tp8633
a(I3747
I3993
tp8634
a(I3287
I3993
tp8635
aa(lp8636
(I407
I553
tp8637
a(I887
I553
tp8638
a(I887
I953
tp8639
a(I407
I953
tp8640
aa(lp8641
(I3787
I147
tp8642
a(I4480
I147
tp8643
a(I4480
I947
tp8644
a(I3787
I947
tp8645
aaa(lp8646
(lp8647
(I553
I647
tp8648
a(I767
I647
tp8649
a(I767
I880
tp8650
a(I553
I880
tp8651
aa(lp8652
(I1733
I1233
tp8653
a(I1747
I1233
tp8654
a(I1747
I1233
tp8655
a(I1733
I1233
tp8656
aa(lp8657
(I1760
I1253
tp8658
a(I1920
I1253
tp8659
a(I1920
I1427
tp8660
a(I1760
I1427
tp8661
aa(lp8662
(I1967
I1433
tp8663
a(I2173
I1433
tp8664
a(I2173
I1733
tp8665
a(I1967
I1733
tp8666
aa(lp8667
(I2000
I2267
tp8668
a(I2167
I2267
tp8669
a(I2167
I2413
tp8670
a(I2000
I2413
tp8671
aa(lp8672
(I2613
I2227
tp8673
a(I3033
I2227
tp8674
a(I3033
I2473
tp8675
a(I2613
I2473
tp8676
aa(lp8677
(I2813
I2500
tp8678
a(I3060
I2500
tp8679
a(I3060
I2707
tp8680
a(I2813
I2707
tp8681
aa(lp8682
(I3933
I2613
tp8683
a(I4193
I2613
tp8684
a(I4193
I2927
tp8685
a(I3933
I2927
tp8686
aa(lp8687
(I4040
I227
tp8688
a(I4500
I227
tp8689
a(I4500
I987
tp8690
a(I4040
I987
tp8691
aa(lp8692
(I2093
I3287
tp8693
a(I2267
I3287
tp8694
a(I2267
I3487
tp8695
a(I2093
I3487
tp8696
aa(lp8697
(I3453
I3813
tp8698
a(I3713
I3813
tp8699
a(I3713
I3993
tp8700
a(I3453
I3993
tp8701
aaasS'DSC08144.JPG'
p8702
(lp8703
(lp8704
(lp8705
(I1093
I2400
tp8706
a(I1700
I2400
tp8707
a(I1700
I2927
tp8708
a(I1093
I2927
tp8709
aa(lp8710
(I4713
I2680
tp8711
a(I5640
I2680
tp8712
a(I5640
I3173
tp8713
a(I4713
I3173
tp8714
aaa(lp8715
(lp8716
(I1300
I1813
tp8717
a(I2553
I1813
tp8718
a(I2553
I2780
tp8719
a(I1300
I2780
tp8720
aa(lp8721
(I4693
I2687
tp8722
a(I5527
I2687
tp8723
a(I5527
I3180
tp8724
a(I4693
I3180
tp8725
aaa(lp8726
(lp8727
(I4627
I2600
tp8728
a(I5773
I2600
tp8729
a(I5773
I3180
tp8730
a(I4627
I3180
tp8731
aa(lp8732
(I933
I1760
tp8733
a(I2573
I1760
tp8734
a(I2573
I2920
tp8735
a(I933
I2920
tp8736
aaasS'DSC08072.JPG'
p8737
(lp8738
(lp8739
a(lp8740
a(lp8741
asS'DSC07986.JPG'
p8742
(lp8743
(lp8744
(lp8745
(I933
I-7
tp8746
a(I2240
I-7
tp8747
a(I2240
I580
tp8748
a(I933
I580
tp8749
aaa(lp8750
(lp8751
(I773
I0
tp8752
a(I2420
I0
tp8753
a(I2420
I700
tp8754
a(I773
I700
tp8755
aaa(lp8756
(lp8757
(I1033
I40
tp8758
a(I2100
I40
tp8759
a(I2100
I393
tp8760
a(I1033
I393
tp8761
aaasS'DSC08133.JPG'
p8762
(lp8763
(lp8764
(lp8765
(I1113
I767
tp8766
a(I1967
I767
tp8767
a(I1967
I1467
tp8768
a(I1113
I1467
tp8769
aa(lp8770
(I2900
I1800
tp8771
a(I4280
I1800
tp8772
a(I4280
I3400
tp8773
a(I2900
I3400
tp8774
aaa(lp8775
(lp8776
(I147
I7
tp8777
a(I1487
I7
tp8778
a(I1487
I540
tp8779
a(I147
I540
tp8780
aa(lp8781
(I1753
I600
tp8782
a(I2107
I600
tp8783
a(I2107
I967
tp8784
a(I1753
I967
tp8785
aa(lp8786
(I693
I687
tp8787
a(I2280
I687
tp8788
a(I2280
I1553
tp8789
a(I693
I1553
tp8790
aa(lp8791
(I5427
I347
tp8792
a(I5973
I347
tp8793
a(I5973
I1307
tp8794
a(I5427
I1307
tp8795
aa(lp8796
(I5027
I1253
tp8797
a(I5980
I1253
tp8798
a(I5980
I2700
tp8799
a(I5027
I2700
tp8800
aa(lp8801
(I2320
I1267
tp8802
a(I4933
I1267
tp8803
a(I4933
I3740
tp8804
a(I2320
I3740
tp8805
aaa(lp8806
(lp8807
(I2633
I1400
tp8808
a(I4800
I1400
tp8809
a(I4800
I3613
tp8810
a(I2633
I3613
tp8811
aa(lp8812
(I5387
I1353
tp8813
a(I5980
I1353
tp8814
a(I5980
I2780
tp8815
a(I5387
I2780
tp8816
aa(lp8817
(I953
I740
tp8818
a(I1933
I740
tp8819
a(I1933
I1533
tp8820
a(I953
I1533
tp8821
aa(lp8822
(I180
I0
tp8823
a(I1753
I0
tp8824
a(I1753
I613
tp8825
a(I180
I613
tp8826
aaasS'DSC07924.JPG'
p8827
(lp8828
(lp8829
(lp8830
(I920
I2747
tp8831
a(I1407
I2747
tp8832
a(I1407
I3133
tp8833
a(I920
I3133
tp8834
aaa(lp8835
(lp8836
(I27
I780
tp8837
a(I533
I780
tp8838
a(I533
I1220
tp8839
a(I27
I1220
tp8840
aa(lp8841
(I973
I2800
tp8842
a(I1333
I2800
tp8843
a(I1333
I3120
tp8844
a(I973
I3120
tp8845
aa(lp8846
(I5120
I1180
tp8847
a(I5980
I1180
tp8848
a(I5980
I2447
tp8849
a(I5120
I2447
tp8850
aaa(lp8851
(lp8852
(I5467
I1187
tp8853
a(I5993
I1187
tp8854
a(I5993
I2467
tp8855
a(I5467
I2467
tp8856
aa(lp8857
(I987
I2753
tp8858
a(I1347
I2753
tp8859
a(I1347
I3113
tp8860
a(I987
I3113
tp8861
aaasS'DSC08064.JPG'
p8862
(lp8863
(lp8864
(lp8865
(I1933
I773
tp8866
a(I3460
I773
tp8867
a(I3460
I2287
tp8868
a(I1933
I2287
tp8869
aaa(lp8870
(lp8871
(I2140
I1087
tp8872
a(I3293
I1087
tp8873
a(I3293
I2013
tp8874
a(I2140
I2013
tp8875
aaa(lp8876
(lp8877
(I2107
I853
tp8878
a(I3407
I853
tp8879
a(I3407
I2393
tp8880
a(I2107
I2393
tp8881
aa(lp8882
(I1787
I853
tp8883
a(I2100
I853
tp8884
a(I2100
I2393
tp8885
a(I1787
I2393
tp8886
aaasS'DSC08239.JPG'
p8887
(lp8888
(lp8889
(lp8890
(I2227
I7
tp8891
a(I5987
I7
tp8892
a(I5987
I2280
tp8893
a(I2227
I2280
tp8894
aa(lp8895
(I4680
I2440
tp8896
a(I5827
I2440
tp8897
a(I5827
I3153
tp8898
a(I4680
I3153
tp8899
aa(lp8900
(I5413
I2993
tp8901
a(I5867
I2993
tp8902
a(I5867
I3287
tp8903
a(I5413
I3287
tp8904
aa(lp8905
(I2400
I2513
tp8906
a(I3367
I2513
tp8907
a(I3367
I3993
tp8908
a(I2400
I3993
tp8909
aa(lp8910
(I373
I3787
tp8911
a(I720
I3787
tp8912
a(I720
I3993
tp8913
a(I373
I3993
tp8914
aaa(lp8915
(lp8916
(I2653
I13
tp8917
a(I5900
I13
tp8918
a(I5900
I1913
tp8919
a(I2653
I1913
tp8920
aa(lp8921
(I4867
I2533
tp8922
a(I5827
I2533
tp8923
a(I5827
I3407
tp8924
a(I4867
I3407
tp8925
aa(lp8926
(I2307
I2740
tp8927
a(I3507
I2740
tp8928
a(I3507
I3953
tp8929
a(I2307
I3953
tp8930
aaa(lp8931
(lp8932
(I3267
I27
tp8933
a(I4700
I27
tp8934
a(I4700
I1760
tp8935
a(I3267
I1760
tp8936
aa(lp8937
(I2547
I2947
tp8938
a(I3360
I2947
tp8939
a(I3360
I3773
tp8940
a(I2547
I3773
tp8941
aaasS'DSC08250.JPG'
p8942
(lp8943
(lp8944
(lp8945
(I13
I-7
tp8946
a(I5933
I-7
tp8947
a(I5933
I3987
tp8948
a(I13
I3987
tp8949
aaasS'DSC08087.JPG'
p8950
(lp8951
(lp8952
(lp8953
(I4293
I2380
tp8954
a(I5167
I2380
tp8955
a(I5167
I3107
tp8956
a(I4293
I3107
tp8957
aaa(lp8958
(lp8959
(I4367
I2407
tp8960
a(I5093
I2407
tp8961
a(I5093
I3127
tp8962
a(I4367
I3127
tp8963
aaa(lp8964
(lp8965
(I4453
I2607
tp8966
a(I4960
I2607
tp8967
a(I4960
I3080
tp8968
a(I4453
I3080
tp8969
aaasS'DSC08069.JPG'
p8970
(lp8971
(lp8972
(lp8973
(I20
I1773
tp8974
a(I1373
I1773
tp8975
a(I1373
I2900
tp8976
a(I20
I2900
tp8977
aa(lp8978
(I2227
I2807
tp8979
a(I2547
I2807
tp8980
a(I2547
I3167
tp8981
a(I2227
I3167
tp8982
aa(lp8983
(I1827
I1527
tp8984
a(I2880
I1527
tp8985
a(I2880
I2353
tp8986
a(I1827
I2353
tp8987
aa(lp8988
(I1860
I300
tp8989
a(I3320
I300
tp8990
a(I3320
I1253
tp8991
a(I1860
I1253
tp8992
aaa(lp8993
(lp8994
(I1600
I20
tp8995
a(I3560
I20
tp8996
a(I3560
I1373
tp8997
a(I1600
I1373
tp8998
aa(lp8999
(I0
I1647
tp9000
a(I1853
I1647
tp9001
a(I1853
I3233
tp9002
a(I0
I3233
tp9003
aa(lp9004
(I1847
I1473
tp9005
a(I3267
I1473
tp9006
a(I3267
I2440
tp9007
a(I1847
I2440
tp9008
aaa(lp9009
(lp9010
(I1080
I-7
tp9011
a(I4020
I-7
tp9012
a(I4020
I1527
tp9013
a(I1080
I1527
tp9014
aa(lp9015
(I0
I1533
tp9016
a(I2113
I1533
tp9017
a(I2113
I3387
tp9018
a(I0
I3387
tp9019
aa(lp9020
(I1320
I880
tp9021
a(I3553
I880
tp9022
a(I3553
I2660
tp9023
a(I1320
I2660
tp9024
aa(lp9025
(I2133
I2720
tp9026
a(I2553
I2720
tp9027
a(I2553
I3260
tp9028
a(I2133
I3260
tp9029
aaasS'DSC08065.JPG'
p9030
(lp9031
(lp9032
(lp9033
(I3180
I7
tp9034
a(I4773
I7
tp9035
a(I4773
I813
tp9036
a(I3180
I813
tp9037
aa(lp9038
(I2973
I73
tp9039
a(I5453
I73
tp9040
a(I5453
I2167
tp9041
a(I2973
I2167
tp9042
aa(lp9043
(I373
I993
tp9044
a(I1393
I993
tp9045
a(I1393
I2287
tp9046
a(I373
I2287
tp9047
aa(lp9048
(I1133
I813
tp9049
a(I4727
I813
tp9050
a(I4727
I3913
tp9051
a(I1133
I3913
tp9052
aa(lp9053
(I4093
I3473
tp9054
a(I5500
I3473
tp9055
a(I5500
I3913
tp9056
a(I4093
I3913
tp9057
aaa(lp9058
(lp9059
(I480
I980
tp9060
a(I1347
I980
tp9061
a(I1347
I2207
tp9062
a(I480
I2207
tp9063
aa(lp9064
(I2027
I20
tp9065
a(I5300
I20
tp9066
a(I5300
I3953
tp9067
a(I2027
I3953
tp9068
aaa(lp9069
(lp9070
(I380
I847
tp9071
a(I1467
I847
tp9072
a(I1467
I2267
tp9073
a(I380
I2267
tp9074
aa(lp9075
(I3000
I7
tp9076
a(I5013
I7
tp9077
a(I5013
I607
tp9078
a(I3000
I607
tp9079
aa(lp9080
(I1540
I527
tp9081
a(I5500
I527
tp9082
a(I5500
I3967
tp9083
a(I1540
I3967
tp9084
aaasS'DSC08118.JPG'
p9085
(lp9086
(lp9087
(lp9088
(I80
I13
tp9089
a(I1087
I13
tp9090
a(I1087
I440
tp9091
a(I80
I440
tp9092
aa(lp9093
(I7
I933
tp9094
a(I700
I933
tp9095
a(I700
I2380
tp9096
a(I7
I2380
tp9097
aaa(lp9098
(lp9099
(I0
I0
tp9100
a(I1240
I0
tp9101
a(I1240
I527
tp9102
a(I0
I527
tp9103
aa(lp9104
(I0
I700
tp9105
a(I1093
I700
tp9106
a(I1093
I2447
tp9107
a(I0
I2447
tp9108
aaa(lp9109
(lp9110
(I0
I-7
tp9111
a(I1120
I-7
tp9112
a(I1120
I553
tp9113
a(I0
I553
tp9114
aa(lp9115
(I13
I907
tp9116
a(I760
I907
tp9117
a(I760
I2520
tp9118
a(I13
I2520
tp9119
aaasS'DSC07957.JPG'
p9120
(lp9121
(lp9122
a(lp9123
(lp9124
(I13
I2373
tp9125
a(I640
I2373
tp9126
a(I640
I3933
tp9127
a(I13
I3933
tp9128
aaa(lp9129
(lp9130
(I507
I3673
tp9131
a(I1373
I3673
tp9132
a(I1373
I3993
tp9133
a(I507
I3993
tp9134
aa(lp9135
(I-7
I2413
tp9136
a(I1027
I2413
tp9137
a(I1027
I3980
tp9138
a(I-7
I3980
tp9139
aaasS'DSC07820.JPG'
p9140
(lp9141
(lp9142
(lp9143
(I1113
I2247
tp9144
a(I1547
I2247
tp9145
a(I1547
I2820
tp9146
a(I1113
I2820
tp9147
aa(lp9148
(I733
I2953
tp9149
a(I1347
I2953
tp9150
a(I1347
I3393
tp9151
a(I733
I3393
tp9152
aa(lp9153
(I860
I3507
tp9154
a(I1413
I3507
tp9155
a(I1413
I3947
tp9156
a(I860
I3947
tp9157
aa(lp9158
(I2620
I3407
tp9159
a(I3113
I3407
tp9160
a(I3113
I3933
tp9161
a(I2620
I3933
tp9162
aa(lp9163
(I5307
I1247
tp9164
a(I5993
I1247
tp9165
a(I5993
I3420
tp9166
a(I5307
I3420
tp9167
aa(lp9168
(I5227
I280
tp9169
a(I5820
I280
tp9170
a(I5820
I940
tp9171
a(I5227
I940
tp9172
aa(lp9173
(I-7
I1240
tp9174
a(I240
I1240
tp9175
a(I240
I1667
tp9176
a(I-7
I1667
tp9177
aa(lp9178
(I1087
I1033
tp9179
a(I1327
I1033
tp9180
a(I1327
I1267
tp9181
a(I1087
I1267
tp9182
aa(lp9183
(I1447
I340
tp9184
a(I1693
I340
tp9185
a(I1693
I620
tp9186
a(I1447
I620
tp9187
aa(lp9188
(I3533
I660
tp9189
a(I3773
I660
tp9190
a(I3773
I900
tp9191
a(I3533
I900
tp9192
aaa(lp9193
(lp9194
(I240
I587
tp9195
a(I1127
I587
tp9196
a(I1127
I1520
tp9197
a(I240
I1520
tp9198
aa(lp9199
(I1340
I700
tp9200
a(I2327
I700
tp9201
a(I2327
I1953
tp9202
a(I1340
I1953
tp9203
aa(lp9204
(I1133
I2273
tp9205
a(I1587
I2273
tp9206
a(I1587
I2733
tp9207
a(I1133
I2733
tp9208
aa(lp9209
(I767
I3040
tp9210
a(I1227
I3040
tp9211
a(I1227
I3360
tp9212
a(I767
I3360
tp9213
aa(lp9214
(I813
I3500
tp9215
a(I1460
I3500
tp9216
a(I1460
I3953
tp9217
a(I813
I3953
tp9218
aa(lp9219
(I2607
I3427
tp9220
a(I3140
I3427
tp9221
a(I3140
I3900
tp9222
a(I2607
I3900
tp9223
aa(lp9224
(I4320
I1433
tp9225
a(I5960
I1433
tp9226
a(I5960
I3287
tp9227
a(I4320
I3287
tp9228
aaa(lp9229
(lp9230
(I20
I1353
tp9231
a(I160
I1353
tp9232
a(I160
I1587
tp9233
a(I20
I1587
tp9234
aa(lp9235
(I1253
I2340
tp9236
a(I1513
I2340
tp9237
a(I1513
I2627
tp9238
a(I1253
I2627
tp9239
aa(lp9240
(I1080
I2500
tp9241
a(I1253
I2500
tp9242
a(I1253
I2707
tp9243
a(I1080
I2707
tp9244
aa(lp9245
(I867
I3053
tp9246
a(I1027
I3053
tp9247
a(I1027
I3240
tp9248
a(I867
I3240
tp9249
aa(lp9250
(I1087
I3073
tp9251
a(I1253
I3073
tp9252
a(I1253
I3220
tp9253
a(I1087
I3220
tp9254
aa(lp9255
(I2700
I3487
tp9256
a(I3007
I3487
tp9257
a(I3007
I3807
tp9258
a(I2700
I3807
tp9259
aa(lp9260
(I967
I3540
tp9261
a(I980
I3540
tp9262
a(I980
I3540
tp9263
a(I967
I3540
tp9264
aa(lp9265
(I993
I3533
tp9266
a(I1200
I3533
tp9267
a(I1200
I3700
tp9268
a(I993
I3700
tp9269
aa(lp9270
(I980
I3733
tp9271
a(I1407
I3733
tp9272
a(I1407
I3987
tp9273
a(I980
I3987
tp9274
aaasS'DSC07931.JPG'
p9275
(lp9276
(lp9277
(lp9278
(I687
I3187
tp9279
a(I840
I3187
tp9280
a(I840
I3393
tp9281
a(I687
I3393
tp9282
aa(lp9283
(I3333
I1480
tp9284
a(I3360
I1480
tp9285
a(I3360
I1480
tp9286
a(I3333
I1480
tp9287
aa(lp9288
(I3360
I1473
tp9289
a(I3507
I1473
tp9290
a(I3507
I1760
tp9291
a(I3360
I1760
tp9292
aa(lp9293
(I3627
I1687
tp9294
a(I3820
I1687
tp9295
a(I3820
I1873
tp9296
a(I3627
I1873
tp9297
aaa(lp9298
(lp9299
(I3247
I1413
tp9300
a(I3593
I1413
tp9301
a(I3593
I1680
tp9302
a(I3247
I1680
tp9303
aa(lp9304
(I3513
I1553
tp9305
a(I3980
I1553
tp9306
a(I3980
I1947
tp9307
a(I3513
I1947
tp9308
aaa(lp9309
asS'DSC08117.JPG'
p9310
(lp9311
(lp9312
(lp9313
(I2093
I1860
tp9314
a(I3087
I1860
tp9315
a(I3087
I3047
tp9316
a(I2093
I3047
tp9317
aa(lp9318
(I-7
I907
tp9319
a(I347
I907
tp9320
a(I347
I2033
tp9321
a(I-7
I2033
tp9322
aaa(lp9323
(lp9324
(I7
I1047
tp9325
a(I347
I1047
tp9326
a(I347
I1807
tp9327
a(I7
I1807
tp9328
aa(lp9329
(I2327
I2060
tp9330
a(I2933
I2060
tp9331
a(I2933
I2780
tp9332
a(I2327
I2780
tp9333
aaa(lp9334
(lp9335
(I27
I873
tp9336
a(I573
I873
tp9337
a(I573
I2080
tp9338
a(I27
I2080
tp9339
aa(lp9340
(I1953
I1860
tp9341
a(I3200
I1860
tp9342
a(I3200
I3100
tp9343
a(I1953
I3100
tp9344
aa(lp9345
(I1400
I3613
tp9346
a(I1780
I3613
tp9347
a(I1780
I3973
tp9348
a(I1400
I3973
tp9349
aa(lp9350
(I280
I3833
tp9351
a(I480
I3833
tp9352
a(I480
I3987
tp9353
a(I280
I3987
tp9354
aaasS'DSC08141.JPG'
p9355
(lp9356
(lp9357
(lp9358
(I2333
I1820
tp9359
a(I2647
I1820
tp9360
a(I2647
I2233
tp9361
a(I2333
I2233
tp9362
aa(lp9363
(I3187
I1633
tp9364
a(I3627
I1633
tp9365
a(I3627
I2220
tp9366
a(I3187
I2220
tp9367
aa(lp9368
(I4953
I2313
tp9369
a(I5527
I2313
tp9370
a(I5527
I2733
tp9371
a(I4953
I2733
tp9372
aa(lp9373
(I160
I2300
tp9374
a(I613
I2300
tp9375
a(I613
I2720
tp9376
a(I160
I2720
tp9377
aaa(lp9378
(lp9379
(I300
I2393
tp9380
a(I573
I2393
tp9381
a(I573
I2680
tp9382
a(I300
I2680
tp9383
aa(lp9384
(I3327
I1873
tp9385
a(I3520
I1873
tp9386
a(I3520
I2240
tp9387
a(I3327
I2240
tp9388
aaa(lp9389
(lp9390
(I2200
I1773
tp9391
a(I2667
I1773
tp9392
a(I2667
I2260
tp9393
a(I2200
I2260
tp9394
aa(lp9395
(I3233
I1807
tp9396
a(I3593
I1807
tp9397
a(I3593
I2300
tp9398
a(I3233
I2300
tp9399
aa(lp9400
(I5033
I2247
tp9401
a(I5580
I2247
tp9402
a(I5580
I2747
tp9403
a(I5033
I2747
tp9404
aa(lp9405
(I173
I2313
tp9406
a(I613
I2313
tp9407
a(I613
I2713
tp9408
a(I173
I2713
tp9409
aaasS'DSC07808.JPG'
p9410
(lp9411
(lp9412
(lp9413
(I2467
I147
tp9414
a(I3880
I147
tp9415
a(I3880
I1340
tp9416
a(I2467
I1340
tp9417
aaa(lp9418
(lp9419
(I2520
I167
tp9420
a(I3947
I167
tp9421
a(I3947
I1280
tp9422
a(I2520
I1280
tp9423
aa(lp9424
(I1627
I740
tp9425
a(I1927
I740
tp9426
a(I1927
I1060
tp9427
a(I1627
I1060
tp9428
aa(lp9429
(I1353
I793
tp9430
a(I1580
I793
tp9431
a(I1580
I1053
tp9432
a(I1353
I1053
tp9433
aa(lp9434
(I160
I2760
tp9435
a(I227
I2760
tp9436
a(I227
I2760
tp9437
a(I160
I2760
tp9438
aa(lp9439
(I167
I2767
tp9440
a(I213
I2767
tp9441
a(I213
I2767
tp9442
a(I167
I2767
tp9443
aa(lp9444
(I147
I2773
tp9445
a(I340
I2773
tp9446
a(I340
I2967
tp9447
a(I147
I2967
tp9448
aaa(lp9449
(lp9450
(I2340
I213
tp9451
a(I3960
I213
tp9452
a(I3960
I1347
tp9453
a(I2340
I1347
tp9454
aa(lp9455
(I1327
I740
tp9456
a(I1920
I740
tp9457
a(I1920
I1107
tp9458
a(I1327
I1107
tp9459
aa(lp9460
(I1440
I2353
tp9461
a(I1987
I2353
tp9462
a(I1987
I2787
tp9463
a(I1440
I2787
tp9464
aaasS'DSC07823.JPG'
p9465
(lp9466
(lp9467
(lp9468
(I0
I107
tp9469
a(I220
I107
tp9470
a(I220
I480
tp9471
a(I0
I480
tp9472
aa(lp9473
(I4047
I-7
tp9474
a(I4640
I-7
tp9475
a(I4640
I367
tp9476
a(I4047
I367
tp9477
aa(lp9478
(I2380
I420
tp9479
a(I2780
I420
tp9480
a(I2780
I753
tp9481
a(I2380
I753
tp9482
aa(lp9483
(I3693
I1000
tp9484
a(I4187
I1000
tp9485
a(I4187
I1433
tp9486
a(I3693
I1433
tp9487
aaa(lp9488
(lp9489
(I3773
I1013
tp9490
a(I4240
I1013
tp9491
a(I4240
I1480
tp9492
a(I3773
I1480
tp9493
aa(lp9494
(I2380
I413
tp9495
a(I2760
I413
tp9496
a(I2760
I847
tp9497
a(I2380
I847
tp9498
aa(lp9499
(I13
I133
tp9500
a(I173
I133
tp9501
a(I173
I660
tp9502
a(I13
I660
tp9503
aa(lp9504
(I4253
I13
tp9505
a(I4660
I13
tp9506
a(I4660
I260
tp9507
a(I4253
I260
tp9508
aaa(lp9509
(lp9510
(I2440
I473
tp9511
a(I2733
I473
tp9512
a(I2733
I747
tp9513
a(I2440
I747
tp9514
aa(lp9515
(I3800
I1047
tp9516
a(I4187
I1047
tp9517
a(I4187
I1380
tp9518
a(I3800
I1380
tp9519
aa(lp9520
(I4207
I7
tp9521
a(I4673
I7
tp9522
a(I4673
I200
tp9523
a(I4207
I200
tp9524
aa(lp9525
(I0
I133
tp9526
a(I147
I133
tp9527
a(I147
I493
tp9528
a(I0
I493
tp9529
aaasS'DSC07805.JPG'
p9530
(lp9531
(lp9532
(lp9533
(I1453
I400
tp9534
a(I1987
I400
tp9535
a(I1987
I880
tp9536
a(I1453
I880
tp9537
aa(lp9538
(I-7
I3413
tp9539
a(I327
I3413
tp9540
a(I327
I3887
tp9541
a(I-7
I3887
tp9542
aaa(lp9543
(lp9544
(I1333
I380
tp9545
a(I2000
I380
tp9546
a(I2000
I880
tp9547
a(I1333
I880
tp9548
aaa(lp9549
(lp9550
(I1640
I507
tp9551
a(I1893
I507
tp9552
a(I1893
I767
tp9553
a(I1640
I767
tp9554
aaasS'DSC08132.JPG'
p9555
(lp9556
(lp9557
a(lp9558
a(lp9559
(lp9560
(I780
I3753
tp9561
a(I973
I3753
tp9562
a(I973
I3993
tp9563
a(I780
I3993
tp9564
aa(lp9565
(I-7
I3607
tp9566
a(I553
I3607
tp9567
a(I553
I3980
tp9568
a(I-7
I3980
tp9569
aaasS'DSC07979.JPG'
p9570
(lp9571
(lp9572
(lp9573
(I200
I1067
tp9574
a(I253
I1067
tp9575
a(I253
I1073
tp9576
a(I200
I1073
tp9577
aa(lp9578
(I240
I1047
tp9579
a(I607
I1047
tp9580
a(I607
I1453
tp9581
a(I240
I1453
tp9582
aaa(lp9583
(lp9584
(I5187
I1653
tp9585
a(I5980
I1653
tp9586
a(I5980
I2853
tp9587
a(I5187
I2853
tp9588
aaa(lp9589
(lp9590
(I5060
I1633
tp9591
a(I5993
I1633
tp9592
a(I5993
I2753
tp9593
a(I5060
I2753
tp9594
aaasS'DSC07917.JPG'
p9595
(lp9596
(lp9597
a(lp9598
a(lp9599
asS'DSC08142.JPG'
p9600
(lp9601
(lp9602
(lp9603
(I3933
I1000
tp9604
a(I5913
I1000
tp9605
a(I5913
I2213
tp9606
a(I3933
I2213
tp9607
aaa(lp9608
(lp9609
(I3860
I3593
tp9610
a(I4013
I3593
tp9611
a(I4013
I3640
tp9612
a(I3860
I3640
tp9613
aa(lp9614
(I3887
I3620
tp9615
a(I3887
I3620
tp9616
a(I3887
I3627
tp9617
a(I3887
I3627
tp9618
aa(lp9619
(I3880
I3587
tp9620
a(I3880
I3587
tp9621
a(I3880
I3587
tp9622
a(I3880
I3587
tp9623
aa(lp9624
(I3880
I3587
tp9625
a(I3880
I3587
tp9626
a(I3880
I3587
tp9627
a(I3880
I3587
tp9628
aa(lp9629
(I3860
I3600
tp9630
a(I4160
I3600
tp9631
a(I4160
I3887
tp9632
a(I3860
I3887
tp9633
aa(lp9634
(I4620
I1307
tp9635
a(I5147
I1307
tp9636
a(I5147
I1853
tp9637
a(I4620
I1853
tp9638
aaa(lp9639
(lp9640
(I3847
I980
tp9641
a(I5860
I980
tp9642
a(I5860
I2573
tp9643
a(I3847
I2573
tp9644
aaasS'DSC08067.JPG'
p9645
(lp9646
(lp9647
(lp9648
(I2307
I3213
tp9649
a(I2313
I3213
tp9650
a(I2313
I3213
tp9651
a(I2307
I3213
tp9652
aa(lp9653
(I2320
I3207
tp9654
a(I2320
I3207
tp9655
a(I2320
I3207
tp9656
a(I2320
I3207
tp9657
aa(lp9658
(I2307
I3200
tp9659
a(I2593
I3200
tp9660
a(I2593
I3207
tp9661
a(I2307
I3207
tp9662
aa(lp9663
(I2253
I3200
tp9664
a(I2587
I3200
tp9665
a(I2587
I3407
tp9666
a(I2253
I3407
tp9667
aaa(lp9668
(lp9669
(I5000
I1773
tp9670
a(I5573
I1773
tp9671
a(I5573
I2280
tp9672
a(I5000
I2280
tp9673
aa(lp9674
(I2220
I3120
tp9675
a(I2707
I3120
tp9676
a(I2707
I3507
tp9677
a(I2220
I3507
tp9678
aaa(lp9679
(lp9680
(I2227
I3113
tp9681
a(I2620
I3113
tp9682
a(I2620
I3487
tp9683
a(I2227
I3487
tp9684
aa(lp9685
(I5113
I1820
tp9686
a(I5447
I1820
tp9687
a(I5447
I2193
tp9688
a(I5113
I2193
tp9689
aaasS'DSC08244.JPG'
p9690
(lp9691
(lp9692
(lp9693
(I3687
I1960
tp9694
a(I4507
I1960
tp9695
a(I4507
I2607
tp9696
a(I3687
I2607
tp9697
aaa(lp9698
(lp9699
(I3667
I1820
tp9700
a(I4133
I1820
tp9701
a(I4133
I2273
tp9702
a(I3667
I2273
tp9703
aa(lp9704
(I3660
I2280
tp9705
a(I4313
I2280
tp9706
a(I4313
I2820
tp9707
a(I3660
I2820
tp9708
aa(lp9709
(I3893
I1800
tp9710
a(I4647
I1800
tp9711
a(I4647
I2373
tp9712
a(I3893
I2373
tp9713
aaa(lp9714
(lp9715
(I3627
I1873
tp9716
a(I4507
I1873
tp9717
a(I4507
I2840
tp9718
a(I3627
I2840
tp9719
aaasS'DSC08075.JPG'
p9720
(lp9721
(lp9722
(lp9723
(I0
I700
tp9724
a(I1427
I700
tp9725
a(I1427
I2700
tp9726
a(I0
I2700
tp9727
aa(lp9728
(I260
I2813
tp9729
a(I2033
I2813
tp9730
a(I2033
I3953
tp9731
a(I260
I3953
tp9732
aa(lp9733
(I2027
I2073
tp9734
a(I5360
I2073
tp9735
a(I5360
I3947
tp9736
a(I2027
I3947
tp9737
aaa(lp9738
(lp9739
(I-7
I393
tp9740
a(I2000
I393
tp9741
a(I2000
I2820
tp9742
a(I-7
I2820
tp9743
aa(lp9744
(I0
I2607
tp9745
a(I1587
I2607
tp9746
a(I1587
I3973
tp9747
a(I0
I3973
tp9748
aa(lp9749
(I1120
I2633
tp9750
a(I2467
I2633
tp9751
a(I2467
I3973
tp9752
a(I1120
I3973
tp9753
aa(lp9754
(I1527
I2040
tp9755
a(I3967
I2040
tp9756
a(I3967
I3973
tp9757
a(I1527
I3973
tp9758
aa(lp9759
(I5713
I3240
tp9760
a(I5993
I3240
tp9761
a(I5993
I3833
tp9762
a(I5713
I3833
tp9763
aa(lp9764
(I4727
I3447
tp9765
a(I5820
I3447
tp9766
a(I5820
I3987
tp9767
a(I4727
I3987
tp9768
aa(lp9769
(I3353
I2607
tp9770
a(I5113
I2607
tp9771
a(I5113
I3973
tp9772
a(I3353
I3973
tp9773
aaa(lp9774
(lp9775
(I0
I793
tp9776
a(I1547
I793
tp9777
a(I1547
I2713
tp9778
a(I0
I2713
tp9779
aa(lp9780
(I27
I2947
tp9781
a(I1393
I2947
tp9782
a(I1393
I3993
tp9783
a(I27
I3993
tp9784
aa(lp9785
(I1400
I2947
tp9786
a(I2113
I2947
tp9787
a(I2113
I3987
tp9788
a(I1400
I3987
tp9789
aa(lp9790
(I2113
I2173
tp9791
a(I3833
I2173
tp9792
a(I3833
I3987
tp9793
a(I2113
I3987
tp9794
aa(lp9795
(I3860
I2913
tp9796
a(I5020
I2913
tp9797
a(I5020
I3967
tp9798
a(I3860
I3967
tp9799
aa(lp9800
(I5047
I3620
tp9801
a(I5480
I3620
tp9802
a(I5480
I3960
tp9803
a(I5047
I3960
tp9804
aa(lp9805
(I5807
I3287
tp9806
a(I5980
I3287
tp9807
a(I5980
I3813
tp9808
a(I5807
I3813
tp9809
aaasS'DSC07964.JPG'
p9810
(lp9811
(lp9812
(lp9813
(I2973
I0
tp9814
a(I3793
I0
tp9815
a(I3793
I733
tp9816
a(I2973
I733
tp9817
aa(lp9818
(I4013
I0
tp9819
a(I5493
I0
tp9820
a(I5493
I387
tp9821
a(I4013
I387
tp9822
aa(lp9823
(I3193
I2380
tp9824
a(I4493
I2380
tp9825
a(I4493
I3540
tp9826
a(I3193
I3540
tp9827
aa(lp9828
(I2573
I2740
tp9829
a(I3020
I2740
tp9830
a(I3020
I2980
tp9831
a(I2573
I2980
tp9832
aa(lp9833
(I2880
I3813
tp9834
a(I3153
I3813
tp9835
a(I3153
I3973
tp9836
a(I2880
I3973
tp9837
aa(lp9838
(I893
I140
tp9839
a(I1167
I140
tp9840
a(I1167
I407
tp9841
a(I893
I407
tp9842
aaa(lp9843
(lp9844
(I2887
I13
tp9845
a(I3827
I13
tp9846
a(I3827
I787
tp9847
a(I2887
I787
tp9848
aa(lp9849
(I4120
I20
tp9850
a(I5500
I20
tp9851
a(I5500
I467
tp9852
a(I4120
I467
tp9853
aa(lp9854
(I3280
I2433
tp9855
a(I4507
I2433
tp9856
a(I4507
I3547
tp9857
a(I3280
I3547
tp9858
aa(lp9859
(I2607
I2707
tp9860
a(I3047
I2707
tp9861
a(I3047
I3047
tp9862
a(I2607
I3047
tp9863
aaa(lp9864
(lp9865
(I3260
I2467
tp9866
a(I4393
I2467
tp9867
a(I4393
I3420
tp9868
a(I3260
I3420
tp9869
aa(lp9870
(I2987
I0
tp9871
a(I3660
I0
tp9872
a(I3660
I700
tp9873
a(I2987
I700
tp9874
aa(lp9875
(I4213
I-7
tp9876
a(I5507
I-7
tp9877
a(I5507
I420
tp9878
a(I4213
I420
tp9879
aa(lp9880
(I880
I133
tp9881
a(I1187
I133
tp9882
a(I1187
I473
tp9883
a(I880
I473
tp9884
aa(lp9885
(I2633
I2753
tp9886
a(I2993
I2753
tp9887
a(I2993
I3073
tp9888
a(I2633
I3073
tp9889
aaas.