(lp0
(lp1
S'http://128.84.3.178/ethan/weed_cover_images/goreLab_08_12_2016/DSC07966.JPG'
p2
aI1371
aI3742
aI11098
aa(lp3
S'http://128.84.3.178/ethan/weed_cover_images/goreLab_08_12_2016/DSC08247.JPG'
p4
aI3869
aI3728
aI21951
aa(lp5
S'http://128.84.3.178/ethan/weed_cover_images/goreLab_08_12_2016/DSC07828.JPG'
p6
aI5989
aI25
aI41413
aa(lp7
S'http://128.84.3.178/ethan/weed_cover_images/goreLab_08_12_2016/DSC08237.JPG'
p8
aI4677
aI2699
aI9673
aa(lp9
S'http://128.84.3.178/ethan/weed_cover_images/goreLab_08_12_2016/DSC08032.JPG'
p10
aI2410
aI2395
aI39481
aa(lp11
S'http://128.84.3.178/ethan/weed_cover_images/goreLab_08_12_2016/DSC08021.JPG'
p12
aI5844
aI2583
aI22407
aa(lp13
S'http://128.84.3.178/ethan/weed_cover_images/goreLab_08_12_2016/DSC08113.JPG'
p14
aI357
aI2696
aI31482
aa(lp15
S'http://128.84.3.178/ethan/weed_cover_images/goreLab_08_12_2016/DSC08122.JPG'
p16
aI4216
aI3395
aI43098
aa(lp17
S'http://128.84.3.178/ethan/weed_cover_images/goreLab_08_12_2016/DSC08250.JPG'
p18
aI1349
aI556
aI8020
aa(lp19
S'http://128.84.3.178/ethan/weed_cover_images/goreLab_08_12_2016/DSC08234.JPG'
p20
aI54
aI3135
aI13935
aa(lp21
S'http://128.84.3.178/ethan/weed_cover_images/goreLab_08_12_2016/DSC08238.JPG'
p22
aI3711
aI2755
aI33800
aa(lp23
S'http://128.84.3.178/ethan/weed_cover_images/goreLab_08_12_2016/DSC07925.JPG'
p24
aI3603
aI3651
aI20304
aa(lp25
S'http://128.84.3.178/ethan/weed_cover_images/goreLab_08_12_2016/DSC08094.JPG'
p26
aI2127
aI431
aI17227
aa(lp27
S'http://128.84.3.178/ethan/weed_cover_images/goreLab_08_12_2016/DSC07957.JPG'
p28
aI1468
aI1400
aI44998
aa(lp29
S'http://128.84.3.178/ethan/weed_cover_images/goreLab_08_12_2016/DSC08042.JPG'
p30
aI1320
aI739
aI40691
aa(lp31
S'http://128.84.3.178/ethan/weed_cover_images/goreLab_08_12_2016/DSC08075.JPG'
p32
aI1310
aI155
aI26257
aa(lp33
S'http://128.84.3.178/ethan/weed_cover_images/goreLab_08_12_2016/DSC08128.JPG'
p34
aI1178
aI1890
aI47613
aa(lp35
S'http://128.84.3.178/ethan/weed_cover_images/goreLab_08_12_2016/DSC08036.JPG'
p36
aI3954
aI2951
aI28385
aa(lp37
S'http://128.84.3.178/ethan/weed_cover_images/goreLab_08_12_2016/DSC08145.JPG'
p38
aI2957
aI285
aI13467
aa(lp39
S'http://128.84.3.178/ethan/weed_cover_images/goreLab_08_12_2016/DSC08135.JPG'
p40
aI4697
aI7
aI34047
aa(lp41
S'http://128.84.3.178/ethan/weed_cover_images/goreLab_08_12_2016/DSC08134.JPG'
p42
aI4095
aI1211
aI27682
aa(lp43
S'http://128.84.3.178/ethan/weed_cover_images/goreLab_08_12_2016/DSC07815.JPG'
p44
aI3715
aI987
aI46663
aa(lp45
S'http://128.84.3.178/ethan/weed_cover_images/goreLab_08_12_2016/DSC08240.JPG'
p46
aI2745
aI514
aI22635
aa(lp47
S'http://128.84.3.178/ethan/weed_cover_images/goreLab_08_12_2016/DSC07907.JPG'
p48
aI2395
aI3461
aI24066
aa(lp49
S'http://128.84.3.178/ethan/weed_cover_images/goreLab_08_12_2016/DSC07983.JPG'
p50
aI475
aI2672
aI36422
aa(lp51
S'http://128.84.3.178/ethan/weed_cover_images/goreLab_08_12_2016/DSC08147.JPG'
p52
aI3121
aI2654
aI35016
aa(lp53
S'http://128.84.3.178/ethan/weed_cover_images/goreLab_08_12_2016/DSC08235.JPG'
p54
aI4824
aI2615
aI31957
aa(lp55
S'http://128.84.3.178/ethan/weed_cover_images/goreLab_08_12_2016/DSC07930.JPG'
p56
aI5558
aI596
aI48354
aa(lp57
S'http://128.84.3.178/ethan/weed_cover_images/goreLab_08_12_2016/DSC07824.JPG'
p58
aI2223
aI1436
aI12048
aa(lp59
S'http://128.84.3.178/ethan/weed_cover_images/goreLab_08_12_2016/DSC07927.JPG'
p60
aI1019
aI3802
aI5643
aa(lp61
S'http://128.84.3.178/ethan/weed_cover_images/goreLab_08_12_2016/DSC07939.JPG'
p62
aI2660
aI3650
aI41673
aa(lp63
S'http://128.84.3.178/ethan/weed_cover_images/goreLab_08_12_2016/DSC07979.JPG'
p64
aI4195
aI2283
aI3002
aa(lp65
S'http://128.84.3.178/ethan/weed_cover_images/goreLab_08_12_2016/DSC08072.JPG'
p66
aI1911
aI1346
aI37353
aa(lp67
S'http://128.84.3.178/ethan/weed_cover_images/goreLab_08_12_2016/DSC08242.JPG'
p68
aI4243
aI271
aI35719
aa(lp69
S'http://128.84.3.178/ethan/weed_cover_images/goreLab_08_12_2016/DSC08077.JPG'
p70
aI1019
aI739
aI47385
aa(lp71
S'http://128.84.3.178/ethan/weed_cover_images/goreLab_08_12_2016/DSC08121.JPG'
p72
aI4063
aI2105
aI45454
aa(lp73
S'http://128.84.3.178/ethan/weed_cover_images/goreLab_08_12_2016/DSC08071.JPG'
p74
aI819
aI657
aI43801
aa(lp75
S'http://128.84.3.178/ethan/weed_cover_images/goreLab_08_12_2016/DSC07963.JPG'
p76
aI5474
aI140
aI11573
aa(lp77
S'http://128.84.3.178/ethan/weed_cover_images/goreLab_08_12_2016/DSC07980.JPG'
p78
aI4375
aI3696
aI44048
aa(lp79
S'http://128.84.3.178/ethan/weed_cover_images/goreLab_08_12_2016/DSC08011.JPG'
p80
aI4995
aI2187
aI49760
aa(lp81
S'http://128.84.3.178/ethan/weed_cover_images/goreLab_08_12_2016/DSC08137.JPG'
p82
aI4586
aI2665
aI49038
aa(lp83
S'http://128.84.3.178/ethan/weed_cover_images/goreLab_08_12_2016/DSC07910.JPG'
p84
aI1470
aI2585
aI42148
aa(lp85
S'http://128.84.3.178/ethan/weed_cover_images/goreLab_08_12_2016/DSC08124.JPG'
p86
aI5036
aI3748
aI20076
aa(lp87
S'http://128.84.3.178/ethan/weed_cover_images/goreLab_08_12_2016/DSC07918.JPG'
p88
aI1928
aI3697
aI24306
aa(lp89
S'http://128.84.3.178/ethan/weed_cover_images/goreLab_08_12_2016/DSC08232.JPG'
p90
aI982
aI1472
aI15581
aa(lp91
S'http://128.84.3.178/ethan/weed_cover_images/goreLab_08_12_2016/DSC07973.JPG'
p92
aI2940
aI487
aI50007
aa(lp93
S'http://128.84.3.178/ethan/weed_cover_images/goreLab_08_12_2016/DSC08249.JPG'
p94
aI3422
aI951
aI53123
aa(lp95
S'http://128.84.3.178/ethan/weed_cover_images/goreLab_08_12_2016/DSC07916.JPG'
p96
aI668
aI2747
aI27435
aa(lp97
S'http://128.84.3.178/ethan/weed_cover_images/goreLab_08_12_2016/DSC07968.JPG'
p98
aI1945
aI1784
aI19848
aa(lp99
S'http://128.84.3.178/ethan/weed_cover_images/goreLab_08_12_2016/DSC08115.JPG'
p100
aI3416
aI1369
aI52401
aa(lp101
S'http://128.84.3.178/ethan/weed_cover_images/goreLab_08_12_2016/DSC08066.JPG'
p102
aI285
aI900
aI38056
aa(lp103
S'http://128.84.3.178/ethan/weed_cover_images/goreLab_08_12_2016/DSC08070.JPG'
p104
aI4692
aI107
aI11801
aa(lp105
S'http://128.84.3.178/ethan/weed_cover_images/goreLab_08_12_2016/DSC07917.JPG'
p106
aI3222
aI2540
aI4959
aa(lp107
S'http://128.84.3.178/ethan/weed_cover_images/goreLab_08_12_2016/DSC08118.JPG'
p108
aI5511
aI2255
aI44542
aa(lp109
S'http://128.84.3.178/ethan/weed_cover_images/goreLab_08_12_2016/DSC07977.JPG'
p110
aI5675
aI113
aI16049
aa(lp111
S'http://128.84.3.178/ethan/weed_cover_images/goreLab_08_12_2016/DSC07833.JPG'
p112
aI4714
aI1857
aI51907
aa(lp113
S'http://128.84.3.178/ethan/weed_cover_images/goreLab_08_12_2016/DSC08025.JPG'
p114
aI2796
aI1415
aI26029
aa(lp115
S'http://128.84.3.178/ethan/weed_cover_images/goreLab_08_12_2016/DSC07987.JPG'
p116
aI3735
aI3575
aI35244
aa(lp117
S'http://128.84.3.178/ethan/weed_cover_images/goreLab_08_12_2016/DSC07834.JPG'
p118
aI4800
aI899
aI4452
aa(lp119
S'http://128.84.3.178/ethan/weed_cover_images/goreLab_08_12_2016/DSC08132.JPG'
p120
aI4679
aI587
aI21723
aa(lp121
S'http://128.84.3.178/ethan/weed_cover_images/goreLab_08_12_2016/DSC08017.JPG'
p122
aI633
aI3609
aI34294
aa(lp123
S'http://128.84.3.178/ethan/weed_cover_images/goreLab_08_12_2016/DSC08073.JPG'
p124
aI2669
aI2438
aI4712
aa(lp125
S'http://128.84.3.178/ethan/weed_cover_images/goreLab_08_12_2016/DSC08230.JPG'
p126
aI4970
aI1211
aI30760
aa(lp127
S'http://128.84.3.178/ethan/weed_cover_images/goreLab_08_12_2016/DSC08034.JPG'
p128
aI3755
aI3236
aI40235
aa(lp129
S'http://128.84.3.178/ethan/weed_cover_images/goreLab_08_12_2016/DSC07929.JPG'
p130
aI3295
aI3194
aI19152
aa(lp131
S'http://128.84.3.178/ethan/weed_cover_images/goreLab_08_12_2016/DSC08040.JPG'
p132
aI1906
aI2625
aI5187
aa(lp133
S'http://128.84.3.178/ethan/weed_cover_images/goreLab_08_12_2016/DSC08067.JPG'
p134
aI2550
aI811
aI32432
aa(lp135
S'http://128.84.3.178/ethan/weed_cover_images/goreLab_08_12_2016/DSC08076.JPG'
p136
aI5320
aI2422
aI29335
aa(lp137
S'http://128.84.3.178/ethan/weed_cover_images/goreLab_08_12_2016/DSC07810.JPG'
p138
aI4858
aI3985
aI34541
aa(lp139
S'http://128.84.3.178/ethan/weed_cover_images/goreLab_08_12_2016/DSC08114.JPG'
p140
aI2612
aI59
aI3730
aa(lp141
S'http://128.84.3.178/ethan/weed_cover_images/goreLab_08_12_2016/DSC07811.JPG'
p142
aI2084
aI588
aI36650
aa(lp143
S'http://128.84.3.178/ethan/weed_cover_images/goreLab_08_12_2016/DSC08030.JPG'
p144
aI4666
aI68
aI27188
aa(lp145
S'http://128.84.3.178/ethan/weed_cover_images/goreLab_08_12_2016/DSC08090.JPG'
p146
aI1154
aI2644
aI21248
aa(lp147
S'http://128.84.3.178/ethan/weed_cover_images/goreLab_08_12_2016/DSC08062.JPG'
p148
aI93
aI3939
aI7575
aa(lp149
S'http://128.84.3.178/ethan/weed_cover_images/goreLab_08_12_2016/DSC07933.JPG'
p150
aI4422
aI970
aI2071
aa(lp151
S'http://128.84.3.178/ethan/weed_cover_images/goreLab_08_12_2016/DSC07959.JPG'
p152
aI493
aI791
aI23598
aa(lp153
S'http://128.84.3.178/ethan/weed_cover_images/goreLab_08_12_2016/DSC08024.JPG'
p154
aI1119
aI1205
aI31007
aa(lp155
S'http://128.84.3.178/ethan/weed_cover_images/goreLab_08_12_2016/DSC08130.JPG'
p156
aI3736
aI2013
aI19620
aa(lp157
S'http://128.84.3.178/ethan/weed_cover_images/goreLab_08_12_2016/DSC07989.JPG'
p158
aI5271
aI2078
aI31729
aa(lp159
S'http://128.84.3.178/ethan/weed_cover_images/goreLab_08_12_2016/DSC07958.JPG'
p160
aI1226
aI2453
aI14878
aa(lp161
S'http://128.84.3.178/ethan/weed_cover_images/goreLab_08_12_2016/DSC07985.JPG'
p162
aI3890
aI2924
aI18190
aa(lp163
S'http://128.84.3.178/ethan/weed_cover_images/goreLab_08_12_2016/DSC08146.JPG'
p164
aI1662
aI1823
aI6821
aa(lp165
S'http://128.84.3.178/ethan/weed_cover_images/goreLab_08_12_2016/DSC08015.JPG'
p166
aI2187
aI1280
aI10395
aa(lp167
S'http://128.84.3.178/ethan/weed_cover_images/goreLab_08_12_2016/DSC08129.JPG'
p168
aI4872
aI2969
aI228
aa(lp169
S'http://128.84.3.178/ethan/weed_cover_images/goreLab_08_12_2016/DSC07820.JPG'
p170
aI5576
aI2008
aI456
aa(lp171
S'http://128.84.3.178/ethan/weed_cover_images/goreLab_08_12_2016/DSC07818.JPG'
p172
aI37
aI639
aI18905
aa(lp173
S'http://128.84.3.178/ethan/weed_cover_images/goreLab_08_12_2016/DSC08020.JPG'
p174
aI1632
aI861
aI51185
aa(lp175
S'http://128.84.3.178/ethan/weed_cover_images/goreLab_08_12_2016/DSC07814.JPG'
p176
aI1689
aI2026
aI33344
aa(lp177
S'http://128.84.3.178/ethan/weed_cover_images/goreLab_08_12_2016/DSC08031.JPG'
p178
aI464
aI2716
aI39741
aa(lp179
S'http://128.84.3.178/ethan/weed_cover_images/goreLab_08_12_2016/DSC07827.JPG'
p180
aI1957
aI2598
aI42623
aa(lp181
S'http://128.84.3.178/ethan/weed_cover_images/goreLab_08_12_2016/DSC07813.JPG'
p182
aI5533
aI1584
aI52629
aa(lp183
S'http://128.84.3.178/ethan/weed_cover_images/goreLab_08_12_2016/DSC08041.JPG'
p184
aI3134
aI132
aI8248
aa(lp185
S'http://128.84.3.178/ethan/weed_cover_images/goreLab_08_12_2016/DSC08089.JPG'
p186
aI4647
aI3743
aI36878
aa(lp187
S'http://128.84.3.178/ethan/weed_cover_images/goreLab_08_12_2016/DSC08233.JPG'
p188
aI3479
aI771
aI1843
aa(lp189
S'http://128.84.3.178/ethan/weed_cover_images/goreLab_08_12_2016/DSC07956.JPG'
p190
aI445
aI2698
aI44295
aa(lp191
S'http://128.84.3.178/ethan/weed_cover_images/goreLab_08_12_2016/DSC08037.JPG'
p192
aI95
aI1853
aI26713
aa(lp193
S'http://128.84.3.178/ethan/weed_cover_images/goreLab_08_12_2016/DSC08239.JPG'
p194
aI3141
aI500
aI25801
aa(lp195
S'http://128.84.3.178/ethan/weed_cover_images/goreLab_08_12_2016/DSC08251.JPG'
p196
aI4205
aI321
aI25541
aa(lp197
S'http://128.84.3.178/ethan/weed_cover_images/goreLab_08_12_2016/DSC08028.JPG'
p198
aI2384
aI2107
aI39988
aa(lp199
S'http://128.84.3.178/ethan/weed_cover_images/goreLab_08_12_2016/DSC07830.JPG'
p200
aI5682
aI3615
aI12979
aa(lp201
S'http://128.84.3.178/ethan/weed_cover_images/goreLab_08_12_2016/DSC07986.JPG'
p202
aI4885
aI2299
aI3977
aa(lp203
S'http://128.84.3.178/ethan/weed_cover_images/goreLab_08_12_2016/DSC07975.JPG'
p204
aI898
aI3100
aI7068
aa(lp205
S'http://128.84.3.178/ethan/weed_cover_images/goreLab_08_12_2016/DSC08029.JPG'
p206
aI4606
aI215
aI15353
aa(lp207
S'http://128.84.3.178/ethan/weed_cover_images/goreLab_08_12_2016/DSC08064.JPG'
p208
aI5777
aI628
aI17455
aa(lp209
S'http://128.84.3.178/ethan/weed_cover_images/goreLab_08_12_2016/DSC07961.JPG'
p210
aI2575
aI3245
aI30532
aa(lp211
S'http://128.84.3.178/ethan/weed_cover_images/goreLab_08_12_2016/DSC07936.JPG'
p212
aI3425
aI2205
aI6099
aa(lp213
S'http://128.84.3.178/ethan/weed_cover_images/goreLab_08_12_2016/DSC08136.JPG'
p214
aI2994
aI1956
aI13695
aa(lp215
S'http://128.84.3.178/ethan/weed_cover_images/goreLab_08_12_2016/DSC07928.JPG'
p216
aI5686
aI3788
aI45948
aa(lp217
S'http://128.84.3.178/ethan/weed_cover_images/goreLab_08_12_2016/DSC07923.JPG'
p218
aI3564
aI403
aI36175
aa(lp219
S'http://128.84.3.178/ethan/weed_cover_images/goreLab_08_12_2016/DSC08138.JPG'
p220
aI2728
aI263
aI38303
aa(lp221
S'http://128.84.3.178/ethan/weed_cover_images/goreLab_08_12_2016/DSC08079.JPG'
p222
aI5920
aI1302
aI45701
aa(lp223
S'http://128.84.3.178/ethan/weed_cover_images/goreLab_08_12_2016/DSC08084.JPG'
p224
aI88
aI3427
aI1615
aa(lp225
S'http://128.84.3.178/ethan/weed_cover_images/goreLab_08_12_2016/DSC07931.JPG'
p226
aI2281
aI2496
aI42376
aa(lp227
S'http://128.84.3.178/ethan/weed_cover_images/goreLab_08_12_2016/DSC07807.JPG'
p228
aI3966
aI3653
aI38987
aa(lp229
S'http://128.84.3.178/ethan/weed_cover_images/goreLab_08_12_2016/DSC07817.JPG'
p230
aI5300
aI863
aI16999
aa(lp231
S'http://128.84.3.178/ethan/weed_cover_images/goreLab_08_12_2016/DSC08081.JPG'
p232
aI1411
aI2504
aI23351
aa(lp233
S'http://128.84.3.178/ethan/weed_cover_images/goreLab_08_12_2016/DSC08039.JPG'
p234
aI1515
aI766
aI15809
aa(lp235
S'http://128.84.3.178/ethan/weed_cover_images/goreLab_08_12_2016/DSC07908.JPG'
p236
aI2178
aI1948
aI43573
aa(lp237
S'http://128.84.3.178/ethan/weed_cover_images/goreLab_08_12_2016/DSC08086.JPG'
p238
aI3320
aI2311
aI33116
aa(lp239
S'http://128.84.3.178/ethan/weed_cover_images/goreLab_08_12_2016/DSC08236.JPG'
p240
aI103
aI137
aI5415
aa(lp241
S'http://128.84.3.178/ethan/weed_cover_images/goreLab_08_12_2016/DSC07976.JPG'
p242
aI91
aI1256
aI48107
aa(lp243
S'http://128.84.3.178/ethan/weed_cover_images/goreLab_08_12_2016/DSC07816.JPG'
p244
aI2048
aI2978
aI46188
aa(lp245
S'http://128.84.3.178/ethan/weed_cover_images/goreLab_08_12_2016/DSC07911.JPG'
p246
aI350
aI1320
aI10642
aa(lp247
S'http://128.84.3.178/ethan/weed_cover_images/goreLab_08_12_2016/DSC08088.JPG'
p248
aI4078
aI3611
aI49513
aa(lp249
S'http://128.84.3.178/ethan/weed_cover_images/goreLab_08_12_2016/DSC08125.JPG'
p250
aI1065
aI2904
aI32888
aa(lp251
S'http://128.84.3.178/ethan/weed_cover_images/goreLab_08_12_2016/DSC07806.JPG'
p252
aI4841
aI3548
aI35947
aa(lp253
S'http://128.84.3.178/ethan/weed_cover_images/goreLab_08_12_2016/DSC07831.JPG'
p254
aI522
aI3600
aI49266
aa(lp255
S'http://128.84.3.178/ethan/weed_cover_images/goreLab_08_12_2016/DSC08065.JPG'
p256
aI2306
aI3422
aI31254
aa(lp257
S'http://128.84.3.178/ethan/weed_cover_images/goreLab_08_12_2016/DSC07960.JPG'
p258
aI276
aI2991
aI1140
aa(lp259
S'http://128.84.3.178/ethan/weed_cover_images/goreLab_08_12_2016/DSC07826.JPG'
p260
aI729
aI1216
aI42851
aa(lp261
S'http://128.84.3.178/ethan/weed_cover_images/goreLab_08_12_2016/DSC07924.JPG'
p262
aI1477
aI2198
aI6346
aa(lp263
S'http://128.84.3.178/ethan/weed_cover_images/goreLab_08_12_2016/DSC07912.JPG'
p264
aI4626
aI3835
aI41920
aa(lp265
S'http://128.84.3.178/ethan/weed_cover_images/goreLab_08_12_2016/DSC07971.JPG'
p266
aI5196
aI2685
aI30304
aa(lp267
S'http://128.84.3.178/ethan/weed_cover_images/goreLab_08_12_2016/DSC08074.JPG'
p268
aI3689
aI1589
aI52876
aa(lp269
S'http://128.84.3.178/ethan/weed_cover_images/goreLab_08_12_2016/DSC08093.JPG'
p270
aI2454
aI438
aI10870
aa(lp271
S'http://128.84.3.178/ethan/weed_cover_images/goreLab_08_12_2016/DSC08148.JPG'
p272
aI310
aI3530
aI23826
aa(lp273
S'http://128.84.3.178/ethan/weed_cover_images/goreLab_08_12_2016/DSC08246.JPG'
p274
aI1552
aI367
aI32185
aa(lp275
S'http://128.84.3.178/ethan/weed_cover_images/goreLab_08_12_2016/DSC08023.JPG'
p276
aI2496
aI2070
aI38759
aa(lp277
S'http://128.84.3.178/ethan/weed_cover_images/goreLab_08_12_2016/DSC08019.JPG'
p278
aI4358
aI2123
aI47138
aa(lp279
S'http://128.84.3.178/ethan/weed_cover_images/goreLab_08_12_2016/DSC08244.JPG'
p280
aI2870
aI365
aI51413
aa(lp281
S'http://128.84.3.178/ethan/weed_cover_images/goreLab_08_12_2016/DSC07819.JPG'
p282
aI2692
aI3949
aI3242
aa(lp283
S'http://128.84.3.178/ethan/weed_cover_images/goreLab_08_12_2016/DSC08035.JPG'
p284
aI2527
aI83
aI12276
aa(lp285
S'http://128.84.3.178/ethan/weed_cover_images/goreLab_08_12_2016/DSC08014.JPG'
p286
aI5932
aI1947
aI17962
aa(lp287
S'http://128.84.3.178/ethan/weed_cover_images/goreLab_08_12_2016/DSC07812.JPG'
p288
aI5045
aI3127
aI15125
aa(lp289
S'http://128.84.3.178/ethan/weed_cover_images/goreLab_08_12_2016/DSC08069.JPG'
p290
aI176
aI3528
aI19392
aa(lp291
S'http://128.84.3.178/ethan/weed_cover_images/goreLab_08_12_2016/DSC07822.JPG'
p292
aI557
aI1449
aI20564
aa(lp293
S'http://128.84.3.178/ethan/weed_cover_images/goreLab_08_12_2016/DSC08245.JPG'
p294
aI1717
aI2924
aI27929
aa(lp295
S'http://128.84.3.178/ethan/weed_cover_images/goreLab_08_12_2016/DSC08141.JPG'
p296
aI2577
aI1518
aI40919
aa(lp297
S'http://128.84.3.178/ethan/weed_cover_images/goreLab_08_12_2016/DSC07935.JPG'
p298
aI1269
aI2003
aI30076
aa(lp299
S'http://128.84.3.178/ethan/weed_cover_images/goreLab_08_12_2016/DSC08068.JPG'
p300
aI5324
aI3712
aI45226
aa(lp301
S'http://128.84.3.178/ethan/weed_cover_images/goreLab_08_12_2016/DSC07808.JPG'
p302
aI1573
aI2857
aI33572
aa(lp303
S'http://128.84.3.178/ethan/weed_cover_images/goreLab_08_12_2016/DSC08243.JPG'
p304
aI5313
aI1559
aI24800
aa(lp305
S'http://128.84.3.178/ethan/weed_cover_images/goreLab_08_12_2016/DSC08119.JPG'
p306
aI3869
aI482
aI43345
aa(lp307
S'http://128.84.3.178/ethan/weed_cover_images/goreLab_08_12_2016/DSC07909.JPG'
p308
aI2459
aI1026
aI50710
aa(lp309
S'http://128.84.3.178/ethan/weed_cover_images/goreLab_08_12_2016/DSC07978.JPG'
p310
aI2222
aI788
aI8476
aa(lp311
S'http://128.84.3.178/ethan/weed_cover_images/goreLab_08_12_2016/DSC08143.JPG'
p312
aI1735
aI902
aI52154
aa(lp313
S'http://128.84.3.178/ethan/weed_cover_images/goreLab_08_12_2016/DSC07982.JPG'
p314
aI3548
aI2851
aI28157
aa(lp315
S'http://128.84.3.178/ethan/weed_cover_images/goreLab_08_12_2016/DSC08091.JPG'
p316
aI3995
aI3095
aI46416
aa.