(lp0
(lp1
S'http://128.84.3.178/ethan/weed_cover_images/goreLab_08_12_2016/DSC08137.JPG'
p2
aI4586
aI2665
aI49038
aa(lp3
S'http://128.84.3.178/ethan/weed_cover_images/goreLab_08_12_2016/DSC07927.JPG'
p4
aI1019
aI3802
aI5643
aa(lp5
S'http://128.84.3.178/ethan/weed_cover_images/goreLab_08_12_2016/DSC08068.JPG'
p6
aI5324
aI3712
aI45226
aa(lp7
S'http://128.84.3.178/ethan/weed_cover_images/goreLab_08_12_2016/DSC07909.JPG'
p8
aI2459
aI1026
aI50710
aa(lp9
S'http://128.84.3.178/ethan/weed_cover_images/goreLab_08_12_2016/DSC07804.JPG'
p10
aI5944
aI3459
aI22179
aa(lp11
S'http://128.84.3.178/ethan/weed_cover_images/goreLab_08_12_2016/DSC07827.JPG'
p12
aI1957
aI2598
aI42623
aa(lp13
S'http://128.84.3.178/ethan/weed_cover_images/goreLab_08_12_2016/DSC07988.JPG'
p14
aI5201
aI2205
aI4205
aa(lp15
S'http://128.84.3.178/ethan/weed_cover_images/goreLab_08_12_2016/DSC08138.JPG'
p16
aI2728
aI263
aI38303
aa(lp17
S'http://128.84.3.178/ethan/weed_cover_images/goreLab_08_12_2016/DSC08034.JPG'
p18
aI3755
aI3236
aI40235
aa(lp19
S'http://128.84.3.178/ethan/weed_cover_images/goreLab_08_12_2016/DSC07985.JPG'
p20
aI3890
aI2924
aI18190
aa(lp21
S'http://128.84.3.178/ethan/weed_cover_images/goreLab_08_12_2016/DSC08114.JPG'
p22
aI2612
aI59
aI3730
aa(lp23
S'http://128.84.3.178/ethan/weed_cover_images/goreLab_08_12_2016/DSC07824.JPG'
p24
aI2223
aI1436
aI12048
aa(lp25
S'http://128.84.3.178/ethan/weed_cover_images/goreLab_08_12_2016/DSC08027.JPG'
p26
aI1606
aI1053
aI6593
aa(lp27
S'http://128.84.3.178/ethan/weed_cover_images/goreLab_08_12_2016/DSC07833.JPG'
p28
aI4714
aI1857
aI51907
aa(lp29
S'http://128.84.3.178/ethan/weed_cover_images/goreLab_08_12_2016/DSC08136.JPG'
p30
aI2994
aI1956
aI13695
aa(lp31
S'http://128.84.3.178/ethan/weed_cover_images/goreLab_08_12_2016/DSC08125.JPG'
p32
aI1065
aI2904
aI32888
aa(lp33
S'http://128.84.3.178/ethan/weed_cover_images/goreLab_08_12_2016/DSC07972.JPG'
p34
aI3173
aI1257
aI16524
aa(lp35
S'http://128.84.3.178/ethan/weed_cover_images/goreLab_08_12_2016/DSC07956.JPG'
p36
aI445
aI2698
aI44295
aa(lp37
S'http://128.84.3.178/ethan/weed_cover_images/goreLab_08_12_2016/DSC08090.JPG'
p38
aI1154
aI2644
aI21248
aa(lp39
S'http://128.84.3.178/ethan/weed_cover_images/goreLab_08_12_2016/DSC08131.JPG'
p40
aI889
aI2936
aI18430
aa(lp41
S'http://128.84.3.178/ethan/weed_cover_images/goreLab_08_12_2016/DSC07967.JPG'
p42
aI3276
aI3098
aI47860
aa(lp43
S'http://128.84.3.178/ethan/weed_cover_images/goreLab_08_12_2016/DSC08234.JPG'
p44
aI54
aI3135
aI13935
aa(lp45
S'http://128.84.3.178/ethan/weed_cover_images/goreLab_08_12_2016/DSC07922.JPG'
p46
aI3980
aI2422
aI41166
aa(lp47
S'http://128.84.3.178/ethan/weed_cover_images/goreLab_08_12_2016/DSC07826.JPG'
p48
aI729
aI1216
aI42851
aa(lp49
S'http://128.84.3.178/ethan/weed_cover_images/goreLab_08_12_2016/DSC08073.JPG'
p50
aI2669
aI2438
aI4712
aa(lp51
S'http://128.84.3.178/ethan/weed_cover_images/goreLab_08_12_2016/DSC08121.JPG'
p52
aI4063
aI2105
aI45454
aa(lp53
S'http://128.84.3.178/ethan/weed_cover_images/goreLab_08_12_2016/DSC07932.JPG'
p54
aI2890
aI1870
aI14163
aa(lp55
S'http://128.84.3.178/ethan/weed_cover_images/goreLab_08_12_2016/DSC07815.JPG'
p56
aI3715
aI987
aI46663
aa(lp57
S'http://128.84.3.178/ethan/weed_cover_images/goreLab_08_12_2016/DSC08247.JPG'
p58
aI3869
aI3728
aI21951
aa(lp59
S'http://128.84.3.178/ethan/weed_cover_images/goreLab_08_12_2016/DSC07980.JPG'
p60
aI4375
aI3696
aI44048
aa(lp61
S'http://128.84.3.178/ethan/weed_cover_images/goreLab_08_12_2016/DSC07914.JPG'
p62
aI3482
aI2153
aI37581
aa(lp63
S'http://128.84.3.178/ethan/weed_cover_images/goreLab_08_12_2016/DSC08036.JPG'
p64
aI3954
aI2951
aI28385
aa(lp65
S'http://128.84.3.178/ethan/weed_cover_images/goreLab_08_12_2016/DSC07930.JPG'
p66
aI5558
aI596
aI48354
aa(lp67
S'http://128.84.3.178/ethan/weed_cover_images/goreLab_08_12_2016/DSC08039.JPG'
p68
aI1515
aI766
aI15809
aa(lp69
S'http://128.84.3.178/ethan/weed_cover_images/goreLab_08_12_2016/DSC08035.JPG'
p70
aI2527
aI83
aI12276
aa(lp71
S'http://128.84.3.178/ethan/weed_cover_images/goreLab_08_12_2016/DSC08115.JPG'
p72
aI3416
aI1369
aI52401
aa(lp73
S'http://128.84.3.178/ethan/weed_cover_images/goreLab_08_12_2016/DSC08070.JPG'
p74
aI4692
aI107
aI11801
aa(lp75
S'http://128.84.3.178/ethan/weed_cover_images/goreLab_08_12_2016/DSC07830.JPG'
p76
aI5682
aI3615
aI12979
aa(lp77
S'http://128.84.3.178/ethan/weed_cover_images/goreLab_08_12_2016/DSC08032.JPG'
p78
aI2410
aI2395
aI39481
aa(lp79
S'http://128.84.3.178/ethan/weed_cover_images/goreLab_08_12_2016/DSC07962.JPG'
p80
aI614
aI581
aI14410
aa(lp81
S'http://128.84.3.178/ethan/weed_cover_images/goreLab_08_12_2016/DSC08085.JPG'
p82
aI77
aI3322
aI51660
aa(lp83
S'http://128.84.3.178/ethan/weed_cover_images/goreLab_08_12_2016/DSC08080.JPG'
p84
aI1004
aI804
aI37828
aa(lp85
S'http://128.84.3.178/ethan/weed_cover_images/goreLab_08_12_2016/DSC08010.JPG'
p86
aI2927
aI1618
aI20792
aa(lp87
S'http://128.84.3.178/ethan/weed_cover_images/goreLab_08_12_2016/DSC07814.JPG'
p88
aI1689
aI2026
aI33344
aa(lp89
S'http://128.84.3.178/ethan/weed_cover_images/goreLab_08_12_2016/DSC07823.JPG'
p90
aI3930
aI2493
aI8704
aa(lp91
S'http://128.84.3.178/ethan/weed_cover_images/goreLab_08_12_2016/DSC08011.JPG'
p92
aI4995
aI2187
aI49760
aa(lp93
S'http://128.84.3.178/ethan/weed_cover_images/goreLab_08_12_2016/DSC07832.JPG'
p94
aI920
aI1863
aI25047
aa(lp95
S'http://128.84.3.178/ethan/weed_cover_images/goreLab_08_12_2016/DSC08031.JPG'
p96
aI464
aI2716
aI39741
aa(lp97
S'http://128.84.3.178/ethan/weed_cover_images/goreLab_08_12_2016/DSC07917.JPG'
p98
aI3222
aI2540
aI4959
aa(lp99
S'http://128.84.3.178/ethan/weed_cover_images/goreLab_08_12_2016/DSC08141.JPG'
p100
aI2577
aI1518
aI40919
aa(lp101
S'http://128.84.3.178/ethan/weed_cover_images/goreLab_08_12_2016/DSC08127.JPG'
p102
aI1760
aI2455
aI37106
aa(lp103
S'http://128.84.3.178/ethan/weed_cover_images/goreLab_08_12_2016/DSC07805.JPG'
p104
aI3962
aI355
aI29088
aa(lp105
S'http://128.84.3.178/ethan/weed_cover_images/goreLab_08_12_2016/DSC08241.JPG'
p106
aI4582
aI2491
aI11326
aa(lp107
S'http://128.84.3.178/ethan/weed_cover_images/goreLab_08_12_2016/DSC07968.JPG'
p108
aI1945
aI1784
aI19848
aa(lp109
S'http://128.84.3.178/ethan/weed_cover_images/goreLab_08_12_2016/DSC08094.JPG'
p110
aI2127
aI431
aI17227
aa(lp111
S'http://128.84.3.178/ethan/weed_cover_images/goreLab_08_12_2016/DSC08083.JPG'
p112
aI5514
aI271
aI21020
aa(lp113
S'http://128.84.3.178/ethan/weed_cover_images/goreLab_08_12_2016/DSC08086.JPG'
p114
aI3320
aI2311
aI33116
aa(lp115
S'http://128.84.3.178/ethan/weed_cover_images/goreLab_08_12_2016/DSC08251.JPG'
p116
aI4205
aI321
aI25541
aa(lp117
S'http://128.84.3.178/ethan/weed_cover_images/goreLab_08_12_2016/DSC08019.JPG'
p118
aI4358
aI2123
aI47138
aa(lp119
S'http://128.84.3.178/ethan/weed_cover_images/goreLab_08_12_2016/DSC08069.JPG'
p120
aI176
aI3528
aI19392
aa(lp121
S'http://128.84.3.178/ethan/weed_cover_images/goreLab_08_12_2016/DSC07969.JPG'
p122
aI1249
aI3366
aI35472
aa(lp123
S'http://128.84.3.178/ethan/weed_cover_images/goreLab_08_12_2016/DSC07831.JPG'
p124
aI522
aI3600
aI49266
aa(lp125
S'http://128.84.3.178/ethan/weed_cover_images/goreLab_08_12_2016/DSC08025.JPG'
p126
aI2796
aI1415
aI26029
aa(lp127
S'http://128.84.3.178/ethan/weed_cover_images/goreLab_08_12_2016/DSC08134.JPG'
p128
aI4095
aI1211
aI27682
aa(lp129
S'http://128.84.3.178/ethan/weed_cover_images/goreLab_08_12_2016/DSC07938.JPG'
p130
aI1324
aI1129
aI2546
aa(lp131
S'http://128.84.3.178/ethan/weed_cover_images/goreLab_08_12_2016/DSC07821.JPG'
p132
aI2518
aI3892
aI21476
aa(lp133
S'http://128.84.3.178/ethan/weed_cover_images/goreLab_08_12_2016/DSC07928.JPG'
p134
aI5686
aI3788
aI45948
aa(lp135
S'http://128.84.3.178/ethan/weed_cover_images/goreLab_08_12_2016/DSC07915.JPG'
p136
aI598
aI302
aI22863
aa(lp137
S'http://128.84.3.178/ethan/weed_cover_images/goreLab_08_12_2016/DSC08123.JPG'
p138
aI2459
aI2375
aI684
aa(lp139
S'http://128.84.3.178/ethan/weed_cover_images/goreLab_08_12_2016/DSC07808.JPG'
p140
aI1573
aI2857
aI33572
aa(lp141
S'http://128.84.3.178/ethan/weed_cover_images/goreLab_08_12_2016/DSC07986.JPG'
p142
aI4885
aI2299
aI3977
aa(lp143
S'http://128.84.3.178/ethan/weed_cover_images/goreLab_08_12_2016/DSC08243.JPG'
p144
aI5313
aI1559
aI24800
aa(lp145
S'http://128.84.3.178/ethan/weed_cover_images/goreLab_08_12_2016/DSC08124.JPG'
p146
aI5036
aI3748
aI20076
aa(lp147
S'http://128.84.3.178/ethan/weed_cover_images/goreLab_08_12_2016/DSC07987.JPG'
p148
aI3735
aI3575
aI35244
aa(lp149
S'http://128.84.3.178/ethan/weed_cover_images/goreLab_08_12_2016/DSC07923.JPG'
p150
aI3564
aI403
aI36175
aa(lp151
S'http://128.84.3.178/ethan/weed_cover_images/goreLab_08_12_2016/DSC07809.JPG'
p152
aI1119
aI3831
aI13239
aa(lp153
S'http://128.84.3.178/ethan/weed_cover_images/goreLab_08_12_2016/DSC08079.JPG'
p154
aI5920
aI1302
aI45701
aa(lp155
S'http://128.84.3.178/ethan/weed_cover_images/goreLab_08_12_2016/DSC08017.JPG'
p156
aI633
aI3609
aI34294
aa(lp157
S'http://128.84.3.178/ethan/weed_cover_images/goreLab_08_12_2016/DSC08037.JPG'
p158
aI95
aI1853
aI26713
aa(lp159
S'http://128.84.3.178/ethan/weed_cover_images/goreLab_08_12_2016/DSC08231.JPG'
p160
aI1988
aI3255
aI16296
aa(lp161
S'http://128.84.3.178/ethan/weed_cover_images/goreLab_08_12_2016/DSC08074.JPG'
p162
aI3689
aI1589
aI52876
aa(lp163
S'http://128.84.3.178/ethan/weed_cover_images/goreLab_08_12_2016/DSC08148.JPG'
p164
aI310
aI3530
aI23826
aa(lp165
S'http://128.84.3.178/ethan/weed_cover_images/goreLab_08_12_2016/DSC08130.JPG'
p166
aI3736
aI2013
aI19620
aa(lp167
S'http://128.84.3.178/ethan/weed_cover_images/goreLab_08_12_2016/DSC08143.JPG'
p168
aI1735
aI902
aI52154
aa(lp169
S'http://128.84.3.178/ethan/weed_cover_images/goreLab_08_12_2016/DSC08026.JPG'
p170
aI3444
aI1610
aI1387
aa(lp171
S'http://128.84.3.178/ethan/weed_cover_images/goreLab_08_12_2016/DSC08009.JPG'
p172
aI5165
aI1171
aI26960
aa(lp173
S'http://128.84.3.178/ethan/weed_cover_images/goreLab_08_12_2016/DSC08041.JPG'
p174
aI3134
aI132
aI8248
aa(lp175
S'http://128.84.3.178/ethan/weed_cover_images/goreLab_08_12_2016/DSC08087.JPG'
p176
aI183
aI3957
aI9179
aa(lp177
S'http://128.84.3.178/ethan/weed_cover_images/goreLab_08_12_2016/DSC08071.JPG'
p178
aI819
aI657
aI43801
aa(lp179
S'http://128.84.3.178/ethan/weed_cover_images/goreLab_08_12_2016/DSC08139.JPG'
p180
aI1494
aI3275
aI32660
aa(lp181
S'http://128.84.3.178/ethan/weed_cover_images/goreLab_08_12_2016/DSC07982.JPG'
p182
aI3548
aI2851
aI28157
aa(lp183
S'http://128.84.3.178/ethan/weed_cover_images/goreLab_08_12_2016/DSC08147.JPG'
p184
aI3121
aI2654
aI35016
aa(lp185
S'http://128.84.3.178/ethan/weed_cover_images/goreLab_08_12_2016/DSC07810.JPG'
p186
aI4858
aI3985
aI34541
aa(lp187
S'http://128.84.3.178/ethan/weed_cover_images/goreLab_08_12_2016/DSC07959.JPG'
p188
aI493
aI791
aI23598
aa(lp189
S'http://128.84.3.178/ethan/weed_cover_images/goreLab_08_12_2016/DSC07989.JPG'
p190
aI5271
aI2078
aI31729
aa(lp191
S'http://128.84.3.178/ethan/weed_cover_images/goreLab_08_12_2016/DSC08062.JPG'
p192
aI93
aI3939
aI7575
aa(lp193
S'http://128.84.3.178/ethan/weed_cover_images/goreLab_08_12_2016/DSC07912.JPG'
p194
aI4626
aI3835
aI41920
aa(lp195
S'http://128.84.3.178/ethan/weed_cover_images/goreLab_08_12_2016/DSC08030.JPG'
p196
aI4666
aI68
aI27188
aa(lp197
S'http://128.84.3.178/ethan/weed_cover_images/goreLab_08_12_2016/DSC07976.JPG'
p198
aI91
aI1256
aI48107
aa(lp199
S'http://128.84.3.178/ethan/weed_cover_images/goreLab_08_12_2016/DSC08250.JPG'
p200
aI1349
aI556
aI8020
aa(lp201
S'http://128.84.3.178/ethan/weed_cover_images/goreLab_08_12_2016/DSC07958.JPG'
p202
aI1226
aI2453
aI14878
aa(lp203
S'http://128.84.3.178/ethan/weed_cover_images/goreLab_08_12_2016/DSC08091.JPG'
p204
aI3995
aI3095
aI46416
aa(lp205
S'http://128.84.3.178/ethan/weed_cover_images/goreLab_08_12_2016/DSC08244.JPG'
p206
aI2870
aI365
aI51413
aa(lp207
S'http://128.84.3.178/ethan/weed_cover_images/goreLab_08_12_2016/DSC07979.JPG'
p208
aI4195
aI2283
aI3002
aa(lp209
S'http://128.84.3.178/ethan/weed_cover_images/goreLab_08_12_2016/DSC08140.JPG'
p210
aI4007
aI3056
aI50938
aa(lp211
S'http://128.84.3.178/ethan/weed_cover_images/goreLab_08_12_2016/DSC07819.JPG'
p212
aI2692
aI3949
aI3242
aa(lp213
S'http://128.84.3.178/ethan/weed_cover_images/goreLab_08_12_2016/DSC07825.JPG'
p214
aI5412
aI666
aI39234
aa(lp215
S'http://128.84.3.178/ethan/weed_cover_images/goreLab_08_12_2016/DSC08120.JPG'
p216
aI4027
aI2504
aI28841
aa(lp217
S'http://128.84.3.178/ethan/weed_cover_images/goreLab_08_12_2016/DSC08246.JPG'
p218
aI1552
aI367
aI32185
aa(lp219
S'http://128.84.3.178/ethan/weed_cover_images/goreLab_08_12_2016/DSC07813.JPG'
p220
aI5533
aI1584
aI52629
aa(lp221
S'http://128.84.3.178/ethan/weed_cover_images/goreLab_08_12_2016/DSC07806.JPG'
p222
aI4841
aI3548
aI35947
aa(lp223
S'http://128.84.3.178/ethan/weed_cover_images/goreLab_08_12_2016/DSC08063.JPG'
p224
aI999
aI3393
aI24553
aa(lp225
S'http://128.84.3.178/ethan/weed_cover_images/goreLab_08_12_2016/DSC08145.JPG'
p226
aI2957
aI285
aI13467
aa(lp227
S'http://128.84.3.178/ethan/weed_cover_images/goreLab_08_12_2016/DSC07984.JPG'
p228
aI1627
aI1941
aI16771
aa(lp229
S'http://128.84.3.178/ethan/weed_cover_images/goreLab_08_12_2016/DSC07828.JPG'
p230
aI5989
aI25
aI41413
aa(lp231
S'http://128.84.3.178/ethan/weed_cover_images/goreLab_08_12_2016/DSC08233.JPG'
p232
aI3479
aI771
aI1843
aa(lp233
S'http://128.84.3.178/ethan/weed_cover_images/goreLab_08_12_2016/DSC08248.JPG'
p234
aI4949
aI829
aI28613
aa(lp235
S'http://128.84.3.178/ethan/weed_cover_images/goreLab_08_12_2016/DSC07939.JPG'
p236
aI2660
aI3650
aI41673
aa(lp237
S'http://128.84.3.178/ethan/weed_cover_images/goreLab_08_12_2016/DSC08117.JPG'
p238
aI1386
aI3357
aI9920
aa(lp239
S'http://128.84.3.178/ethan/weed_cover_images/goreLab_08_12_2016/DSC08020.JPG'
p240
aI1632
aI861
aI51185
aa(lp241
S'http://128.84.3.178/ethan/weed_cover_images/goreLab_08_12_2016/DSC07974.JPG'
p242
aI1187
aI2982
aI40463
aa(lp243
S'http://128.84.3.178/ethan/weed_cover_images/goreLab_08_12_2016/DSC08067.JPG'
p244
aI2550
aI811
aI32432
aa(lp245
S'http://128.84.3.178/ethan/weed_cover_images/goreLab_08_12_2016/DSC07919.JPG'
p246
aI1343
aI188
aI12523
aa(lp247
S'http://128.84.3.178/ethan/weed_cover_images/goreLab_08_12_2016/DSC07977.JPG'
p248
aI5675
aI113
aI16049
aa(lp249
S'http://128.84.3.178/ethan/weed_cover_images/goreLab_08_12_2016/DSC08065.JPG'
p250
aI2306
aI3422
aI31254
aa(lp251
S'http://128.84.3.178/ethan/weed_cover_images/goreLab_08_12_2016/DSC08018.JPG'
p252
aI4736
aI410
aI29829
aa(lp253
S'http://128.84.3.178/ethan/weed_cover_images/goreLab_08_12_2016/DSC07811.JPG'
p254
aI2084
aI588
aI36650
aa(lp255
S'http://128.84.3.178/ethan/weed_cover_images/goreLab_08_12_2016/DSC07937.JPG'
p256
aI715
aI2793
aI29582
aa(lp257
S'http://128.84.3.178/ethan/weed_cover_images/goreLab_08_12_2016/DSC08240.JPG'
p258
aI2745
aI514
aI22635
aa(lp259
S'http://128.84.3.178/ethan/weed_cover_images/goreLab_08_12_2016/DSC08013.JPG'
p260
aI2869
aI3735
aI2774
aa(lp261
S'http://128.84.3.178/ethan/weed_cover_images/goreLab_08_12_2016/DSC07816.JPG'
p262
aI2048
aI2978
aI46188
aa(lp263
S'http://128.84.3.178/ethan/weed_cover_images/goreLab_08_12_2016/DSC08040.JPG'
p264
aI1906
aI2625
aI5187
aa(lp265
S'http://128.84.3.178/ethan/weed_cover_images/goreLab_08_12_2016/DSC08084.JPG'
p266
aI88
aI3427
aI1615
aa(lp267
S'http://128.84.3.178/ethan/weed_cover_images/goreLab_08_12_2016/DSC08077.JPG'
p268
aI1019
aI739
aI47385
aa(lp269
S'http://128.84.3.178/ethan/weed_cover_images/goreLab_08_12_2016/DSC07973.JPG'
p270
aI2940
aI487
aI50007
aa(lp271
S'http://128.84.3.178/ethan/weed_cover_images/goreLab_08_12_2016/DSC08014.JPG'
p272
aI5932
aI1947
aI17962
aa(lp273
S'http://128.84.3.178/ethan/weed_cover_images/goreLab_08_12_2016/DSC07921.JPG'
p274
aI5890
aI517
aI48810
aa(lp275
S'http://128.84.3.178/ethan/weed_cover_images/goreLab_08_12_2016/DSC08042.JPG'
p276
aI1320
aI739
aI40691
aa(lp277
S'http://128.84.3.178/ethan/weed_cover_images/goreLab_08_12_2016/DSC07822.JPG'
p278
aI557
aI1449
aI20564
aa(lp279
S'http://128.84.3.178/ethan/weed_cover_images/goreLab_08_12_2016/DSC08235.JPG'
p280
aI4824
aI2615
aI31957
aa(lp281
S'http://128.84.3.178/ethan/weed_cover_images/goreLab_08_12_2016/DSC08232.JPG'
p282
aI982
aI1472
aI15581
aa(lp283
S'http://128.84.3.178/ethan/weed_cover_images/goreLab_08_12_2016/DSC07910.JPG'
p284
aI1470
aI2585
aI42148
aa(lp285
S'http://128.84.3.178/ethan/weed_cover_images/goreLab_08_12_2016/DSC07920.JPG'
p286
aI3183
aI2557
aI23123
aa(lp287
S'http://128.84.3.178/ethan/weed_cover_images/goreLab_08_12_2016/DSC08064.JPG'
p288
aI5777
aI628
aI17455
aa(lp289
S'http://128.84.3.178/ethan/weed_cover_images/goreLab_08_12_2016/DSC07957.JPG'
p290
aI1468
aI1400
aI44998
aa(lp291
S'http://128.84.3.178/ethan/weed_cover_images/goreLab_08_12_2016/DSC08144.JPG'
p292
aI590
aI2184
aI50235
aa(lp293
S'http://128.84.3.178/ethan/weed_cover_images/goreLab_08_12_2016/DSC07975.JPG'
p294
aI898
aI3100
aI7068
aa(lp295
S'http://128.84.3.178/ethan/weed_cover_images/goreLab_08_12_2016/DSC07818.JPG'
p296
aI37
aI639
aI18905
aa(lp297
S'http://128.84.3.178/ethan/weed_cover_images/goreLab_08_12_2016/DSC07817.JPG'
p298
aI5300
aI863
aI16999
aa(lp299
S'http://128.84.3.178/ethan/weed_cover_images/goreLab_08_12_2016/DSC08076.JPG'
p300
aI5320
aI2422
aI29335
aa(lp301
S'http://128.84.3.178/ethan/weed_cover_images/goreLab_08_12_2016/DSC08082.JPG'
p302
aI784
aI1432
aI12751
aa(lp303
S'http://128.84.3.178/ethan/weed_cover_images/goreLab_08_12_2016/DSC08093.JPG'
p304
aI2454
aI438
aI10870
aa(lp305
S'http://128.84.3.178/ethan/weed_cover_images/goreLab_08_12_2016/DSC08135.JPG'
p306
aI4697
aI7
aI34047
aa(lp307
S'http://128.84.3.178/ethan/weed_cover_images/goreLab_08_12_2016/DSC08075.JPG'
p308
aI1310
aI155
aI26257
aa(lp309
S'http://128.84.3.178/ethan/weed_cover_images/goreLab_08_12_2016/DSC08122.JPG'
p310
aI4216
aI3395
aI43098
aa(lp311
S'http://128.84.3.178/ethan/weed_cover_images/goreLab_08_12_2016/DSC08133.JPG'
p312
aI4965
aI155
aI48582
aa(lp313
S'http://128.84.3.178/ethan/weed_cover_images/goreLab_08_12_2016/DSC07935.JPG'
p314
aI1269
aI2003
aI30076
aa(lp315
S'http://128.84.3.178/ethan/weed_cover_images/goreLab_08_12_2016/DSC08066.JPG'
p316
aI285
aI900
aI38056
aa.