(lp0
(lp1
S'http://128.84.3.178/ethan/weed_cover_images/goreLab_08_12_2016/DSC08038.JPG'
p2
aI707
aI2271
aI0
aa(lp3
S'http://128.84.3.178/ethan/weed_cover_images/goreLab_08_12_2016/DSC08129.JPG'
p4
aI4872
aI2969
aI228
aa(lp5
S'http://128.84.3.178/ethan/weed_cover_images/goreLab_08_12_2016/DSC07820.JPG'
p6
aI5576
aI2008
aI456
aa(lp7
S'http://128.84.3.178/ethan/weed_cover_images/goreLab_08_12_2016/DSC08123.JPG'
p8
aI2459
aI2375
aI684
aa(lp9
S'http://128.84.3.178/ethan/weed_cover_images/goreLab_08_12_2016/DSC07964.JPG'
p10
aI5141
aI3245
aI912
aa(lp11
S'http://128.84.3.178/ethan/weed_cover_images/goreLab_08_12_2016/DSC07960.JPG'
p12
aI276
aI2991
aI1140
aa(lp13
S'http://128.84.3.178/ethan/weed_cover_images/goreLab_08_12_2016/DSC08026.JPG'
p14
aI3444
aI1610
aI1387
aa(lp15
S'http://128.84.3.178/ethan/weed_cover_images/goreLab_08_12_2016/DSC08084.JPG'
p16
aI88
aI3427
aI1615
aa(lp17
S'http://128.84.3.178/ethan/weed_cover_images/goreLab_08_12_2016/DSC08233.JPG'
p18
aI3479
aI771
aI1843
aa(lp19
S'http://128.84.3.178/ethan/weed_cover_images/goreLab_08_12_2016/DSC07933.JPG'
p20
aI4422
aI970
aI2071
aa(lp21
S'http://128.84.3.178/ethan/weed_cover_images/goreLab_08_12_2016/DSC07913.JPG'
p22
aI3872
aI3443
aI2318
aa(lp23
S'http://128.84.3.178/ethan/weed_cover_images/goreLab_08_12_2016/DSC07938.JPG'
p24
aI1324
aI1129
aI2546
aa(lp25
S'http://128.84.3.178/ethan/weed_cover_images/goreLab_08_12_2016/DSC08013.JPG'
p26
aI2869
aI3735
aI2774
aa(lp27
S'http://128.84.3.178/ethan/weed_cover_images/goreLab_08_12_2016/DSC07979.JPG'
p28
aI4195
aI2283
aI3002
aa(lp29
S'http://128.84.3.178/ethan/weed_cover_images/goreLab_08_12_2016/DSC07819.JPG'
p30
aI2692
aI3949
aI3242
aa(lp31
S'http://128.84.3.178/ethan/weed_cover_images/goreLab_08_12_2016/DSC08092.JPG'
p32
aI3971
aI1195
aI3502
aa(lp33
S'http://128.84.3.178/ethan/weed_cover_images/goreLab_08_12_2016/DSC08114.JPG'
p34
aI2612
aI59
aI3730
aa(lp35
S'http://128.84.3.178/ethan/weed_cover_images/goreLab_08_12_2016/DSC07986.JPG'
p36
aI4885
aI2299
aI3977
aa(lp37
S'http://128.84.3.178/ethan/weed_cover_images/goreLab_08_12_2016/DSC07988.JPG'
p38
aI5201
aI2205
aI4205
aa(lp39
S'http://128.84.3.178/ethan/weed_cover_images/goreLab_08_12_2016/DSC07834.JPG'
p40
aI4800
aI899
aI4452
aa(lp41
S'http://128.84.3.178/ethan/weed_cover_images/goreLab_08_12_2016/DSC08073.JPG'
p42
aI2669
aI2438
aI4712
aa(lp43
S'http://128.84.3.178/ethan/weed_cover_images/goreLab_08_12_2016/DSC07917.JPG'
p44
aI3222
aI2540
aI4959
aa(lp45
S'http://128.84.3.178/ethan/weed_cover_images/goreLab_08_12_2016/DSC08040.JPG'
p46
aI1906
aI2625
aI5187
aa(lp47
S'http://128.84.3.178/ethan/weed_cover_images/goreLab_08_12_2016/DSC08236.JPG'
p48
aI103
aI137
aI5415
aa(lp49
S'http://128.84.3.178/ethan/weed_cover_images/goreLab_08_12_2016/DSC07927.JPG'
p50
aI1019
aI3802
aI5643
aa(lp51
S'http://128.84.3.178/ethan/weed_cover_images/goreLab_08_12_2016/DSC07836.JPG'
p52
aI5950
aI3489
aI5871
aa(lp53
S'http://128.84.3.178/ethan/weed_cover_images/goreLab_08_12_2016/DSC07936.JPG'
p54
aI3425
aI2205
aI6099
aa(lp55
S'http://128.84.3.178/ethan/weed_cover_images/goreLab_08_12_2016/DSC07924.JPG'
p56
aI1477
aI2198
aI6346
aa(lp57
S'http://128.84.3.178/ethan/weed_cover_images/goreLab_08_12_2016/DSC08027.JPG'
p58
aI1606
aI1053
aI6593
aa(lp59
S'http://128.84.3.178/ethan/weed_cover_images/goreLab_08_12_2016/DSC08146.JPG'
p60
aI1662
aI1823
aI6821
aa(lp61
S'http://128.84.3.178/ethan/weed_cover_images/goreLab_08_12_2016/DSC07975.JPG'
p62
aI898
aI3100
aI7068
aa(lp63
S'http://128.84.3.178/ethan/weed_cover_images/goreLab_08_12_2016/DSC07965.JPG'
p64
aI782
aI2757
aI7328
aa(lp65
S'http://128.84.3.178/ethan/weed_cover_images/goreLab_08_12_2016/DSC08062.JPG'
p66
aI93
aI3939
aI7575
aa(lp67
S'http://128.84.3.178/ethan/weed_cover_images/goreLab_08_12_2016/DSC08250.JPG'
p68
aI1349
aI556
aI8020
aa(lp69
S'http://128.84.3.178/ethan/weed_cover_images/goreLab_08_12_2016/DSC08041.JPG'
p70
aI3134
aI132
aI8248
aa(lp71
S'http://128.84.3.178/ethan/weed_cover_images/goreLab_08_12_2016/DSC07978.JPG'
p72
aI2222
aI788
aI8476
aa(lp73
S'http://128.84.3.178/ethan/weed_cover_images/goreLab_08_12_2016/DSC07823.JPG'
p74
aI3930
aI2493
aI8704
aa(lp75
S'http://128.84.3.178/ethan/weed_cover_images/goreLab_08_12_2016/DSC08142.JPG'
p76
aI1017
aI2958
aI8951
aa(lp77
S'http://128.84.3.178/ethan/weed_cover_images/goreLab_08_12_2016/DSC08087.JPG'
p78
aI183
aI3957
aI9179
aa(lp79
S'http://128.84.3.178/ethan/weed_cover_images/goreLab_08_12_2016/DSC07835.JPG'
p80
aI5591
aI3102
aI9426
aa(lp81
S'http://128.84.3.178/ethan/weed_cover_images/goreLab_08_12_2016/DSC08237.JPG'
p82
aI4677
aI2699
aI9673
aa(lp83
S'http://128.84.3.178/ethan/weed_cover_images/goreLab_08_12_2016/DSC08117.JPG'
p84
aI1386
aI3357
aI9920
aa(lp85
S'http://128.84.3.178/ethan/weed_cover_images/goreLab_08_12_2016/DSC08126.JPG'
p86
aI3745
aI593
aI10167
aa(lp87
S'http://128.84.3.178/ethan/weed_cover_images/goreLab_08_12_2016/DSC08015.JPG'
p88
aI2187
aI1280
aI10395
aa(lp89
S'http://128.84.3.178/ethan/weed_cover_images/goreLab_08_12_2016/DSC07911.JPG'
p90
aI350
aI1320
aI10642
aa(lp91
S'http://128.84.3.178/ethan/weed_cover_images/goreLab_08_12_2016/DSC08093.JPG'
p92
aI2454
aI438
aI10870
aa(lp93
S'http://128.84.3.178/ethan/weed_cover_images/goreLab_08_12_2016/DSC07966.JPG'
p94
aI1371
aI3742
aI11098
aa(lp95
S'http://128.84.3.178/ethan/weed_cover_images/goreLab_08_12_2016/DSC08241.JPG'
p96
aI4582
aI2491
aI11326
aa(lp97
S'http://128.84.3.178/ethan/weed_cover_images/goreLab_08_12_2016/DSC07963.JPG'
p98
aI5474
aI140
aI11573
aa(lp99
S'http://128.84.3.178/ethan/weed_cover_images/goreLab_08_12_2016/DSC08070.JPG'
p100
aI4692
aI107
aI11801
aa(lp101
S'http://128.84.3.178/ethan/weed_cover_images/goreLab_08_12_2016/DSC07824.JPG'
p102
aI2223
aI1436
aI12048
aa(lp103
S'http://128.84.3.178/ethan/weed_cover_images/goreLab_08_12_2016/DSC08035.JPG'
p104
aI2527
aI83
aI12276
aa(lp105
S'http://128.84.3.178/ethan/weed_cover_images/goreLab_08_12_2016/DSC07919.JPG'
p106
aI1343
aI188
aI12523
aa(lp107
S'http://128.84.3.178/ethan/weed_cover_images/goreLab_08_12_2016/DSC08082.JPG'
p108
aI784
aI1432
aI12751
aa(lp109
S'http://128.84.3.178/ethan/weed_cover_images/goreLab_08_12_2016/DSC07830.JPG'
p110
aI5682
aI3615
aI12979
aa(lp111
S'http://128.84.3.178/ethan/weed_cover_images/goreLab_08_12_2016/DSC07809.JPG'
p112
aI1119
aI3831
aI13239
aa(lp113
S'http://128.84.3.178/ethan/weed_cover_images/goreLab_08_12_2016/DSC08145.JPG'
p114
aI2957
aI285
aI13467
aa(lp115
S'http://128.84.3.178/ethan/weed_cover_images/goreLab_08_12_2016/DSC08136.JPG'
p116
aI2994
aI1956
aI13695
aa(lp117
S'http://128.84.3.178/ethan/weed_cover_images/goreLab_08_12_2016/DSC08234.JPG'
p118
aI54
aI3135
aI13935
aa(lp119
S'http://128.84.3.178/ethan/weed_cover_images/goreLab_08_12_2016/DSC07932.JPG'
p120
aI2890
aI1870
aI14163
aa(lp121
S'http://128.84.3.178/ethan/weed_cover_images/goreLab_08_12_2016/DSC07962.JPG'
p122
aI614
aI581
aI14410
aa(lp123
S'http://128.84.3.178/ethan/weed_cover_images/goreLab_08_12_2016/DSC07970.JPG'
p124
aI3683
aI3760
aI14650
aa(lp125
S'http://128.84.3.178/ethan/weed_cover_images/goreLab_08_12_2016/DSC07958.JPG'
p126
aI1226
aI2453
aI14878
aa(lp127
S'http://128.84.3.178/ethan/weed_cover_images/goreLab_08_12_2016/DSC07812.JPG'
p128
aI5045
aI3127
aI15125
aa(lp129
S'http://128.84.3.178/ethan/weed_cover_images/goreLab_08_12_2016/DSC08029.JPG'
p130
aI4606
aI215
aI15353
aa(lp131
S'http://128.84.3.178/ethan/weed_cover_images/goreLab_08_12_2016/DSC08232.JPG'
p132
aI982
aI1472
aI15581
aa(lp133
S'http://128.84.3.178/ethan/weed_cover_images/goreLab_08_12_2016/DSC08039.JPG'
p134
aI1515
aI766
aI15809
aa(lp135
S'http://128.84.3.178/ethan/weed_cover_images/goreLab_08_12_2016/DSC07977.JPG'
p136
aI5675
aI113
aI16049
aa(lp137
S'http://128.84.3.178/ethan/weed_cover_images/goreLab_08_12_2016/DSC08231.JPG'
p138
aI1988
aI3255
aI16296
aa(lp139
S'http://128.84.3.178/ethan/weed_cover_images/goreLab_08_12_2016/DSC07972.JPG'
p140
aI3173
aI1257
aI16524
aa(lp141
S'http://128.84.3.178/ethan/weed_cover_images/goreLab_08_12_2016/DSC07984.JPG'
p142
aI1627
aI1941
aI16771
aa(lp143
S'http://128.84.3.178/ethan/weed_cover_images/goreLab_08_12_2016/DSC07817.JPG'
p144
aI5300
aI863
aI16999
aa(lp145
S'http://128.84.3.178/ethan/weed_cover_images/goreLab_08_12_2016/DSC08094.JPG'
p146
aI2127
aI431
aI17227
aa(lp147
S'http://128.84.3.178/ethan/weed_cover_images/goreLab_08_12_2016/DSC08064.JPG'
p148
aI5777
aI628
aI17455
aa(lp149
S'http://128.84.3.178/ethan/weed_cover_images/goreLab_08_12_2016/DSC07829.JPG'
p150
aI3907
aI705
aI17702
aa(lp151
S'http://128.84.3.178/ethan/weed_cover_images/goreLab_08_12_2016/DSC08014.JPG'
p152
aI5932
aI1947
aI17962
aa(lp153
S'http://128.84.3.178/ethan/weed_cover_images/goreLab_08_12_2016/DSC07985.JPG'
p154
aI3890
aI2924
aI18190
aa(lp155
S'http://128.84.3.178/ethan/weed_cover_images/goreLab_08_12_2016/DSC08131.JPG'
p156
aI889
aI2936
aI18430
aa(lp157
S'http://128.84.3.178/ethan/weed_cover_images/goreLab_08_12_2016/DSC08033.JPG'
p158
aI2419
aI1303
aI18658
aa(lp159
S'http://128.84.3.178/ethan/weed_cover_images/goreLab_08_12_2016/DSC07818.JPG'
p160
aI37
aI639
aI18905
aa(lp161
S'http://128.84.3.178/ethan/weed_cover_images/goreLab_08_12_2016/DSC07929.JPG'
p162
aI3295
aI3194
aI19152
aa(lp163
S'http://128.84.3.178/ethan/weed_cover_images/goreLab_08_12_2016/DSC08069.JPG'
p164
aI176
aI3528
aI19392
aa(lp165
S'http://128.84.3.178/ethan/weed_cover_images/goreLab_08_12_2016/DSC08130.JPG'
p166
aI3736
aI2013
aI19620
aa(lp167
S'http://128.84.3.178/ethan/weed_cover_images/goreLab_08_12_2016/DSC07968.JPG'
p168
aI1945
aI1784
aI19848
aa(lp169
S'http://128.84.3.178/ethan/weed_cover_images/goreLab_08_12_2016/DSC08124.JPG'
p170
aI5036
aI3748
aI20076
aa(lp171
S'http://128.84.3.178/ethan/weed_cover_images/goreLab_08_12_2016/DSC07925.JPG'
p172
aI3603
aI3651
aI20304
aa(lp173
S'http://128.84.3.178/ethan/weed_cover_images/goreLab_08_12_2016/DSC07822.JPG'
p174
aI557
aI1449
aI20564
aa(lp175
S'http://128.84.3.178/ethan/weed_cover_images/goreLab_08_12_2016/DSC08010.JPG'
p176
aI2927
aI1618
aI20792
aa(lp177
S'http://128.84.3.178/ethan/weed_cover_images/goreLab_08_12_2016/DSC08083.JPG'
p178
aI5514
aI271
aI21020
aa(lp179
S'http://128.84.3.178/ethan/weed_cover_images/goreLab_08_12_2016/DSC08090.JPG'
p180
aI1154
aI2644
aI21248
aa(lp181
S'http://128.84.3.178/ethan/weed_cover_images/goreLab_08_12_2016/DSC07821.JPG'
p182
aI2518
aI3892
aI21476
aa(lp183
S'http://128.84.3.178/ethan/weed_cover_images/goreLab_08_12_2016/DSC08132.JPG'
p184
aI4679
aI587
aI21723
aa(lp185
S'http://128.84.3.178/ethan/weed_cover_images/goreLab_08_12_2016/DSC08247.JPG'
p186
aI3869
aI3728
aI21951
aa(lp187
S'http://128.84.3.178/ethan/weed_cover_images/goreLab_08_12_2016/DSC07804.JPG'
p188
aI5944
aI3459
aI22179
aa(lp189
S'http://128.84.3.178/ethan/weed_cover_images/goreLab_08_12_2016/DSC08021.JPG'
p190
aI5844
aI2583
aI22407
aa(lp191
S'http://128.84.3.178/ethan/weed_cover_images/goreLab_08_12_2016/DSC08240.JPG'
p192
aI2745
aI514
aI22635
aa(lp193
S'http://128.84.3.178/ethan/weed_cover_images/goreLab_08_12_2016/DSC07915.JPG'
p194
aI598
aI302
aI22863
aa(lp195
S'http://128.84.3.178/ethan/weed_cover_images/goreLab_08_12_2016/DSC07920.JPG'
p196
aI3183
aI2557
aI23123
aa(lp197
S'http://128.84.3.178/ethan/weed_cover_images/goreLab_08_12_2016/DSC08081.JPG'
p198
aI1411
aI2504
aI23351
aa(lp199
S'http://128.84.3.178/ethan/weed_cover_images/goreLab_08_12_2016/DSC07959.JPG'
p200
aI493
aI791
aI23598
aa(lp201
S'http://128.84.3.178/ethan/weed_cover_images/goreLab_08_12_2016/DSC08148.JPG'
p202
aI310
aI3530
aI23826
aa(lp203
S'http://128.84.3.178/ethan/weed_cover_images/goreLab_08_12_2016/DSC07907.JPG'
p204
aI2395
aI3461
aI24066
aa(lp205
S'http://128.84.3.178/ethan/weed_cover_images/goreLab_08_12_2016/DSC07918.JPG'
p206
aI1928
aI3697
aI24306
aa(lp207
S'http://128.84.3.178/ethan/weed_cover_images/goreLab_08_12_2016/DSC08063.JPG'
p208
aI999
aI3393
aI24553
aa(lp209
S'http://128.84.3.178/ethan/weed_cover_images/goreLab_08_12_2016/DSC08243.JPG'
p210
aI5313
aI1559
aI24800
aa(lp211
S'http://128.84.3.178/ethan/weed_cover_images/goreLab_08_12_2016/DSC07832.JPG'
p212
aI920
aI1863
aI25047
aa(lp213
S'http://128.84.3.178/ethan/weed_cover_images/goreLab_08_12_2016/DSC08012.JPG'
p214
aI289
aI354
aI25294
aa(lp215
S'http://128.84.3.178/ethan/weed_cover_images/goreLab_08_12_2016/DSC08251.JPG'
p216
aI4205
aI321
aI25541
aa(lp217
S'http://128.84.3.178/ethan/weed_cover_images/goreLab_08_12_2016/DSC08239.JPG'
p218
aI3141
aI500
aI25801
aa(lp219
S'http://128.84.3.178/ethan/weed_cover_images/goreLab_08_12_2016/DSC08025.JPG'
p220
aI2796
aI1415
aI26029
aa(lp221
S'http://128.84.3.178/ethan/weed_cover_images/goreLab_08_12_2016/DSC08075.JPG'
p222
aI1310
aI155
aI26257
aa(lp223
S'http://128.84.3.178/ethan/weed_cover_images/goreLab_08_12_2016/DSC07981.JPG'
p224
aI4575
aI780
aI26485
aa(lp225
S'http://128.84.3.178/ethan/weed_cover_images/goreLab_08_12_2016/DSC08037.JPG'
p226
aI95
aI1853
aI26713
aa(lp227
S'http://128.84.3.178/ethan/weed_cover_images/goreLab_08_12_2016/DSC08009.JPG'
p228
aI5165
aI1171
aI26960
aa(lp229
S'http://128.84.3.178/ethan/weed_cover_images/goreLab_08_12_2016/DSC08030.JPG'
p230
aI4666
aI68
aI27188
aa(lp231
S'http://128.84.3.178/ethan/weed_cover_images/goreLab_08_12_2016/DSC07916.JPG'
p232
aI668
aI2747
aI27435
aa(lp233
S'http://128.84.3.178/ethan/weed_cover_images/goreLab_08_12_2016/DSC08134.JPG'
p234
aI4095
aI1211
aI27682
aa(lp235
S'http://128.84.3.178/ethan/weed_cover_images/goreLab_08_12_2016/DSC08245.JPG'
p236
aI1717
aI2924
aI27929
aa(lp237
S'http://128.84.3.178/ethan/weed_cover_images/goreLab_08_12_2016/DSC07982.JPG'
p238
aI3548
aI2851
aI28157
aa(lp239
S'http://128.84.3.178/ethan/weed_cover_images/goreLab_08_12_2016/DSC08036.JPG'
p240
aI3954
aI2951
aI28385
aa(lp241
S'http://128.84.3.178/ethan/weed_cover_images/goreLab_08_12_2016/DSC08248.JPG'
p242
aI4949
aI829
aI28613
aa(lp243
S'http://128.84.3.178/ethan/weed_cover_images/goreLab_08_12_2016/DSC08120.JPG'
p244
aI4027
aI2504
aI28841
aa(lp245
S'http://128.84.3.178/ethan/weed_cover_images/goreLab_08_12_2016/DSC07805.JPG'
p246
aI3962
aI355
aI29088
aa(lp247
S'http://128.84.3.178/ethan/weed_cover_images/goreLab_08_12_2016/DSC08076.JPG'
p248
aI5320
aI2422
aI29335
aa(lp249
S'http://128.84.3.178/ethan/weed_cover_images/goreLab_08_12_2016/DSC07937.JPG'
p250
aI715
aI2793
aI29582
aa(lp251
S'http://128.84.3.178/ethan/weed_cover_images/goreLab_08_12_2016/DSC08018.JPG'
p252
aI4736
aI410
aI29829
aa(lp253
S'http://128.84.3.178/ethan/weed_cover_images/goreLab_08_12_2016/DSC07935.JPG'
p254
aI1269
aI2003
aI30076
aa(lp255
S'http://128.84.3.178/ethan/weed_cover_images/goreLab_08_12_2016/DSC07971.JPG'
p256
aI5196
aI2685
aI30304
aa(lp257
S'http://128.84.3.178/ethan/weed_cover_images/goreLab_08_12_2016/DSC07961.JPG'
p258
aI2575
aI3245
aI30532
aa(lp259
S'http://128.84.3.178/ethan/weed_cover_images/goreLab_08_12_2016/DSC08230.JPG'
p260
aI4970
aI1211
aI30760
aa(lp261
S'http://128.84.3.178/ethan/weed_cover_images/goreLab_08_12_2016/DSC08024.JPG'
p262
aI1119
aI1205
aI31007
aa(lp263
S'http://128.84.3.178/ethan/weed_cover_images/goreLab_08_12_2016/DSC08065.JPG'
p264
aI2306
aI3422
aI31254
aa(lp265
S'http://128.84.3.178/ethan/weed_cover_images/goreLab_08_12_2016/DSC08113.JPG'
p266
aI357
aI2696
aI31482
aa(lp267
S'http://128.84.3.178/ethan/weed_cover_images/goreLab_08_12_2016/DSC07989.JPG'
p268
aI5271
aI2078
aI31729
aa(lp269
S'http://128.84.3.178/ethan/weed_cover_images/goreLab_08_12_2016/DSC08235.JPG'
p270
aI4824
aI2615
aI31957
aa(lp271
S'http://128.84.3.178/ethan/weed_cover_images/goreLab_08_12_2016/DSC08246.JPG'
p272
aI1552
aI367
aI32185
aa(lp273
S'http://128.84.3.178/ethan/weed_cover_images/goreLab_08_12_2016/DSC08067.JPG'
p274
aI2550
aI811
aI32432
aa(lp275
S'http://128.84.3.178/ethan/weed_cover_images/goreLab_08_12_2016/DSC08139.JPG'
p276
aI1494
aI3275
aI32660
aa(lp277
S'http://128.84.3.178/ethan/weed_cover_images/goreLab_08_12_2016/DSC08125.JPG'
p278
aI1065
aI2904
aI32888
aa(lp279
S'http://128.84.3.178/ethan/weed_cover_images/goreLab_08_12_2016/DSC08086.JPG'
p280
aI3320
aI2311
aI33116
aa(lp281
S'http://128.84.3.178/ethan/weed_cover_images/goreLab_08_12_2016/DSC07814.JPG'
p282
aI1689
aI2026
aI33344
aa(lp283
S'http://128.84.3.178/ethan/weed_cover_images/goreLab_08_12_2016/DSC07808.JPG'
p284
aI1573
aI2857
aI33572
aa(lp285
S'http://128.84.3.178/ethan/weed_cover_images/goreLab_08_12_2016/DSC08238.JPG'
p286
aI3711
aI2755
aI33800
aa(lp287
S'http://128.84.3.178/ethan/weed_cover_images/goreLab_08_12_2016/DSC08135.JPG'
p288
aI4697
aI7
aI34047
aa(lp289
S'http://128.84.3.178/ethan/weed_cover_images/goreLab_08_12_2016/DSC08017.JPG'
p290
aI633
aI3609
aI34294
aa(lp291
S'http://128.84.3.178/ethan/weed_cover_images/goreLab_08_12_2016/DSC07810.JPG'
p292
aI4858
aI3985
aI34541
aa(lp293
S'http://128.84.3.178/ethan/weed_cover_images/goreLab_08_12_2016/DSC08116.JPG'
p294
aI2791
aI2597
aI34788
aa(lp295
S'http://128.84.3.178/ethan/weed_cover_images/goreLab_08_12_2016/DSC08147.JPG'
p296
aI3121
aI2654
aI35016
aa(lp297
S'http://128.84.3.178/ethan/weed_cover_images/goreLab_08_12_2016/DSC07987.JPG'
p298
aI3735
aI3575
aI35244
aa(lp299
S'http://128.84.3.178/ethan/weed_cover_images/goreLab_08_12_2016/DSC07969.JPG'
p300
aI1249
aI3366
aI35472
aa(lp301
S'http://128.84.3.178/ethan/weed_cover_images/goreLab_08_12_2016/DSC08242.JPG'
p302
aI4243
aI271
aI35719
aa(lp303
S'http://128.84.3.178/ethan/weed_cover_images/goreLab_08_12_2016/DSC07806.JPG'
p304
aI4841
aI3548
aI35947
aa(lp305
S'http://128.84.3.178/ethan/weed_cover_images/goreLab_08_12_2016/DSC07923.JPG'
p306
aI3564
aI403
aI36175
aa(lp307
S'http://128.84.3.178/ethan/weed_cover_images/goreLab_08_12_2016/DSC07983.JPG'
p308
aI475
aI2672
aI36422
aa(lp309
S'http://128.84.3.178/ethan/weed_cover_images/goreLab_08_12_2016/DSC07811.JPG'
p310
aI2084
aI588
aI36650
aa(lp311
S'http://128.84.3.178/ethan/weed_cover_images/goreLab_08_12_2016/DSC08089.JPG'
p312
aI4647
aI3743
aI36878
aa(lp313
S'http://128.84.3.178/ethan/weed_cover_images/goreLab_08_12_2016/DSC08074.JPG'
p314
aI3689
aI1589
aI52876
aa(lp315
S'http://128.84.3.178/ethan/weed_cover_images/goreLab_08_12_2016/DSC08249.JPG'
p316
aI3422
aI951
aI53123
aa(lp317
S'http://128.84.3.178/ethan/weed_cover_images/goreLab_08_12_2016/DSC08127.JPG'
p318
aI1760
aI2455
aI37106
aa(lp319
S'http://128.84.3.178/ethan/weed_cover_images/goreLab_08_12_2016/DSC08072.JPG'
p320
aI1911
aI1346
aI37353
aa(lp321
S'http://128.84.3.178/ethan/weed_cover_images/goreLab_08_12_2016/DSC07914.JPG'
p322
aI3482
aI2153
aI37581
aa(lp323
S'http://128.84.3.178/ethan/weed_cover_images/goreLab_08_12_2016/DSC08080.JPG'
p324
aI1004
aI804
aI37828
aa(lp325
S'http://128.84.3.178/ethan/weed_cover_images/goreLab_08_12_2016/DSC08066.JPG'
p326
aI285
aI900
aI38056
aa(lp327
S'http://128.84.3.178/ethan/weed_cover_images/goreLab_08_12_2016/DSC08138.JPG'
p328
aI2728
aI263
aI38303
aa(lp329
S'http://128.84.3.178/ethan/weed_cover_images/goreLab_08_12_2016/DSC08022.JPG'
p330
aI4630
aI1672
aI38531
aa(lp331
S'http://128.84.3.178/ethan/weed_cover_images/goreLab_08_12_2016/DSC08023.JPG'
p332
aI2496
aI2070
aI38759
aa(lp333
S'http://128.84.3.178/ethan/weed_cover_images/goreLab_08_12_2016/DSC07807.JPG'
p334
aI3966
aI3653
aI38987
aa(lp335
S'http://128.84.3.178/ethan/weed_cover_images/goreLab_08_12_2016/DSC07825.JPG'
p336
aI5412
aI666
aI39234
aa(lp337
S'http://128.84.3.178/ethan/weed_cover_images/goreLab_08_12_2016/DSC08032.JPG'
p338
aI2410
aI2395
aI39481
aa(lp339
S'http://128.84.3.178/ethan/weed_cover_images/goreLab_08_12_2016/DSC08031.JPG'
p340
aI464
aI2716
aI39741
aa(lp341
S'http://128.84.3.178/ethan/weed_cover_images/goreLab_08_12_2016/DSC08028.JPG'
p342
aI2384
aI2107
aI39988
aa(lp343
S'http://128.84.3.178/ethan/weed_cover_images/goreLab_08_12_2016/DSC08034.JPG'
p344
aI3755
aI3236
aI40235
aa(lp345
S'http://128.84.3.178/ethan/weed_cover_images/goreLab_08_12_2016/DSC07974.JPG'
p346
aI1187
aI2982
aI40463
aa(lp347
S'http://128.84.3.178/ethan/weed_cover_images/goreLab_08_12_2016/DSC08042.JPG'
p348
aI1320
aI739
aI40691
aa(lp349
S'http://128.84.3.178/ethan/weed_cover_images/goreLab_08_12_2016/DSC08141.JPG'
p350
aI2577
aI1518
aI40919
aa(lp351
S'http://128.84.3.178/ethan/weed_cover_images/goreLab_08_12_2016/DSC07922.JPG'
p352
aI3980
aI2422
aI41166
aa(lp353
S'http://128.84.3.178/ethan/weed_cover_images/goreLab_08_12_2016/DSC07828.JPG'
p354
aI5989
aI25
aI41413
aa(lp355
S'http://128.84.3.178/ethan/weed_cover_images/goreLab_08_12_2016/DSC07939.JPG'
p356
aI2660
aI3650
aI41673
aa(lp357
S'http://128.84.3.178/ethan/weed_cover_images/goreLab_08_12_2016/DSC07912.JPG'
p358
aI4626
aI3835
aI41920
aa(lp359
S'http://128.84.3.178/ethan/weed_cover_images/goreLab_08_12_2016/DSC07910.JPG'
p360
aI1470
aI2585
aI42148
aa(lp361
S'http://128.84.3.178/ethan/weed_cover_images/goreLab_08_12_2016/DSC07931.JPG'
p362
aI2281
aI2496
aI42376
aa(lp363
S'http://128.84.3.178/ethan/weed_cover_images/goreLab_08_12_2016/DSC07827.JPG'
p364
aI1957
aI2598
aI42623
aa(lp365
S'http://128.84.3.178/ethan/weed_cover_images/goreLab_08_12_2016/DSC07826.JPG'
p366
aI729
aI1216
aI42851
aa(lp367
S'http://128.84.3.178/ethan/weed_cover_images/goreLab_08_12_2016/DSC08122.JPG'
p368
aI4216
aI3395
aI43098
aa(lp369
S'http://128.84.3.178/ethan/weed_cover_images/goreLab_08_12_2016/DSC08119.JPG'
p370
aI3869
aI482
aI43345
aa(lp371
S'http://128.84.3.178/ethan/weed_cover_images/goreLab_08_12_2016/DSC07908.JPG'
p372
aI2178
aI1948
aI43573
aa(lp373
S'http://128.84.3.178/ethan/weed_cover_images/goreLab_08_12_2016/DSC08071.JPG'
p374
aI819
aI657
aI43801
aa(lp375
S'http://128.84.3.178/ethan/weed_cover_images/goreLab_08_12_2016/DSC07980.JPG'
p376
aI4375
aI3696
aI44048
aa(lp377
S'http://128.84.3.178/ethan/weed_cover_images/goreLab_08_12_2016/DSC07956.JPG'
p378
aI445
aI2698
aI44295
aa(lp379
S'http://128.84.3.178/ethan/weed_cover_images/goreLab_08_12_2016/DSC08118.JPG'
p380
aI5511
aI2255
aI44542
aa(lp381
S'http://128.84.3.178/ethan/weed_cover_images/goreLab_08_12_2016/DSC07926.JPG'
p382
aI1086
aI2243
aI44770
aa(lp383
S'http://128.84.3.178/ethan/weed_cover_images/goreLab_08_12_2016/DSC07957.JPG'
p384
aI1468
aI1400
aI44998
aa(lp385
S'http://128.84.3.178/ethan/weed_cover_images/goreLab_08_12_2016/DSC08068.JPG'
p386
aI5324
aI3712
aI45226
aa(lp387
S'http://128.84.3.178/ethan/weed_cover_images/goreLab_08_12_2016/DSC08121.JPG'
p388
aI4063
aI2105
aI45454
aa(lp389
S'http://128.84.3.178/ethan/weed_cover_images/goreLab_08_12_2016/DSC08079.JPG'
p390
aI5920
aI1302
aI45701
aa(lp391
S'http://128.84.3.178/ethan/weed_cover_images/goreLab_08_12_2016/DSC07928.JPG'
p392
aI5686
aI3788
aI45948
aa(lp393
S'http://128.84.3.178/ethan/weed_cover_images/goreLab_08_12_2016/DSC07816.JPG'
p394
aI2048
aI2978
aI46188
aa(lp395
S'http://128.84.3.178/ethan/weed_cover_images/goreLab_08_12_2016/DSC08091.JPG'
p396
aI3995
aI3095
aI46416
aa(lp397
S'http://128.84.3.178/ethan/weed_cover_images/goreLab_08_12_2016/DSC07815.JPG'
p398
aI3715
aI987
aI46663
aa(lp399
S'http://128.84.3.178/ethan/weed_cover_images/goreLab_08_12_2016/DSC08016.JPG'
p400
aI4224
aI3573
aI46910
aa(lp401
S'http://128.84.3.178/ethan/weed_cover_images/goreLab_08_12_2016/DSC08019.JPG'
p402
aI4358
aI2123
aI47138
aa(lp403
S'http://128.84.3.178/ethan/weed_cover_images/goreLab_08_12_2016/DSC08077.JPG'
p404
aI1019
aI739
aI47385
aa(lp405
S'http://128.84.3.178/ethan/weed_cover_images/goreLab_08_12_2016/DSC08128.JPG'
p406
aI1178
aI1890
aI47613
aa(lp407
S'http://128.84.3.178/ethan/weed_cover_images/goreLab_08_12_2016/DSC07967.JPG'
p408
aI3276
aI3098
aI47860
aa(lp409
S'http://128.84.3.178/ethan/weed_cover_images/goreLab_08_12_2016/DSC07976.JPG'
p410
aI91
aI1256
aI48107
aa(lp411
S'http://128.84.3.178/ethan/weed_cover_images/goreLab_08_12_2016/DSC07930.JPG'
p412
aI5558
aI596
aI48354
aa(lp413
S'http://128.84.3.178/ethan/weed_cover_images/goreLab_08_12_2016/DSC08133.JPG'
p414
aI4965
aI155
aI48582
aa(lp415
S'http://128.84.3.178/ethan/weed_cover_images/goreLab_08_12_2016/DSC07921.JPG'
p416
aI5890
aI517
aI48810
aa(lp417
S'http://128.84.3.178/ethan/weed_cover_images/goreLab_08_12_2016/DSC08137.JPG'
p418
aI4586
aI2665
aI49038
aa(lp419
S'http://128.84.3.178/ethan/weed_cover_images/goreLab_08_12_2016/DSC07831.JPG'
p420
aI522
aI3600
aI49266
aa(lp421
S'http://128.84.3.178/ethan/weed_cover_images/goreLab_08_12_2016/DSC08088.JPG'
p422
aI4078
aI3611
aI49513
aa(lp423
S'http://128.84.3.178/ethan/weed_cover_images/goreLab_08_12_2016/DSC08011.JPG'
p424
aI4995
aI2187
aI49760
aa(lp425
S'http://128.84.3.178/ethan/weed_cover_images/goreLab_08_12_2016/DSC07973.JPG'
p426
aI2940
aI487
aI50007
aa(lp427
S'http://128.84.3.178/ethan/weed_cover_images/goreLab_08_12_2016/DSC08144.JPG'
p428
aI590
aI2184
aI50235
aa(lp429
S'http://128.84.3.178/ethan/weed_cover_images/goreLab_08_12_2016/DSC08078.JPG'
p430
aI1629
aI3247
aI50482
aa(lp431
S'http://128.84.3.178/ethan/weed_cover_images/goreLab_08_12_2016/DSC07909.JPG'
p432
aI2459
aI1026
aI50710
aa(lp433
S'http://128.84.3.178/ethan/weed_cover_images/goreLab_08_12_2016/DSC08140.JPG'
p434
aI4007
aI3056
aI50938
aa(lp435
S'http://128.84.3.178/ethan/weed_cover_images/goreLab_08_12_2016/DSC08020.JPG'
p436
aI1632
aI861
aI51185
aa(lp437
S'http://128.84.3.178/ethan/weed_cover_images/goreLab_08_12_2016/DSC08244.JPG'
p438
aI2870
aI365
aI51413
aa(lp439
S'http://128.84.3.178/ethan/weed_cover_images/goreLab_08_12_2016/DSC08085.JPG'
p440
aI77
aI3322
aI51660
aa(lp441
S'http://128.84.3.178/ethan/weed_cover_images/goreLab_08_12_2016/DSC07833.JPG'
p442
aI4714
aI1857
aI51907
aa(lp443
S'http://128.84.3.178/ethan/weed_cover_images/goreLab_08_12_2016/DSC08143.JPG'
p444
aI1735
aI902
aI52154
aa(lp445
S'http://128.84.3.178/ethan/weed_cover_images/goreLab_08_12_2016/DSC08115.JPG'
p446
aI3416
aI1369
aI52401
aa(lp447
S'http://128.84.3.178/ethan/weed_cover_images/goreLab_08_12_2016/DSC07813.JPG'
p448
aI5533
aI1584
aI52629
aa.