(lp0
(lp1
I17
aI153
aI24
aa(lp2
I4
aI166
aI11
aa(lp3
I22
aI148
aI35
aa(lp4
I71
aI99
aI150
aa(lp5
I19
aI151
aI31
aa(lp6
I1
aI169
aI0
aa(lp7
I3
aI167
aI0
aa(lp8
I11
aI159
aI14
aa(lp9
I0
aI170
aI0
aa(lp10
I80
aI107
aI174
aa(lp11
I23
aI147
aI29
aa(lp12
I62
aI108
aI135
aa(lp13
I4
aI166
aI5
aa(lp14
I4
aI176
aI8
aa(lp15
I26
aI161
aI34
aa(lp16
I0
aI170
aI0
aa(lp17
I8
aI179
aI7
aa(lp18
I1
aI169
aI0
aa(lp19
I2
aI185
aI1
aa(lp20
I55
aI143
aI129
aa(lp21
I131
aI56
aI338
aa(lp22
I0
aI170
aI0
aa(lp23
I1
aI169
aI3
aa(lp24
I0
aI170
aI0
aa(lp25
I12
aI158
aI7
aa(lp26
I33
aI137
aI49
aa(lp27
I39
aI148
aI96
aa(lp28
I4
aI183
aI5
aa(lp29
I37
aI133
aI71
aa(lp30
I84
aI103
aI186
aa(lp31
I2
aI185
aI1
aa(lp32
I34
aI153
aI76
aa(lp33
I0
aI187
aI0
aa(lp34
I93
aI77
aI195
aa(lp35
I2
aI168
aI2
aa(lp36
I0
aI170
aI0
aa(lp37
I7
aI180
aI6
aa(lp38
I11
aI159
aI20
aa(lp39
I3
aI184
aI3
aa(lp40
I9
aI178
aI9
aa(lp41
I1
aI186
aI2
aa(lp42
I13
aI174
aI21
aa(lp43
I0
aI170
aI0
aa(lp44
I2
aI185
aI4
aa(lp45
I14
aI156
aI18
aa(lp46
I0
aI170
aI0
aa(lp47
I9
aI161
aI6
aa(lp48
I0
aI187
aI0
aa(lp49
I1
aI169
aI0
aa(lp50
I39
aI148
aI57
aa(lp51
I29
aI141
aI29
aa(lp52
I6
aI181
aI8
aa(lp53
I7
aI163
aI6
aa(lp54
I0
aI170
aI0
aa(lp55
I20
aI167
aI22
aa(lp56
I60
aI110
aI103
aa(lp57
I64
aI106
aI137
aa(lp58
I0
aI180
aI0
aa(lp59
I0
aI170
aI0
aa(lp60
I1
aI186
aI0
aa(lp61
I69
aI111
aI149
aa(lp62
I14
aI156
aI17
aa(lp63
I2
aI185
aI0
aa(lp64
I17
aI153
aI16
aa(lp65
I19
aI151
aI26
aa(lp66
I1
aI169
aI0
aa(lp67
I6
aI174
aI14
aa(lp68
I0
aI187
aI0
aa(lp69
I8
aI162
aI7
aa(lp70
I15
aI172
aI17
aa(lp71
I0
aI170
aI0
aa(lp72
I10
aI160
aI9
aa(lp73
I5
aI165
aI6
aa(lp74
I18
aI169
aI33
aa(lp75
I20
aI178
aI16
aa(lp76
I10
aI160
aI5
aa(lp77
I0
aI180
aI0
aa(lp78
I5
aI165
aI9
aa(lp79
I111
aI76
aI263
aa(lp80
I0
aI187
aI0
aa(lp81
I11
aI169
aI10
aa(lp82
I70
aI100
aI165
aa(lp83
I4
aI166
aI5
aa(lp84
I22
aI148
aI26
aa(lp85
I35
aI135
aI80
aa(lp86
I9
aI189
aI5
aa(lp87
I3
aI167
aI1
aa(lp88
I0
aI170
aI0
aa(lp89
I0
aI170
aI0
aa(lp90
I19
aI151
aI32
aa(lp91
I37
aI150
aI55
aa(lp92
I0
aI170
aI0
aa(lp93
I41
aI129
aI67
aa(lp94
I10
aI160
aI10
aa(lp95
I4
aI166
aI3
aa(lp96
I2
aI168
aI5
aa(lp97
I0
aI187
aI0
aa(lp98
I9
aI161
aI15
aa(lp99
I0
aI187
aI0
aa(lp100
I38
aI132
aI99
aa(lp101
I69
aI111
aI117
aa(lp102
I11
aI169
aI25
aa(lp103
I0
aI187
aI0
aa(lp104
I80
aI107
aI182
aa(lp105
I3
aI184
aI1
aa(lp106
I17
aI170
aI18
aa(lp107
I7
aI180
aI8
aa(lp108
I10
aI188
aI3
aa(lp109
I46
aI124
aI98
aa(lp110
I22
aI148
aI38
aa(lp111
I69
aI101
aI180
aa(lp112
I2
aI168
aI1
aa(lp113
I50
aI137
aI108
aa(lp114
I0
aI170
aI0
aa(lp115
I1
aI186
aI1
aa(lp116
I0
aI187
aI0
aa(lp117
I123
aI64
aI319
aa(lp118
I1
aI169
aI0
aa(lp119
I8
aI162
aI18
aa(lp120
I14
aI156
aI16
aa(lp121
I69
aI101
aI170
aa(lp122
I53
aI134
aI143
aa(lp123
I7
aI180
aI9
aa(lp124
I8
aI179
aI7
aa(lp125
I62
aI125
aI151
aa(lp126
I17
aI170
aI23
aa(lp127
I6
aI164
aI4
aa(lp128
I9
aI161
aI11
aa(lp129
I139
aI31
aI370
aa(lp130
I4
aI183
aI5
aa(lp131
I11
aI176
aI7
aa(lp132
I100
aI70
aI250
aa(lp133
I48
aI139
aI112
aa(lp134
I8
aI162
aI7
aa(lp135
I8
aI162
aI6
aa(lp136
I22
aI165
aI39
aa(lp137
I5
aI165
aI5
aa(lp138
I0
aI170
aI0
aa(lp139
I0
aI170
aI0
aa(lp140
I0
aI170
aI0
aa(lp141
I13
aI157
aI25
aa(lp142
I23
aI147
aI32
aa(lp143
I28
aI159
aI48
aa(lp144
I0
aI187
aI0
aa(lp145
I6
aI181
aI6
aa(lp146
I31
aI156
aI51
aa(lp147
I54
aI116
aI126
aa(lp148
I13
aI157
aI18
aa(lp149
I4
aI166
aI4
aa(lp150
I14
aI173
aI26
aa(lp151
I4
aI166
aI5
aa(lp152
I5
aI165
aI8
aa(lp153
I4
aI183
aI5
aa(lp154
I5
aI165
aI6
aa(lp155
I50
aI120
aI93
aa(lp156
I17
aI153
aI31
aa(lp157
I34
aI153
aI74
aa(lp158
I30
aI157
aI50
aa(lp159
I0
aI187
aI0
aa(lp160
I0
aI170
aI0
aa(lp161
I45
aI142
aI87
aa(lp162
I0
aI170
aI0
aa(lp163
I20
aI167
aI22
aa(lp164
I5
aI165
aI13
aa(lp165
I0
aI170
aI0
aa(lp166
I7
aI163
aI8
aa(lp167
I25
aI162
aI35
aa(lp168
I8
aI179
aI11
aa(lp169
I20
aI178
aI21
aa(lp170
I2
aI185
aI1
aa(lp171
I34
aI153
aI63
aa(lp172
I13
aI157
aI24
aa(lp173
I7
aI163
aI7
aa(lp174
I41
aI129
aI75
aa(lp175
I10
aI177
aI9
aa(lp176
I23
aI164
aI44
aa(lp177
I1
aI197
aI0
aa(lp178
I96
aI91
aI227
aa(lp179
I31
aI139
aI45
aa(lp180
I35
aI135
aI56
aa(lp181
I12
aI175
aI7
aa(lp182
I6
aI164
aI3
aa(lp183
I34
aI153
aI55
aa(lp184
I4
aI183
aI2
aa(lp185
I35
aI135
aI59
aa(lp186
I1
aI169
aI0
aa(lp187
I1
aI186
aI0
aa(lp188
I12
aI175
aI13
aa(lp189
I51
aI136
aI102
aa(lp190
I6
aI164
aI6
aa(lp191
I12
aI158
aI16
aa(lp192
I0
aI170
aI0
aa(lp193
I0
aI170
aI0
aa(lp194
I55
aI132
aI127
aa(lp195
I16
aI171
aI16
aa(lp196
I0
aI180
aI0
aa(lp197
I17
aI153
aI18
aa(lp198
I0
aI187
aI0
aa(lp199
I1
aI186
aI1
aa(lp200
I2
aI168
aI1
aa(lp201
I0
aI187
aI0
aa(lp202
I81
aI89
aI190
aa(lp203
I6
aI181
aI4
aa(lp204
I0
aI187
aI0
aa(lp205
I7
aI180
aI11
aa(lp206
I13
aI157
aI14
aa(lp207
I37
aI133
aI75
aa(lp208
I16
aI154
aI17
aa(lp209
I5
aI165
aI5
aa(lp210
I6
aI181
aI6
aa(lp211
I33
aI154
aI71
aa(lp212
I0
aI187
aI0
aa(lp213
I10
aI160
aI11
aa(lp214
I11
aI176
aI12
aa(lp215
I17
aI153
aI28
aa(lp216
I4
aI166
aI2
aa(lp217
I0
aI187
aI0
aa(lp218
I28
aI142
aI60
aa(lp219
I8
aI179
aI13
aa(lp220
I0
aI187
aI0
aa(lp221
I58
aI129
aI112
aa(lp222
I1
aI186
aI0
aa(lp223
I0
aI170
aI0
aa(lp224
I20
aI167
aI26
aa.