(lp0
(lp1
I18
aI210
aI24
aa(lp2
I14
aI214
aI18
aa(lp3
I39
aI189
aI46
aa(lp4
I91
aI137
aI196
aa(lp5
I24
aI204
aI34
aa(lp6
I1
aI246
aI0
aa(lp7
I9
aI219
aI6
aa(lp8
I11
aI217
aI14
aa(lp9
I0
aI228
aI0
aa(lp10
I99
aI148
aI202
aa(lp11
I25
aI203
aI29
aa(lp12
I85
aI143
aI161
aa(lp13
I4
aI224
aI5
aa(lp14
I10
aI230
aI12
aa(lp15
I29
aI231
aI38
aa(lp16
I0
aI228
aI0
aa(lp17
I8
aI239
aI7
aa(lp18
I7
aI221
aI6
aa(lp19
I2
aI245
aI1
aa(lp20
I68
aI192
aI139
aa(lp21
I168
aI79
aI396
aa(lp22
I0
aI228
aI0
aa(lp23
I5
aI223
aI6
aa(lp24
I0
aI228
aI0
aa(lp25
I18
aI210
aI16
aa(lp26
I43
aI185
aI67
aa(lp27
I63
aI184
aI131
aa(lp28
I10
aI237
aI9
aa(lp29
I52
aI176
aI92
aa(lp30
I110
aI137
aI224
aa(lp31
I10
aI250
aI10
aa(lp32
I47
aI200
aI88
aa(lp33
I0
aI247
aI0
aa(lp34
I126
aI102
aI232
aa(lp35
I6
aI222
aI7
aa(lp36
I0
aI228
aI0
aa(lp37
I10
aI237
aI7
aa(lp38
I15
aI213
aI21
aa(lp39
I3
aI244
aI3
aa(lp40
I12
aI235
aI10
aa(lp41
I7
aI240
aI5
aa(lp42
I19
aI228
aI26
aa(lp43
I0
aI228
aI0
aa(lp44
I4
aI243
aI5
aa(lp45
I19
aI209
aI22
aa(lp46
I1
aI227
aI0
aa(lp47
I10
aI218
aI6
aa(lp48
I0
aI247
aI0
aa(lp49
I1
aI227
aI0
aa(lp50
I45
aI202
aI67
aa(lp51
I35
aI193
aI34
aa(lp52
I6
aI241
aI8
aa(lp53
I9
aI219
aI6
aa(lp54
I0
aI228
aI0
aa(lp55
I23
aI237
aI23
aa(lp56
I77
aI151
aI120
aa(lp57
I84
aI144
aI171
aa(lp58
I0
aI240
aI0
aa(lp59
I0
aI228
aI0
aa(lp60
I1
aI246
aI0
aa(lp61
I75
aI165
aI155
aa(lp62
I15
aI213
aI17
aa(lp63
I9
aI238
aI10
aa(lp64
I18
aI210
aI16
aa(lp65
I36
aI192
aI53
aa(lp66
I2
aI226
aI1
aa(lp67
I15
aI225
aI26
aa(lp68
I0
aI247
aI0
aa(lp69
I8
aI220
aI7
aa(lp70
I19
aI228
aI23
aa(lp71
I0
aI228
aI0
aa(lp72
I13
aI215
aI10
aa(lp73
I10
aI218
aI14
aa(lp74
I18
aI229
aI33
aa(lp75
I24
aI236
aI18
aa(lp76
I16
aI212
aI16
aa(lp77
I0
aI240
aI0
aa(lp78
I15
aI213
aI18
aa(lp79
I121
aI126
aI278
aa(lp80
I0
aI247
aI0
aa(lp81
I15
aI225
aI16
aa(lp82
I84
aI144
aI203
aa(lp83
I7
aI221
aI6
aa(lp84
I25
aI203
aI28
aa(lp85
I38
aI190
aI82
aa(lp86
I9
aI251
aI5
aa(lp87
I4
aI224
aI1
aa(lp88
I0
aI228
aI0
aa(lp89
I0
aI228
aI0
aa(lp90
I24
aI204
aI45
aa(lp91
I46
aI201
aI65
aa(lp92
I0
aI228
aI0
aa(lp93
I59
aI169
aI85
aa(lp94
I11
aI217
aI10
aa(lp95
I6
aI222
aI5
aa(lp96
I12
aI216
aI12
aa(lp97
I5
aI255
aI7
aa(lp98
I13
aI215
aI18
aa(lp99
I0
aI247
aI0
aa(lp100
I48
aI180
aI107
aa(lp101
I87
aI153
aI138
aa(lp102
I24
aI216
aI36
aa(lp103
I1
aI246
aI0
aa(lp104
I85
aI162
aI194
aa(lp105
I6
aI241
aI7
aa(lp106
I25
aI222
aI26
aa(lp107
I15
aI232
aI26
aa(lp108
I29
aI231
aI23
aa(lp109
I64
aI164
aI133
aa(lp110
I38
aI190
aI58
aa(lp111
I97
aI131
aI222
aa(lp112
I5
aI223
aI6
aa(lp113
I77
aI170
aI164
aa(lp114
I0
aI228
aI0
aa(lp115
I5
aI242
aI3
aa(lp116
I0
aI247
aI0
aa(lp117
I162
aI85
aI378
aa(lp118
I1
aI227
aI0
aa(lp119
I18
aI210
aI34
aa(lp120
I22
aI206
aI25
aa(lp121
I98
aI130
aI209
aa(lp122
I69
aI178
aI170
aa(lp123
I8
aI239
aI9
aa(lp124
I18
aI229
aI20
aa(lp125
I94
aI153
aI192
aa(lp126
I22
aI225
aI29
aa(lp127
I14
aI214
aI18
aa(lp128
I9
aI219
aI11
aa(lp129
I171
aI57
aI430
aa(lp130
I6
aI241
aI9
aa(lp131
I25
aI222
aI27
aa(lp132
I112
aI116
aI268
aa(lp133
I50
aI197
aI113
aa(lp134
I20
aI208
aI28
aa(lp135
I10
aI218
aI7
aa(lp136
I36
aI211
aI70
aa(lp137
I5
aI223
aI5
aa(lp138
I0
aI228
aI0
aa(lp139
I0
aI228
aI0
aa(lp140
I0
aI228
aI0
aa(lp141
I22
aI206
aI30
aa(lp142
I31
aI197
aI49
aa(lp143
I31
aI216
aI50
aa(lp144
I2
aI245
aI0
aa(lp145
I9
aI238
aI7
aa(lp146
I44
aI203
aI62
aa(lp147
I74
aI154
aI173
aa(lp148
I25
aI203
aI35
aa(lp149
I4
aI224
aI4
aa(lp150
I14
aI233
aI26
aa(lp151
I4
aI224
aI5
aa(lp152
I19
aI209
aI17
aa(lp153
I4
aI243
aI5
aa(lp154
I9
aI219
aI14
aa(lp155
I50
aI178
aI93
aa(lp156
I18
aI210
aI31
aa(lp157
I45
aI202
aI91
aa(lp158
I50
aI197
aI83
aa(lp159
I0
aI247
aI0
aa(lp160
I0
aI228
aI0
aa(lp161
I48
aI199
aI89
aa(lp162
I0
aI228
aI0
aa(lp163
I25
aI222
aI24
aa(lp164
I13
aI215
aI25
aa(lp165
I0
aI228
aI0
aa(lp166
I11
aI217
aI9
aa(lp167
I34
aI213
aI46
aa(lp168
I16
aI231
aI15
aa(lp169
I22
aI238
aI22
aa(lp170
I2
aI245
aI1
aa(lp171
I44
aI203
aI83
aa(lp172
I16
aI212
aI25
aa(lp173
I10
aI218
aI9
aa(lp174
I58
aI170
aI94
aa(lp175
I13
aI234
aI10
aa(lp176
I34
aI213
aI53
aa(lp177
I3
aI257
aI1
aa(lp178
I128
aI119
aI280
aa(lp179
I34
aI194
aI47
aa(lp180
I38
aI190
aI57
aa(lp181
I12
aI235
aI7
aa(lp182
I11
aI217
aI6
aa(lp183
I42
aI205
aI61
aa(lp184
I6
aI241
aI6
aa(lp185
I41
aI187
aI68
aa(lp186
I2
aI226
aI0
aa(lp187
I2
aI245
aI0
aa(lp188
I14
aI233
aI18
aa(lp189
I65
aI182
aI130
aa(lp190
I16
aI212
aI22
aa(lp191
I20
aI208
aI26
aa(lp192
I4
aI224
aI3
aa(lp193
I0
aI228
aI0
aa(lp194
I61
aI186
aI132
aa(lp195
I16
aI231
aI16
aa(lp196
I0
aI240
aI0
aa(lp197
I22
aI206
aI20
aa(lp198
I0
aI247
aI0
aa(lp199
I4
aI243
aI3
aa(lp200
I2
aI226
aI1
aa(lp201
I0
aI247
aI0
aa(lp202
I101
aI127
aI218
aa(lp203
I6
aI241
aI4
aa(lp204
I0
aI247
aI0
aa(lp205
I7
aI240
aI11
aa(lp206
I15
aI213
aI15
aa(lp207
I45
aI183
aI80
aa(lp208
I20
aI208
aI21
aa(lp209
I8
aI220
aI6
aa(lp210
I6
aI241
aI6
aa(lp211
I34
aI213
aI72
aa(lp212
I0
aI247
aI0
aa(lp213
I12
aI216
aI13
aa(lp214
I11
aI236
aI12
aa(lp215
I20
aI208
aI29
aa(lp216
I8
aI220
aI4
aa(lp217
I0
aI247
aI0
aa(lp218
I28
aI200
aI60
aa(lp219
I8
aI239
aI13
aa(lp220
I0
aI247
aI0
aa(lp221
I83
aI164
aI157
aa(lp222
I1
aI246
aI0
aa(lp223
I0
aI228
aI0
aa(lp224
I30
aI217
aI50
aa.