(dp0
S'val_stats'
p1
(dp2
S'num_jittered'
p3
F1.7750906892382103
sS'num_cg'
p4
I1
sS'num_ncg'
p5
F8.596130592503023
ssS'train'
p6
(lp7
I95
aI112
aI187
aI2
aI41
aI18
aI219
aI129
aI206
aI68
aI208
aI61
aI121
aI198
aI44
aI33
aI24
aI156
aI154
aI6
aI37
aI169
aI66
aI111
aI209
aI125
aI136
aI162
aI47
aI114
aI93
aI65
aI160
aI201
aI170
aI175
aI174
aI62
aI59
aI163
aI223
aI218
aI110
aI8
aI119
aI127
aI158
aI131
aI50
aI145
aI117
aI40
aI86
aI195
aI196
aI43
aI190
aI69
aI184
aI212
aI205
aI222
aI128
aI199
aI104
aI10
aI204
aI39
aI49
aI118
aI70
aI130
aI71
aI141
aI96
aI144
aI171
aI126
aI58
aI79
aI109
aI23
aI108
aI14
aI140
aI200
aI159
aI186
aI64
aI94
aI17
aI135
aI60
aI181
aI16
aI102
aI173
aI139
aI63
aI88
aI146
aI182
aI53
aI28
aI188
aI84
aI155
aI3
aI5
aI193
aI30
aI197
aI213
aI148
aI207
aI35
aI122
aI57
aI0
aI19
aI52
aI214
aI31
aI221
aI113
aI194
aI29
aI120
aI192
aI133
aI116
aI27
aI87
aI38
aI7
aI177
aI167
aI166
aI180
aI179
aI147
aI132
aI185
aI80
aI25
aI176
aI21
aI74
aI115
aI92
aI217
aI106
aI153
aI77
aI97
aI15
aI149
aI137
asS'train_stats'
p8
(dp9
g3
F1.7738217213114753
sg4
I1
sg5
F8.59375
ssS'test'
p10
(lp11
I152
aI216
aI101
aI203
aI76
aI12
aI191
aI55
aI150
aI123
aI168
aI99
aI90
aI42
aI46
aI83
aI81
aI73
aI75
aI138
aI161
aI20
aI100
aI89
aI22
aI11
aI210
aI9
aI189
aI105
aI4
aI34
aI134
asS'test_stats'
p12
(dp13
g3
F1.8135764944275583
sg4
I1
sg5
F6.8844984802431615
ssS'validation'
p14
(lp15
I157
aI103
aI48
aI178
aI215
aI98
aI183
aI211
aI26
aI67
aI172
aI85
aI45
aI51
aI107
aI1
aI220
aI78
aI56
aI165
aI124
aI91
aI32
aI54
aI36
aI164
aI13
aI202
aI151
aI72
aI82
aI143
aI142
as.