(dp0
S'val_stats'
p1
(dp2
S'num_jittered'
p3
F1.8014268727705114
sS'num_cg'
p4
I1
sS'num_ncg'
p5
F8.367419738406658
ssS'train'
p6
(lp7
I208
aI24
aI192
aI215
aI93
aI181
aI18
aI163
aI171
aI76
aI16
aI50
aI28
aI220
aI57
aI138
aI69
aI188
aI89
aI77
aI203
aI58
aI175
aI182
aI20
aI193
aI59
aI198
aI92
aI187
aI160
aI119
aI205
aI66
aI51
aI222
aI49
aI54
aI168
aI60
aI219
aI161
aI87
aI140
aI36
aI211
aI105
aI169
aI21
aI174
aI158
aI122
aI47
aI83
aI72
aI88
aI139
aI107
aI200
aI81
aI149
aI209
aI109
aI116
aI11
aI90
aI195
aI96
aI3
aI141
aI17
aI104
aI84
aI148
aI152
aI55
aI194
aI144
aI112
aI68
aI156
aI100
aI82
aI221
aI6
aI113
aI34
aI38
aI186
aI137
aI118
aI147
aI145
aI99
aI133
aI32
aI178
aI114
aI204
aI33
aI62
aI197
aI218
aI13
aI216
aI14
aI167
aI121
aI135
aI223
aI151
aI103
aI56
aI70
aI176
aI8
aI120
aI177
aI41
aI217
aI172
aI136
aI52
aI67
aI131
aI125
aI154
aI124
aI95
aI12
aI196
aI22
aI7
aI201
aI212
aI75
aI207
aI173
aI86
aI134
aI65
aI179
aI97
aI73
aI191
aI213
aI30
aI79
aI71
aI123
aI53
aI45
aI143
aI110
aI183
aI206
aI126
aI162
asS'train_stats'
p8
(dp9
g3
F1.7748393475037074
sg4
I1
sg5
F8.280276816608996
ssS'test'
p10
(lp11
I117
aI61
aI164
aI155
aI1
aI129
aI153
aI190
aI27
aI111
aI127
aI102
aI166
aI44
aI25
aI199
aI128
aI37
aI202
aI23
aI39
aI170
aI146
aI130
aI29
aI63
aI85
aI0
aI108
aI40
aI185
aI2
aI165
asS'test_stats'
p12
(dp13
g3
F1.789410348977136
sg4
I1
sg5
F8.321299638989169
ssS'validation'
p14
(lp15
I210
aI10
aI64
aI5
aI19
aI15
aI9
aI4
aI214
aI106
aI189
aI26
aI46
aI91
aI142
aI42
aI132
aI35
aI115
aI43
aI98
aI94
aI74
aI150
aI80
aI48
aI78
aI180
aI31
aI101
aI157
aI184
aI159
as.