(lp0
S'http://server.genobyte.us/ethan/weed_cover_images/flyTerra_2016_08_19/split/DSC00362_26.JPG'
p1
aS'http://server.genobyte.us/ethan/weed_cover_images/flyTerra_2016_08_19/split/DSC00319_3.JPG'
p2
aS'http://server.genobyte.us/ethan/weed_cover_images/flyTerra_2016_08_19/split/DSC00316_41.JPG'
p3
aS'http://server.genobyte.us/ethan/weed_cover_images/flyTerra_2016_08_19/split/DSC00349_4.JPG'
p4
aS'http://server.genobyte.us/ethan/weed_cover_images/flyTerra_2016_08_19/split/DSC00328_2.JPG'
p5
aS'http://server.genobyte.us/ethan/weed_cover_images/goreLab_08_09_2016/split/DSC05790_3.JPG'
p6
aS'http://server.genobyte.us/ethan/weed_cover_images/flyTerra_2016_08_19/split/DSC00322_11.JPG'
p7
aS'http://server.genobyte.us/ethan/weed_cover_images/flyTerra_2016_08_19/split/DSC00351_39.JPG'
p8
aS'http://server.genobyte.us/ethan/weed_cover_images/flyTerra_2016_08_19/split/DSC00346_25.JPG'
p9
aS'http://server.genobyte.us/ethan/weed_cover_images/flyTerra_2016_08_19/split/DSC00361_5.JPG'
p10
aS'http://server.genobyte.us/ethan/weed_cover_images/flyTerra_2016_08_19/split/DSC00323_7.JPG'
p11
aS'http://server.genobyte.us/ethan/weed_cover_images/flyTerra_2016_08_19/split/DSC00324_29.JPG'
p12
aS'http://server.genobyte.us/ethan/weed_cover_images/flyTerra_2016_08_19/split/DSC00357_12.JPG'
p13
aS'http://server.genobyte.us/ethan/weed_cover_images/flyTerra_2016_08_19/split/DSC00353_18.JPG'
p14
aS'http://server.genobyte.us/ethan/weed_cover_images/goreLab_08_09_2016/split/DSC05900_3.JPG'
p15
aS'http://server.genobyte.us/ethan/weed_cover_images/goreLab_08_09_2016/split/DSC05863_1.JPG'
p16
aS'http://server.genobyte.us/ethan/weed_cover_images/flyTerra_2016_08_19/split/DSC00315_15.JPG'
p17
aS'http://server.genobyte.us/ethan/weed_cover_images/goreLab_08_09_2016/split/DSC05866_2.JPG'
p18
aS'http://server.genobyte.us/ethan/weed_cover_images/flyTerra_2016_08_19/split/DSC00350_21.JPG'
p19
aS'http://server.genobyte.us/ethan/weed_cover_images/flyTerra_2016_08_19/split/DSC00333_36.JPG'
p20
aS'http://server.genobyte.us/ethan/weed_cover_images/flyTerra_2016_08_19/split/DSC00329_29.JPG'
p21
aS'http://server.genobyte.us/ethan/weed_cover_images/flyTerra_2016_08_19/split/DSC00356_24.JPG'
p22
aS'http://server.genobyte.us/ethan/weed_cover_images/flyTerra_2016_08_19/split/DSC00315_12.JPG'
p23
aS'http://server.genobyte.us/ethan/weed_cover_images/flyTerra_2016_08_19/split/DSC00358_3.JPG'
p24
aS'http://server.genobyte.us/ethan/weed_cover_images/flyTerra_2016_08_19/split/DSC00346_17.JPG'
p25
aS'http://server.genobyte.us/ethan/weed_cover_images/flyTerra_2016_08_19/split/DSC00330_11.JPG'
p26
aS'http://server.genobyte.us/ethan/weed_cover_images/flyTerra_2016_08_19/split/DSC00317_44.JPG'
p27
aS'http://server.genobyte.us/ethan/weed_cover_images/goreLab_08_09_2016/split/DSC05785_2.JPG'
p28
aS'http://server.genobyte.us/ethan/weed_cover_images/flyTerra_2016_08_19/split/DSC00347_37.JPG'
p29
aS'http://server.genobyte.us/ethan/weed_cover_images/flyTerra_2016_08_19/split/DSC00330_26.JPG'
p30
aS'http://server.genobyte.us/ethan/weed_cover_images/flyTerra_2016_08_19/split/DSC00344_2.JPG'
p31
aS'http://server.genobyte.us/ethan/weed_cover_images/flyTerra_2016_08_19/split/DSC00326_10.JPG'
p32
aS'http://server.genobyte.us/ethan/weed_cover_images/flyTerra_2016_08_19/split/DSC00322_1.JPG'
p33
aS'http://server.genobyte.us/ethan/weed_cover_images/flyTerra_2016_08_19/split/DSC00360_45.JPG'
p34
aS'http://server.genobyte.us/ethan/weed_cover_images/flyTerra_2016_08_19/split/DSC00344_21.JPG'
p35
aS'http://server.genobyte.us/ethan/weed_cover_images/goreLab_08_09_2016/split/DSC05893_0.JPG'
p36
aS'http://server.genobyte.us/ethan/weed_cover_images/flyTerra_2016_08_19/split/DSC00331_13.JPG'
p37
aS'http://server.genobyte.us/ethan/weed_cover_images/flyTerra_2016_08_19/split/DSC00360_4.JPG'
p38
aS'http://server.genobyte.us/ethan/weed_cover_images/flyTerra_2016_08_19/split/DSC00332_28.JPG'
p39
aS'http://server.genobyte.us/ethan/weed_cover_images/goreLab_08_09_2016/split/DSC05999_2.JPG'
p40
aS'http://server.genobyte.us/ethan/weed_cover_images/flyTerra_2016_08_19/split/DSC00352_37.JPG'
p41
aS'http://server.genobyte.us/ethan/weed_cover_images/goreLab_08_09_2016/split/DSC05896_3.JPG'
p42
aS'http://server.genobyte.us/ethan/weed_cover_images/flyTerra_2016_08_19/split/DSC00345_10.JPG'
p43
aS'http://server.genobyte.us/ethan/weed_cover_images/flyTerra_2016_08_19/split/DSC00345_6.JPG'
p44
aS'http://server.genobyte.us/ethan/weed_cover_images/flyTerra_2016_08_19/split/DSC00350_35.JPG'
p45
aS'http://server.genobyte.us/ethan/weed_cover_images/goreLab_08_09_2016/split/DSC05784_0.JPG'
p46
aS'http://server.genobyte.us/ethan/weed_cover_images/flyTerra_2016_08_19/split/DSC00349_41.JPG'
p47
aS'http://server.genobyte.us/ethan/weed_cover_images/flyTerra_2016_08_19/split/DSC00321_6.JPG'
p48
aS'http://server.genobyte.us/ethan/weed_cover_images/flyTerra_2016_08_19/split/DSC00346_33.JPG'
p49
aS'http://server.genobyte.us/ethan/weed_cover_images/flyTerra_2016_08_19/split/DSC00327_42.JPG'
p50
aS'http://server.genobyte.us/ethan/weed_cover_images/flyTerra_2016_08_19/split/DSC00360_17.JPG'
p51
aS'http://server.genobyte.us/ethan/weed_cover_images/goreLab_08_09_2016/split/DSC05988_3.JPG'
p52
aS'http://server.genobyte.us/ethan/weed_cover_images/flyTerra_2016_08_19/split/DSC00355_31.JPG'
p53
aS'http://server.genobyte.us/ethan/weed_cover_images/flyTerra_2016_08_19/split/DSC00326_25.JPG'
p54
aS'http://server.genobyte.us/ethan/weed_cover_images/flyTerra_2016_08_19/split/DSC00317_33.JPG'
p55
aS'http://server.genobyte.us/ethan/weed_cover_images/flyTerra_2016_08_19/split/DSC00322_15.JPG'
p56
aS'http://server.genobyte.us/ethan/weed_cover_images/flyTerra_2016_08_19/split/DSC00326_35.JPG'
p57
aS'http://server.genobyte.us/ethan/weed_cover_images/flyTerra_2016_08_19/split/DSC00321_37.JPG'
p58
aS'http://server.genobyte.us/ethan/weed_cover_images/goreLab_08_09_2016/split/DSC05954_0.JPG'
p59
aS'http://server.genobyte.us/ethan/weed_cover_images/flyTerra_2016_08_19/split/DSC00317_35.JPG'
p60
aS'http://server.genobyte.us/ethan/weed_cover_images/flyTerra_2016_08_19/split/DSC00317_12.JPG'
p61
aS'http://server.genobyte.us/ethan/weed_cover_images/goreLab_08_09_2016/split/DSC05901_2.JPG'
p62
aS'http://server.genobyte.us/ethan/weed_cover_images/flyTerra_2016_08_19/split/DSC00350_24.JPG'
p63
aS'http://server.genobyte.us/ethan/weed_cover_images/goreLab_08_09_2016/split/DSC05995_2.JPG'
p64
aS'http://server.genobyte.us/ethan/weed_cover_images/flyTerra_2016_08_19/split/DSC00318_12.JPG'
p65
aS'http://server.genobyte.us/ethan/weed_cover_images/flyTerra_2016_08_19/split/DSC00318_14.JPG'
p66
aS'http://server.genobyte.us/ethan/weed_cover_images/flyTerra_2016_08_19/split/DSC00361_36.JPG'
p67
aS'http://server.genobyte.us/ethan/weed_cover_images/flyTerra_2016_08_19/split/DSC00356_17.JPG'
p68
aS'http://server.genobyte.us/ethan/weed_cover_images/flyTerra_2016_08_19/split/DSC00362_24.JPG'
p69
aS'http://server.genobyte.us/ethan/weed_cover_images/flyTerra_2016_08_19/split/DSC00363_22.JPG'
p70
aS'http://server.genobyte.us/ethan/weed_cover_images/flyTerra_2016_08_19/split/DSC00358_44.JPG'
p71
aS'http://server.genobyte.us/ethan/weed_cover_images/flyTerra_2016_08_19/split/DSC00319_24.JPG'
p72
aS'http://server.genobyte.us/ethan/weed_cover_images/flyTerra_2016_08_19/split/DSC00351_45.JPG'
p73
aS'http://server.genobyte.us/ethan/weed_cover_images/flyTerra_2016_08_19/split/DSC00357_41.JPG'
p74
aS'http://server.genobyte.us/ethan/weed_cover_images/flyTerra_2016_08_19/split/DSC00316_34.JPG'
p75
aS'http://server.genobyte.us/ethan/weed_cover_images/goreLab_08_10_2016/flight_1/split/IMG_2226_1.JPG'
p76
aS'http://server.genobyte.us/ethan/weed_cover_images/goreLab_08_09_2016/split/DSC05997_1.JPG'
p77
aS'http://server.genobyte.us/ethan/weed_cover_images/flyTerra_2016_08_19/split/DSC00355_21.JPG'
p78
aS'http://server.genobyte.us/ethan/weed_cover_images/flyTerra_2016_08_19/split/DSC00319_46.JPG'
p79
aS'http://server.genobyte.us/ethan/weed_cover_images/flyTerra_2016_08_19/split/DSC00328_15.JPG'
p80
aS'http://server.genobyte.us/ethan/weed_cover_images/flyTerra_2016_08_19/split/DSC00326_17.JPG'
p81
aS'http://server.genobyte.us/ethan/weed_cover_images/flyTerra_2016_08_19/split/DSC00326_28.JPG'
p82
aS'http://server.genobyte.us/ethan/weed_cover_images/flyTerra_2016_08_19/split/DSC00344_24.JPG'
p83
aS'http://server.genobyte.us/ethan/weed_cover_images/flyTerra_2016_08_19/split/DSC00322_14.JPG'
p84
aS'http://server.genobyte.us/ethan/weed_cover_images/flyTerra_2016_08_19/split/DSC00331_15.JPG'
p85
aS'http://server.genobyte.us/ethan/weed_cover_images/flyTerra_2016_08_19/split/DSC00345_11.JPG'
p86
aS'http://server.genobyte.us/ethan/weed_cover_images/flyTerra_2016_08_19/split/DSC00333_8.JPG'
p87
aS'http://server.genobyte.us/ethan/weed_cover_images/flyTerra_2016_08_19/split/DSC00315_2.JPG'
p88
aS'http://server.genobyte.us/ethan/weed_cover_images/flyTerra_2016_08_19/split/DSC00345_33.JPG'
p89
aS'http://server.genobyte.us/ethan/weed_cover_images/flyTerra_2016_08_19/split/DSC00323_16.JPG'
p90
aS'http://server.genobyte.us/ethan/weed_cover_images/flyTerra_2016_08_19/split/DSC00356_44.JPG'
p91
aS'http://server.genobyte.us/ethan/weed_cover_images/flyTerra_2016_08_19/split/DSC00318_29.JPG'
p92
aS'http://server.genobyte.us/ethan/weed_cover_images/flyTerra_2016_08_19/split/DSC00354_1.JPG'
p93
aS'http://server.genobyte.us/ethan/weed_cover_images/flyTerra_2016_08_19/split/DSC00363_34.JPG'
p94
aS'http://server.genobyte.us/ethan/weed_cover_images/flyTerra_2016_08_19/split/DSC00330_21.JPG'
p95
aS'http://server.genobyte.us/ethan/weed_cover_images/flyTerra_2016_08_19/split/DSC00354_44.JPG'
p96
aS'http://server.genobyte.us/ethan/weed_cover_images/flyTerra_2016_08_19/split/DSC00363_4.JPG'
p97
aS'http://server.genobyte.us/ethan/weed_cover_images/flyTerra_2016_08_19/split/DSC00327_25.JPG'
p98
aS'http://server.genobyte.us/ethan/weed_cover_images/flyTerra_2016_08_19/split/DSC00331_4.JPG'
p99
aS'http://server.genobyte.us/ethan/weed_cover_images/flyTerra_2016_08_19/split/DSC00330_0.JPG'
p100
aS'http://server.genobyte.us/ethan/weed_cover_images/flyTerra_2016_08_19/split/DSC00363_36.JPG'
p101
aS'http://server.genobyte.us/ethan/weed_cover_images/goreLab_08_09_2016/split/DSC05867_3.JPG'
p102
aS'http://server.genobyte.us/ethan/weed_cover_images/flyTerra_2016_08_19/split/DSC00361_25.JPG'
p103
aS'http://server.genobyte.us/ethan/weed_cover_images/flyTerra_2016_08_19/split/DSC00317_18.JPG'
p104
aS'http://server.genobyte.us/ethan/weed_cover_images/goreLab_08_09_2016/split/DSC05786_0.JPG'
p105
aS'http://server.genobyte.us/ethan/weed_cover_images/flyTerra_2016_08_19/split/DSC00332_32.JPG'
p106
aS'http://server.genobyte.us/ethan/weed_cover_images/flyTerra_2016_08_19/split/DSC00320_21.JPG'
p107
aS'http://server.genobyte.us/ethan/weed_cover_images/goreLab_08_09_2016/split/DSC05857_2.JPG'
p108
aS'http://server.genobyte.us/ethan/weed_cover_images/goreLab_08_09_2016/split/DSC05956_2.JPG'
p109
aS'http://server.genobyte.us/ethan/weed_cover_images/flyTerra_2016_08_19/split/DSC00333_28.JPG'
p110
aS'http://server.genobyte.us/ethan/weed_cover_images/flyTerra_2016_08_19/split/DSC00357_9.JPG'
p111
aS'http://server.genobyte.us/ethan/weed_cover_images/flyTerra_2016_08_19/split/DSC00344_20.JPG'
p112
aS'http://server.genobyte.us/ethan/weed_cover_images/flyTerra_2016_08_19/split/DSC00319_10.JPG'
p113
aS'http://server.genobyte.us/ethan/weed_cover_images/flyTerra_2016_08_19/split/DSC00345_38.JPG'
p114
aS'http://server.genobyte.us/ethan/weed_cover_images/flyTerra_2016_08_19/split/DSC00349_45.JPG'
p115
aS'http://server.genobyte.us/ethan/weed_cover_images/flyTerra_2016_08_19/split/DSC00329_31.JPG'
p116
aS'http://server.genobyte.us/ethan/weed_cover_images/goreLab_08_09_2016/split/DSC05897_1.JPG'
p117
aS'http://server.genobyte.us/ethan/weed_cover_images/goreLab_08_10_2016/flight_1/split/IMG_2186_2.JPG'
p118
aS'http://server.genobyte.us/ethan/weed_cover_images/flyTerra_2016_08_19/split/DSC00329_10.JPG'
p119
aS'http://server.genobyte.us/ethan/weed_cover_images/flyTerra_2016_08_19/split/DSC00361_13.JPG'
p120
aS'http://server.genobyte.us/ethan/weed_cover_images/flyTerra_2016_08_19/split/DSC00318_31.JPG'
p121
aS'http://server.genobyte.us/ethan/weed_cover_images/goreLab_08_09_2016/split/DSC05793_3.JPG'
p122
aS'http://server.genobyte.us/ethan/weed_cover_images/flyTerra_2016_08_19/split/DSC00349_32.JPG'
p123
aS'http://server.genobyte.us/ethan/weed_cover_images/flyTerra_2016_08_19/split/DSC00324_3.JPG'
p124
aS'http://server.genobyte.us/ethan/weed_cover_images/flyTerra_2016_08_19/split/DSC00316_18.JPG'
p125
aS'http://server.genobyte.us/ethan/weed_cover_images/flyTerra_2016_08_19/split/DSC00330_13.JPG'
p126
aS'http://server.genobyte.us/ethan/weed_cover_images/flyTerra_2016_08_19/split/DSC00321_2.JPG'
p127
aS'http://server.genobyte.us/ethan/weed_cover_images/flyTerra_2016_08_19/split/DSC00359_14.JPG'
p128
aS'http://server.genobyte.us/ethan/weed_cover_images/flyTerra_2016_08_19/split/DSC00323_13.JPG'
p129
aS'http://server.genobyte.us/ethan/weed_cover_images/flyTerra_2016_08_19/split/DSC00324_12.JPG'
p130
aS'http://server.genobyte.us/ethan/weed_cover_images/flyTerra_2016_08_19/split/DSC00328_35.JPG'
p131
aS'http://server.genobyte.us/ethan/weed_cover_images/flyTerra_2016_08_19/split/DSC00347_36.JPG'
p132
aS'http://server.genobyte.us/ethan/weed_cover_images/flyTerra_2016_08_19/split/DSC00354_28.JPG'
p133
aS'http://server.genobyte.us/ethan/weed_cover_images/flyTerra_2016_08_19/split/DSC00315_30.JPG'
p134
aS'http://server.genobyte.us/ethan/weed_cover_images/flyTerra_2016_08_19/split/DSC00333_44.JPG'
p135
aS'http://server.genobyte.us/ethan/weed_cover_images/flyTerra_2016_08_19/split/DSC00330_34.JPG'
p136
aS'http://server.genobyte.us/ethan/weed_cover_images/flyTerra_2016_08_19/split/DSC00360_46.JPG'
p137
aS'http://server.genobyte.us/ethan/weed_cover_images/flyTerra_2016_08_19/split/DSC00316_5.JPG'
p138
aS'http://server.genobyte.us/ethan/weed_cover_images/flyTerra_2016_08_19/split/DSC00358_35.JPG'
p139
aS'http://server.genobyte.us/ethan/weed_cover_images/flyTerra_2016_08_19/split/DSC00362_21.JPG'
p140
aS'http://server.genobyte.us/ethan/weed_cover_images/flyTerra_2016_08_19/split/DSC00327_24.JPG'
p141
aS'http://server.genobyte.us/ethan/weed_cover_images/flyTerra_2016_08_19/split/DSC00354_36.JPG'
p142
aS'http://server.genobyte.us/ethan/weed_cover_images/goreLab_08_09_2016/split/DSC05992_0.JPG'
p143
aS'http://server.genobyte.us/ethan/weed_cover_images/flyTerra_2016_08_19/split/DSC00359_0.JPG'
p144
aS'http://server.genobyte.us/ethan/weed_cover_images/flyTerra_2016_08_19/split/DSC00350_44.JPG'
p145
aS'http://server.genobyte.us/ethan/weed_cover_images/flyTerra_2016_08_19/split/DSC00353_42.JPG'
p146
aS'http://server.genobyte.us/ethan/weed_cover_images/flyTerra_2016_08_19/split/DSC00318_1.JPG'
p147
aS'http://server.genobyte.us/ethan/weed_cover_images/goreLab_08_10_2016/flight_2/IMG_1399.JPG'
p148
aS'http://server.genobyte.us/ethan/weed_cover_images/goreLab_08_09_2016/split/DSC05795_0.JPG'
p149
aS'http://server.genobyte.us/ethan/weed_cover_images/flyTerra_2016_08_19/split/DSC00315_3.JPG'
p150
aS'http://server.genobyte.us/ethan/weed_cover_images/flyTerra_2016_08_19/split/DSC00357_32.JPG'
p151
aS'http://server.genobyte.us/ethan/weed_cover_images/flyTerra_2016_08_19/split/DSC00362_10.JPG'
p152
aS'http://server.genobyte.us/ethan/weed_cover_images/flyTerra_2016_08_19/split/DSC00318_35.JPG'
p153
aS'http://server.genobyte.us/ethan/weed_cover_images/goreLab_08_10_2016/flight_1/split/IMG_2090_2.JPG'
p154
aS'http://server.genobyte.us/ethan/weed_cover_images/flyTerra_2016_08_19/split/DSC00353_47.JPG'
p155
aS'http://server.genobyte.us/ethan/weed_cover_images/flyTerra_2016_08_19/split/DSC00316_22.JPG'
p156
aS'http://server.genobyte.us/ethan/weed_cover_images/flyTerra_2016_08_19/split/DSC00361_20.JPG'
p157
aS'http://server.genobyte.us/ethan/weed_cover_images/flyTerra_2016_08_19/split/DSC00333_30.JPG'
p158
aS'http://server.genobyte.us/ethan/weed_cover_images/flyTerra_2016_08_19/split/DSC00354_22.JPG'
p159
aS'http://server.genobyte.us/ethan/weed_cover_images/goreLab_08_10_2016/flight_1/split/IMG_2085_0.JPG'
p160
aS'http://server.genobyte.us/ethan/weed_cover_images/flyTerra_2016_08_19/split/DSC00323_14.JPG'
p161
aS'http://server.genobyte.us/ethan/weed_cover_images/flyTerra_2016_08_19/split/DSC00329_38.JPG'
p162
aS'http://server.genobyte.us/ethan/weed_cover_images/flyTerra_2016_08_19/split/DSC00358_0.JPG'
p163
aS'http://server.genobyte.us/ethan/weed_cover_images/flyTerra_2016_08_19/split/DSC00350_38.JPG'
p164
aS'http://server.genobyte.us/ethan/weed_cover_images/flyTerra_2016_08_19/split/DSC00357_27.JPG'
p165
aS'http://server.genobyte.us/ethan/weed_cover_images/goreLab_08_09_2016/split/DSC05866_0.JPG'
p166
aS'http://server.genobyte.us/ethan/weed_cover_images/goreLab_08_09_2016/split/DSC05899_3.JPG'
p167
aS'http://server.genobyte.us/ethan/weed_cover_images/flyTerra_2016_08_19/split/DSC00354_18.JPG'
p168
aS'http://server.genobyte.us/ethan/weed_cover_images/flyTerra_2016_08_19/split/DSC00350_10.JPG'
p169
aS'http://server.genobyte.us/ethan/weed_cover_images/flyTerra_2016_08_19/split/DSC00318_9.JPG'
p170
aS'http://server.genobyte.us/ethan/weed_cover_images/goreLab_08_09_2016/split/DSC05855_2.JPG'
p171
aS'http://server.genobyte.us/ethan/weed_cover_images/flyTerra_2016_08_19/split/DSC00330_42.JPG'
p172
aS'http://server.genobyte.us/ethan/weed_cover_images/flyTerra_2016_08_19/split/DSC00350_14.JPG'
p173
aS'http://server.genobyte.us/ethan/weed_cover_images/goreLab_08_10_2016/flight_1/split/IMG_2091_2.JPG'
p174
aS'http://server.genobyte.us/ethan/weed_cover_images/flyTerra_2016_08_19/split/DSC00319_1.JPG'
p175
aS'http://server.genobyte.us/ethan/weed_cover_images/flyTerra_2016_08_19/split/DSC00322_5.JPG'
p176
aS'http://server.genobyte.us/ethan/weed_cover_images/flyTerra_2016_08_19/split/DSC00360_29.JPG'
p177
aS'http://server.genobyte.us/ethan/weed_cover_images/goreLab_08_09_2016/split/DSC05965_2.JPG'
p178
aS'http://server.genobyte.us/ethan/weed_cover_images/flyTerra_2016_08_19/split/DSC00321_40.JPG'
p179
aS'http://server.genobyte.us/ethan/weed_cover_images/flyTerra_2016_08_19/split/DSC00344_9.JPG'
p180
aS'http://server.genobyte.us/ethan/weed_cover_images/flyTerra_2016_08_19/split/DSC00315_21.JPG'
p181
aS'http://server.genobyte.us/ethan/weed_cover_images/goreLab_08_10_2016/flight_2/IMG_1387.JPG'
p182
aS'http://server.genobyte.us/ethan/weed_cover_images/flyTerra_2016_08_19/split/DSC00352_22.JPG'
p183
aS'http://server.genobyte.us/ethan/weed_cover_images/flyTerra_2016_08_19/split/DSC00315_1.JPG'
p184
aS'http://server.genobyte.us/ethan/weed_cover_images/flyTerra_2016_08_19/split/DSC00345_30.JPG'
p185
aS'http://server.genobyte.us/ethan/weed_cover_images/goreLab_08_09_2016/split/DSC05997_0.JPG'
p186
aS'http://server.genobyte.us/ethan/weed_cover_images/flyTerra_2016_08_19/split/DSC00354_5.JPG'
p187
aS'http://server.genobyte.us/ethan/weed_cover_images/flyTerra_2016_08_19/split/DSC00352_36.JPG'
p188
aS'http://server.genobyte.us/ethan/weed_cover_images/flyTerra_2016_08_19/split/DSC00318_11.JPG'
p189
aS'http://server.genobyte.us/ethan/weed_cover_images/flyTerra_2016_08_19/split/DSC00333_40.JPG'
p190
aS'http://server.genobyte.us/ethan/weed_cover_images/flyTerra_2016_08_19/split/DSC00350_47.JPG'
p191
aS'http://server.genobyte.us/ethan/weed_cover_images/goreLab_08_09_2016/split/DSC05992_3.JPG'
p192
aS'http://server.genobyte.us/ethan/weed_cover_images/flyTerra_2016_08_19/split/DSC00316_28.JPG'
p193
aS'http://server.genobyte.us/ethan/weed_cover_images/flyTerra_2016_08_19/split/DSC00359_17.JPG'
p194
aS'http://server.genobyte.us/ethan/weed_cover_images/flyTerra_2016_08_19/split/DSC00324_33.JPG'
p195
aS'http://server.genobyte.us/ethan/weed_cover_images/flyTerra_2016_08_19/split/DSC00325_0.JPG'
p196
aS'http://server.genobyte.us/ethan/weed_cover_images/flyTerra_2016_08_19/split/DSC00330_16.JPG'
p197
aS'http://server.genobyte.us/ethan/weed_cover_images/flyTerra_2016_08_19/split/DSC00362_12.JPG'
p198
aS'http://server.genobyte.us/ethan/weed_cover_images/flyTerra_2016_08_19/split/DSC00351_38.JPG'
p199
aS'http://server.genobyte.us/ethan/weed_cover_images/flyTerra_2016_08_19/split/DSC00362_19.JPG'
p200
aS'http://server.genobyte.us/ethan/weed_cover_images/flyTerra_2016_08_19/split/DSC00326_3.JPG'
p201
aS'http://server.genobyte.us/ethan/weed_cover_images/goreLab_08_09_2016/split/DSC05963_3.JPG'
p202
aS'http://server.genobyte.us/ethan/weed_cover_images/flyTerra_2016_08_19/split/DSC00316_36.JPG'
p203
aS'http://server.genobyte.us/ethan/weed_cover_images/flyTerra_2016_08_19/split/DSC00315_41.JPG'
p204
aS'http://server.genobyte.us/ethan/weed_cover_images/goreLab_08_09_2016/split/DSC05963_2.JPG'
p205
aS'http://server.genobyte.us/ethan/weed_cover_images/flyTerra_2016_08_19/split/DSC00321_13.JPG'
p206
aS'http://server.genobyte.us/ethan/weed_cover_images/goreLab_08_09_2016/split/DSC05991_0.JPG'
p207
aS'http://server.genobyte.us/ethan/weed_cover_images/goreLab_08_09_2016/split/DSC05991_2.JPG'
p208
aS'http://server.genobyte.us/ethan/weed_cover_images/flyTerra_2016_08_19/split/DSC00358_15.JPG'
p209
aS'http://server.genobyte.us/ethan/weed_cover_images/flyTerra_2016_08_19/split/DSC00319_14.JPG'
p210
aS'http://server.genobyte.us/ethan/weed_cover_images/flyTerra_2016_08_19/split/DSC00349_31.JPG'
p211
aS'http://server.genobyte.us/ethan/weed_cover_images/flyTerra_2016_08_19/split/DSC00331_32.JPG'
p212
aS'http://server.genobyte.us/ethan/weed_cover_images/goreLab_08_10_2016/flight_1/split/IMG_2091_3.JPG'
p213
aS'http://server.genobyte.us/ethan/weed_cover_images/flyTerra_2016_08_19/split/DSC00357_20.JPG'
p214
aS'http://server.genobyte.us/ethan/weed_cover_images/flyTerra_2016_08_19/split/DSC00348_34.JPG'
p215
aS'http://server.genobyte.us/ethan/weed_cover_images/flyTerra_2016_08_19/split/DSC00352_17.JPG'
p216
aS'http://server.genobyte.us/ethan/weed_cover_images/flyTerra_2016_08_19/split/DSC00319_38.JPG'
p217
aS'http://server.genobyte.us/ethan/weed_cover_images/flyTerra_2016_08_19/split/DSC00346_37.JPG'
p218
aS'http://server.genobyte.us/ethan/weed_cover_images/flyTerra_2016_08_19/split/DSC00321_20.JPG'
p219
aS'http://server.genobyte.us/ethan/weed_cover_images/flyTerra_2016_08_19/split/DSC00353_10.JPG'
p220
aS'http://server.genobyte.us/ethan/weed_cover_images/flyTerra_2016_08_19/split/DSC00352_16.JPG'
p221
aS'http://server.genobyte.us/ethan/weed_cover_images/flyTerra_2016_08_19/split/DSC00363_35.JPG'
p222
aS'http://server.genobyte.us/ethan/weed_cover_images/flyTerra_2016_08_19/split/DSC00359_24.JPG'
p223
aS'http://server.genobyte.us/ethan/weed_cover_images/flyTerra_2016_08_19/split/DSC00353_23.JPG'
p224
aS'http://server.genobyte.us/ethan/weed_cover_images/flyTerra_2016_08_19/split/DSC00352_41.JPG'
p225
aS'http://server.genobyte.us/ethan/weed_cover_images/flyTerra_2016_08_19/split/DSC00324_24.JPG'
p226
aS'http://server.genobyte.us/ethan/weed_cover_images/flyTerra_2016_08_19/split/DSC00318_33.JPG'
p227
aS'http://server.genobyte.us/ethan/weed_cover_images/flyTerra_2016_08_19/split/DSC00324_21.JPG'
p228
aS'http://server.genobyte.us/ethan/weed_cover_images/flyTerra_2016_08_19/split/DSC00332_8.JPG'
p229
aS'http://server.genobyte.us/ethan/weed_cover_images/flyTerra_2016_08_19/split/DSC00330_41.JPG'
p230
aS'http://server.genobyte.us/ethan/weed_cover_images/flyTerra_2016_08_19/split/DSC00315_36.JPG'
p231
aS'http://server.genobyte.us/ethan/weed_cover_images/flyTerra_2016_08_19/split/DSC00331_1.JPG'
p232
aS'http://server.genobyte.us/ethan/weed_cover_images/goreLab_08_10_2016/flight_2/IMG_1359.JPG'
p233
aS'http://server.genobyte.us/ethan/weed_cover_images/flyTerra_2016_08_19/split/DSC00322_45.JPG'
p234
aS'http://server.genobyte.us/ethan/weed_cover_images/flyTerra_2016_08_19/split/DSC00358_18.JPG'
p235
aS'http://server.genobyte.us/ethan/weed_cover_images/flyTerra_2016_08_19/split/DSC00348_17.JPG'
p236
aS'http://server.genobyte.us/ethan/weed_cover_images/flyTerra_2016_08_19/split/DSC00355_14.JPG'
p237
aS'http://server.genobyte.us/ethan/weed_cover_images/flyTerra_2016_08_19/split/DSC00333_45.JPG'
p238
aS'http://server.genobyte.us/ethan/weed_cover_images/flyTerra_2016_08_19/split/DSC00363_46.JPG'
p239
aS'http://server.genobyte.us/ethan/weed_cover_images/flyTerra_2016_08_19/split/DSC00344_29.JPG'
p240
aS'http://server.genobyte.us/ethan/weed_cover_images/flyTerra_2016_08_19/split/DSC00356_21.JPG'
p241
aS'http://server.genobyte.us/ethan/weed_cover_images/flyTerra_2016_08_19/split/DSC00349_16.JPG'
p242
aS'http://server.genobyte.us/ethan/weed_cover_images/flyTerra_2016_08_19/split/DSC00345_17.JPG'
p243
aS'http://server.genobyte.us/ethan/weed_cover_images/goreLab_08_09_2016/split/DSC05859_0.JPG'
p244
aS'http://server.genobyte.us/ethan/weed_cover_images/flyTerra_2016_08_19/split/DSC00328_38.JPG'
p245
aS'http://server.genobyte.us/ethan/weed_cover_images/flyTerra_2016_08_19/split/DSC00317_46.JPG'
p246
aS'http://server.genobyte.us/ethan/weed_cover_images/flyTerra_2016_08_19/split/DSC00319_34.JPG'
p247
aS'http://server.genobyte.us/ethan/weed_cover_images/flyTerra_2016_08_19/split/DSC00333_15.JPG'
p248
aS'http://server.genobyte.us/ethan/weed_cover_images/flyTerra_2016_08_19/split/DSC00324_36.JPG'
p249
aS'http://server.genobyte.us/ethan/weed_cover_images/flyTerra_2016_08_19/split/DSC00355_35.JPG'
p250
aS'http://server.genobyte.us/ethan/weed_cover_images/flyTerra_2016_08_19/split/DSC00317_26.JPG'
p251
aS'http://server.genobyte.us/ethan/weed_cover_images/flyTerra_2016_08_19/split/DSC00330_30.JPG'
p252
aS'http://server.genobyte.us/ethan/weed_cover_images/goreLab_08_09_2016/split/DSC05991_1.JPG'
p253
aS'http://server.genobyte.us/ethan/weed_cover_images/flyTerra_2016_08_19/split/DSC00328_39.JPG'
p254
aS'http://server.genobyte.us/ethan/weed_cover_images/flyTerra_2016_08_19/split/DSC00348_9.JPG'
p255
aS'http://server.genobyte.us/ethan/weed_cover_images/flyTerra_2016_08_19/split/DSC00355_16.JPG'
p256
aS'http://server.genobyte.us/ethan/weed_cover_images/flyTerra_2016_08_19/split/DSC00322_16.JPG'
p257
aS'http://server.genobyte.us/ethan/weed_cover_images/flyTerra_2016_08_19/split/DSC00325_43.JPG'
p258
aS'http://server.genobyte.us/ethan/weed_cover_images/flyTerra_2016_08_19/split/DSC00330_45.JPG'
p259
aS'http://server.genobyte.us/ethan/weed_cover_images/flyTerra_2016_08_19/split/DSC00351_31.JPG'
p260
aS'http://server.genobyte.us/ethan/weed_cover_images/flyTerra_2016_08_19/split/DSC00353_8.JPG'
p261
aS'http://server.genobyte.us/ethan/weed_cover_images/flyTerra_2016_08_19/split/DSC00351_33.JPG'
p262
aS'http://server.genobyte.us/ethan/weed_cover_images/flyTerra_2016_08_19/split/DSC00329_41.JPG'
p263
aS'http://server.genobyte.us/ethan/weed_cover_images/goreLab_08_09_2016/split/DSC05965_0.JPG'
p264
aS'http://server.genobyte.us/ethan/weed_cover_images/flyTerra_2016_08_19/split/DSC00325_10.JPG'
p265
aS'http://server.genobyte.us/ethan/weed_cover_images/goreLab_08_09_2016/split/DSC05987_2.JPG'
p266
aS'http://server.genobyte.us/ethan/weed_cover_images/flyTerra_2016_08_19/split/DSC00345_45.JPG'
p267
aS'http://server.genobyte.us/ethan/weed_cover_images/goreLab_08_09_2016/split/DSC05890_1.JPG'
p268
aS'http://server.genobyte.us/ethan/weed_cover_images/flyTerra_2016_08_19/split/DSC00358_24.JPG'
p269
aS'http://server.genobyte.us/ethan/weed_cover_images/flyTerra_2016_08_19/split/DSC00351_44.JPG'
p270
aS'http://server.genobyte.us/ethan/weed_cover_images/flyTerra_2016_08_19/split/DSC00322_42.JPG'
p271
aS'http://server.genobyte.us/ethan/weed_cover_images/flyTerra_2016_08_19/split/DSC00357_1.JPG'
p272
aS'http://server.genobyte.us/ethan/weed_cover_images/goreLab_08_10_2016/flight_1/split/IMG_2226_2.JPG'
p273
aS'http://server.genobyte.us/ethan/weed_cover_images/flyTerra_2016_08_19/split/DSC00324_15.JPG'
p274
aS'http://server.genobyte.us/ethan/weed_cover_images/goreLab_08_10_2016/flight_2/IMG_1426.JPG'
p275
aS'http://server.genobyte.us/ethan/weed_cover_images/flyTerra_2016_08_19/split/DSC00327_1.JPG'
p276
aS'http://server.genobyte.us/ethan/weed_cover_images/goreLab_08_09_2016/split/DSC05795_3.JPG'
p277
aS'http://server.genobyte.us/ethan/weed_cover_images/goreLab_08_09_2016/split/DSC05863_0.JPG'
p278
aS'http://server.genobyte.us/ethan/weed_cover_images/flyTerra_2016_08_19/split/DSC00323_18.JPG'
p279
aS'http://server.genobyte.us/ethan/weed_cover_images/flyTerra_2016_08_19/split/DSC00319_39.JPG'
p280
aS'http://server.genobyte.us/ethan/weed_cover_images/flyTerra_2016_08_19/split/DSC00331_3.JPG'
p281
aS'http://server.genobyte.us/ethan/weed_cover_images/flyTerra_2016_08_19/split/DSC00355_37.JPG'
p282
aS'http://server.genobyte.us/ethan/weed_cover_images/flyTerra_2016_08_19/split/DSC00348_19.JPG'
p283
aS'http://server.genobyte.us/ethan/weed_cover_images/flyTerra_2016_08_19/split/DSC00346_30.JPG'
p284
aS'http://server.genobyte.us/ethan/weed_cover_images/flyTerra_2016_08_19/split/DSC00363_21.JPG'
p285
aS'http://server.genobyte.us/ethan/weed_cover_images/goreLab_08_10_2016/flight_2/IMG_1348.JPG'
p286
aS'http://server.genobyte.us/ethan/weed_cover_images/flyTerra_2016_08_19/split/DSC00358_29.JPG'
p287
aS'http://server.genobyte.us/ethan/weed_cover_images/flyTerra_2016_08_19/split/DSC00345_26.JPG'
p288
aS'http://server.genobyte.us/ethan/weed_cover_images/flyTerra_2016_08_19/split/DSC00329_20.JPG'
p289
aS'http://server.genobyte.us/ethan/weed_cover_images/goreLab_08_10_2016/flight_2/IMG_1853.JPG'
p290
aS'http://server.genobyte.us/ethan/weed_cover_images/flyTerra_2016_08_19/split/DSC00348_0.JPG'
p291
aS'http://server.genobyte.us/ethan/weed_cover_images/flyTerra_2016_08_19/split/DSC00324_28.JPG'
p292
aS'http://server.genobyte.us/ethan/weed_cover_images/flyTerra_2016_08_19/split/DSC00327_45.JPG'
p293
aS'http://server.genobyte.us/ethan/weed_cover_images/flyTerra_2016_08_19/split/DSC00328_13.JPG'
p294
aS'http://server.genobyte.us/ethan/weed_cover_images/goreLab_08_10_2016/flight_1/split/IMG_2090_0.JPG'
p295
aS'http://server.genobyte.us/ethan/weed_cover_images/flyTerra_2016_08_19/split/DSC00362_28.JPG'
p296
aS'http://server.genobyte.us/ethan/weed_cover_images/flyTerra_2016_08_19/split/DSC00360_47.JPG'
p297
aS'http://server.genobyte.us/ethan/weed_cover_images/flyTerra_2016_08_19/split/DSC00347_7.JPG'
p298
aS'http://server.genobyte.us/ethan/weed_cover_images/goreLab_08_09_2016/split/DSC05791_1.JPG'
p299
aS'http://server.genobyte.us/ethan/weed_cover_images/flyTerra_2016_08_19/split/DSC00317_15.JPG'
p300
aS'http://server.genobyte.us/ethan/weed_cover_images/goreLab_08_10_2016/flight_2/IMG_1442.JPG'
p301
aS'http://server.genobyte.us/ethan/weed_cover_images/goreLab_08_09_2016/split/DSC05989_2.JPG'
p302
aS'http://server.genobyte.us/ethan/weed_cover_images/flyTerra_2016_08_19/split/DSC00321_35.JPG'
p303
aS'http://server.genobyte.us/ethan/weed_cover_images/goreLab_08_09_2016/split/DSC05890_3.JPG'
p304
aS'http://server.genobyte.us/ethan/weed_cover_images/flyTerra_2016_08_19/split/DSC00348_33.JPG'
p305
aS'http://server.genobyte.us/ethan/weed_cover_images/flyTerra_2016_08_19/split/DSC00351_25.JPG'
p306
aS'http://server.genobyte.us/ethan/weed_cover_images/flyTerra_2016_08_19/split/DSC00330_22.JPG'
p307
aS'http://server.genobyte.us/ethan/weed_cover_images/flyTerra_2016_08_19/split/DSC00347_15.JPG'
p308
aS'http://server.genobyte.us/ethan/weed_cover_images/flyTerra_2016_08_19/split/DSC00321_25.JPG'
p309
aS'http://server.genobyte.us/ethan/weed_cover_images/flyTerra_2016_08_19/split/DSC00316_32.JPG'
p310
aS'http://server.genobyte.us/ethan/weed_cover_images/flyTerra_2016_08_19/split/DSC00347_29.JPG'
p311
aS'http://server.genobyte.us/ethan/weed_cover_images/goreLab_08_09_2016/split/DSC05963_0.JPG'
p312
aS'http://server.genobyte.us/ethan/weed_cover_images/flyTerra_2016_08_19/split/DSC00315_40.JPG'
p313
aS'http://server.genobyte.us/ethan/weed_cover_images/flyTerra_2016_08_19/split/DSC00347_25.JPG'
p314
aS'http://server.genobyte.us/ethan/weed_cover_images/flyTerra_2016_08_19/split/DSC00316_33.JPG'
p315
aS'http://server.genobyte.us/ethan/weed_cover_images/flyTerra_2016_08_19/split/DSC00325_3.JPG'
p316
aS'http://server.genobyte.us/ethan/weed_cover_images/flyTerra_2016_08_19/split/DSC00329_3.JPG'
p317
aS'http://server.genobyte.us/ethan/weed_cover_images/flyTerra_2016_08_19/split/DSC00353_41.JPG'
p318
aS'http://server.genobyte.us/ethan/weed_cover_images/flyTerra_2016_08_19/split/DSC00327_47.JPG'
p319
aS'http://server.genobyte.us/ethan/weed_cover_images/flyTerra_2016_08_19/split/DSC00326_39.JPG'
p320
aS'http://server.genobyte.us/ethan/weed_cover_images/goreLab_08_09_2016/split/DSC05902_1.JPG'
p321
aS'http://server.genobyte.us/ethan/weed_cover_images/flyTerra_2016_08_19/split/DSC00330_4.JPG'
p322
aS'http://server.genobyte.us/ethan/weed_cover_images/flyTerra_2016_08_19/split/DSC00321_10.JPG'
p323
aS'http://server.genobyte.us/ethan/weed_cover_images/flyTerra_2016_08_19/split/DSC00360_37.JPG'
p324
aS'http://server.genobyte.us/ethan/weed_cover_images/goreLab_08_09_2016/split/DSC05889_2.JPG'
p325
aS'http://server.genobyte.us/ethan/weed_cover_images/flyTerra_2016_08_19/split/DSC00324_44.JPG'
p326
aS'http://server.genobyte.us/ethan/weed_cover_images/flyTerra_2016_08_19/split/DSC00345_32.JPG'
p327
aS'http://server.genobyte.us/ethan/weed_cover_images/flyTerra_2016_08_19/split/DSC00324_22.JPG'
p328
aS'http://server.genobyte.us/ethan/weed_cover_images/flyTerra_2016_08_19/split/DSC00322_29.JPG'
p329
aS'http://server.genobyte.us/ethan/weed_cover_images/goreLab_08_09_2016/split/DSC05994_2.JPG'
p330
aS'http://server.genobyte.us/ethan/weed_cover_images/flyTerra_2016_08_19/split/DSC00315_46.JPG'
p331
aS'http://server.genobyte.us/ethan/weed_cover_images/flyTerra_2016_08_19/split/DSC00346_38.JPG'
p332
aS'http://server.genobyte.us/ethan/weed_cover_images/flyTerra_2016_08_19/split/DSC00330_12.JPG'
p333
aS'http://server.genobyte.us/ethan/weed_cover_images/goreLab_08_09_2016/split/DSC05856_0.JPG'
p334
aS'http://server.genobyte.us/ethan/weed_cover_images/flyTerra_2016_08_19/split/DSC00326_23.JPG'
p335
aS'http://server.genobyte.us/ethan/weed_cover_images/flyTerra_2016_08_19/split/DSC00329_1.JPG'
p336
aS'http://server.genobyte.us/ethan/weed_cover_images/flyTerra_2016_08_19/split/DSC00354_31.JPG'
p337
aS'http://server.genobyte.us/ethan/weed_cover_images/flyTerra_2016_08_19/split/DSC00319_7.JPG'
p338
aS'http://server.genobyte.us/ethan/weed_cover_images/goreLab_08_10_2016/flight_1/split/IMG_2210_3.JPG'
p339
aS'http://server.genobyte.us/ethan/weed_cover_images/flyTerra_2016_08_19/split/DSC00362_43.JPG'
p340
aS'http://server.genobyte.us/ethan/weed_cover_images/goreLab_08_09_2016/split/DSC05961_3.JPG'
p341
aS'http://server.genobyte.us/ethan/weed_cover_images/flyTerra_2016_08_19/split/DSC00333_5.JPG'
p342
aS'http://server.genobyte.us/ethan/weed_cover_images/flyTerra_2016_08_19/split/DSC00332_39.JPG'
p343
aS'http://server.genobyte.us/ethan/weed_cover_images/flyTerra_2016_08_19/split/DSC00354_0.JPG'
p344
aS'http://server.genobyte.us/ethan/weed_cover_images/flyTerra_2016_08_19/split/DSC00352_2.JPG'
p345
aS'http://server.genobyte.us/ethan/weed_cover_images/flyTerra_2016_08_19/split/DSC00331_19.JPG'
p346
aS'http://server.genobyte.us/ethan/weed_cover_images/goreLab_08_09_2016/split/DSC05784_1.JPG'
p347
aS'http://server.genobyte.us/ethan/weed_cover_images/flyTerra_2016_08_19/split/DSC00327_44.JPG'
p348
aS'http://server.genobyte.us/ethan/weed_cover_images/flyTerra_2016_08_19/split/DSC00352_6.JPG'
p349
aS'http://server.genobyte.us/ethan/weed_cover_images/goreLab_08_09_2016/split/DSC05960_0.JPG'
p350
aS'http://server.genobyte.us/ethan/weed_cover_images/flyTerra_2016_08_19/split/DSC00346_34.JPG'
p351
aS'http://server.genobyte.us/ethan/weed_cover_images/flyTerra_2016_08_19/split/DSC00333_47.JPG'
p352
aS'http://server.genobyte.us/ethan/weed_cover_images/flyTerra_2016_08_19/split/DSC00345_28.JPG'
p353
aS'http://server.genobyte.us/ethan/weed_cover_images/flyTerra_2016_08_19/split/DSC00330_36.JPG'
p354
aS'http://server.genobyte.us/ethan/weed_cover_images/flyTerra_2016_08_19/split/DSC00325_5.JPG'
p355
aS'http://server.genobyte.us/ethan/weed_cover_images/goreLab_08_10_2016/flight_1/split/IMG_2083_1.JPG'
p356
aS'http://server.genobyte.us/ethan/weed_cover_images/goreLab_08_10_2016/flight_1/split/IMG_2188_3.JPG'
p357
aS'http://server.genobyte.us/ethan/weed_cover_images/flyTerra_2016_08_19/split/DSC00359_2.JPG'
p358
aS'http://server.genobyte.us/ethan/weed_cover_images/flyTerra_2016_08_19/split/DSC00348_29.JPG'
p359
aS'http://server.genobyte.us/ethan/weed_cover_images/flyTerra_2016_08_19/split/DSC00319_11.JPG'
p360
aS'http://server.genobyte.us/ethan/weed_cover_images/flyTerra_2016_08_19/split/DSC00349_22.JPG'
p361
aS'http://server.genobyte.us/ethan/weed_cover_images/flyTerra_2016_08_19/split/DSC00353_9.JPG'
p362
aS'http://server.genobyte.us/ethan/weed_cover_images/goreLab_08_09_2016/split/DSC05861_3.JPG'
p363
aS'http://server.genobyte.us/ethan/weed_cover_images/goreLab_08_09_2016/split/DSC05791_0.JPG'
p364
aS'http://server.genobyte.us/ethan/weed_cover_images/flyTerra_2016_08_19/split/DSC00333_33.JPG'
p365
aS'http://server.genobyte.us/ethan/weed_cover_images/flyTerra_2016_08_19/split/DSC00354_15.JPG'
p366
aS'http://server.genobyte.us/ethan/weed_cover_images/goreLab_08_09_2016/split/DSC05895_1.JPG'
p367
aS'http://server.genobyte.us/ethan/weed_cover_images/flyTerra_2016_08_19/split/DSC00329_36.JPG'
p368
aS'http://server.genobyte.us/ethan/weed_cover_images/flyTerra_2016_08_19/split/DSC00321_3.JPG'
p369
aS'http://server.genobyte.us/ethan/weed_cover_images/goreLab_08_10_2016/flight_2/IMG_1398.JPG'
p370
aS'http://server.genobyte.us/ethan/weed_cover_images/flyTerra_2016_08_19/split/DSC00351_10.JPG'
p371
aS'http://server.genobyte.us/ethan/weed_cover_images/goreLab_08_09_2016/split/DSC05961_2.JPG'
p372
aS'http://server.genobyte.us/ethan/weed_cover_images/flyTerra_2016_08_19/split/DSC00320_2.JPG'
p373
aS'http://server.genobyte.us/ethan/weed_cover_images/goreLab_08_10_2016/flight_1/split/IMG_2232_1.JPG'
p374
aS'http://server.genobyte.us/ethan/weed_cover_images/flyTerra_2016_08_19/split/DSC00328_4.JPG'
p375
aS'http://server.genobyte.us/ethan/weed_cover_images/flyTerra_2016_08_19/split/DSC00351_5.JPG'
p376
aS'http://server.genobyte.us/ethan/weed_cover_images/flyTerra_2016_08_19/split/DSC00345_20.JPG'
p377
aS'http://server.genobyte.us/ethan/weed_cover_images/flyTerra_2016_08_19/split/DSC00325_39.JPG'
p378
aS'http://server.genobyte.us/ethan/weed_cover_images/flyTerra_2016_08_19/split/DSC00321_45.JPG'
p379
aS'http://server.genobyte.us/ethan/weed_cover_images/goreLab_08_10_2016/flight_2/IMG_1864.JPG'
p380
aS'http://server.genobyte.us/ethan/weed_cover_images/goreLab_08_09_2016/split/DSC05989_0.JPG'
p381
aS'http://server.genobyte.us/ethan/weed_cover_images/flyTerra_2016_08_19/split/DSC00318_0.JPG'
p382
aS'http://server.genobyte.us/ethan/weed_cover_images/flyTerra_2016_08_19/split/DSC00357_4.JPG'
p383
aS'http://server.genobyte.us/ethan/weed_cover_images/flyTerra_2016_08_19/split/DSC00317_29.JPG'
p384
aS'http://server.genobyte.us/ethan/weed_cover_images/flyTerra_2016_08_19/split/DSC00318_30.JPG'
p385
aS'http://server.genobyte.us/ethan/weed_cover_images/flyTerra_2016_08_19/split/DSC00332_3.JPG'
p386
aS'http://server.genobyte.us/ethan/weed_cover_images/flyTerra_2016_08_19/split/DSC00321_38.JPG'
p387
aS'http://server.genobyte.us/ethan/weed_cover_images/flyTerra_2016_08_19/split/DSC00326_20.JPG'
p388
aS'http://server.genobyte.us/ethan/weed_cover_images/flyTerra_2016_08_19/split/DSC00320_40.JPG'
p389
aS'http://server.genobyte.us/ethan/weed_cover_images/flyTerra_2016_08_19/split/DSC00361_44.JPG'
p390
aS'http://server.genobyte.us/ethan/weed_cover_images/flyTerra_2016_08_19/split/DSC00356_3.JPG'
p391
aS'http://server.genobyte.us/ethan/weed_cover_images/flyTerra_2016_08_19/split/DSC00323_9.JPG'
p392
aS'http://server.genobyte.us/ethan/weed_cover_images/goreLab_08_09_2016/split/DSC05987_0.JPG'
p393
aS'http://server.genobyte.us/ethan/weed_cover_images/flyTerra_2016_08_19/split/DSC00353_5.JPG'
p394
aS'http://server.genobyte.us/ethan/weed_cover_images/flyTerra_2016_08_19/split/DSC00363_14.JPG'
p395
aS'http://server.genobyte.us/ethan/weed_cover_images/flyTerra_2016_08_19/split/DSC00362_25.JPG'
p396
aS'http://server.genobyte.us/ethan/weed_cover_images/flyTerra_2016_08_19/split/DSC00359_7.JPG'
p397
aS'http://server.genobyte.us/ethan/weed_cover_images/flyTerra_2016_08_19/split/DSC00315_4.JPG'
p398
aS'http://server.genobyte.us/ethan/weed_cover_images/flyTerra_2016_08_19/split/DSC00318_4.JPG'
p399
aS'http://server.genobyte.us/ethan/weed_cover_images/flyTerra_2016_08_19/split/DSC00350_7.JPG'
p400
aS'http://server.genobyte.us/ethan/weed_cover_images/flyTerra_2016_08_19/split/DSC00323_19.JPG'
p401
aS'http://server.genobyte.us/ethan/weed_cover_images/goreLab_08_09_2016/split/DSC05957_3.JPG'
p402
aS'http://server.genobyte.us/ethan/weed_cover_images/flyTerra_2016_08_19/split/DSC00355_13.JPG'
p403
aS'http://server.genobyte.us/ethan/weed_cover_images/goreLab_08_09_2016/split/DSC05892_1.JPG'
p404
aS'http://server.genobyte.us/ethan/weed_cover_images/flyTerra_2016_08_19/split/DSC00326_12.JPG'
p405
aS'http://server.genobyte.us/ethan/weed_cover_images/flyTerra_2016_08_19/split/DSC00360_3.JPG'
p406
aS'http://server.genobyte.us/ethan/weed_cover_images/flyTerra_2016_08_19/split/DSC00358_33.JPG'
p407
aS'http://server.genobyte.us/ethan/weed_cover_images/flyTerra_2016_08_19/split/DSC00348_47.JPG'
p408
aS'http://server.genobyte.us/ethan/weed_cover_images/flyTerra_2016_08_19/split/DSC00316_2.JPG'
p409
aS'http://server.genobyte.us/ethan/weed_cover_images/flyTerra_2016_08_19/split/DSC00331_10.JPG'
p410
aS'http://server.genobyte.us/ethan/weed_cover_images/flyTerra_2016_08_19/split/DSC00330_37.JPG'
p411
aS'http://server.genobyte.us/ethan/weed_cover_images/flyTerra_2016_08_19/split/DSC00322_10.JPG'
p412
aS'http://server.genobyte.us/ethan/weed_cover_images/flyTerra_2016_08_19/split/DSC00318_22.JPG'
p413
aS'http://server.genobyte.us/ethan/weed_cover_images/flyTerra_2016_08_19/split/DSC00354_37.JPG'
p414
aS'http://server.genobyte.us/ethan/weed_cover_images/goreLab_08_10_2016/flight_1/split/IMG_2233_0.JPG'
p415
aS'http://server.genobyte.us/ethan/weed_cover_images/flyTerra_2016_08_19/split/DSC00318_43.JPG'
p416
aS'http://server.genobyte.us/ethan/weed_cover_images/flyTerra_2016_08_19/split/DSC00350_40.JPG'
p417
aS'http://server.genobyte.us/ethan/weed_cover_images/flyTerra_2016_08_19/split/DSC00362_40.JPG'
p418
aS'http://server.genobyte.us/ethan/weed_cover_images/flyTerra_2016_08_19/split/DSC00320_12.JPG'
p419
aS'http://server.genobyte.us/ethan/weed_cover_images/flyTerra_2016_08_19/split/DSC00333_12.JPG'
p420
aS'http://server.genobyte.us/ethan/weed_cover_images/flyTerra_2016_08_19/split/DSC00359_13.JPG'
p421
aS'http://server.genobyte.us/ethan/weed_cover_images/flyTerra_2016_08_19/split/DSC00321_17.JPG'
p422
aS'http://server.genobyte.us/ethan/weed_cover_images/flyTerra_2016_08_19/split/DSC00361_8.JPG'
p423
aS'http://server.genobyte.us/ethan/weed_cover_images/flyTerra_2016_08_19/split/DSC00352_44.JPG'
p424
aS'http://server.genobyte.us/ethan/weed_cover_images/flyTerra_2016_08_19/split/DSC00349_13.JPG'
p425
aS'http://server.genobyte.us/ethan/weed_cover_images/flyTerra_2016_08_19/split/DSC00319_33.JPG'
p426
aS'http://server.genobyte.us/ethan/weed_cover_images/flyTerra_2016_08_19/split/DSC00347_31.JPG'
p427
aS'http://server.genobyte.us/ethan/weed_cover_images/flyTerra_2016_08_19/split/DSC00356_40.JPG'
p428
aS'http://server.genobyte.us/ethan/weed_cover_images/flyTerra_2016_08_19/split/DSC00360_27.JPG'
p429
aS'http://server.genobyte.us/ethan/weed_cover_images/flyTerra_2016_08_19/split/DSC00328_29.JPG'
p430
aS'http://server.genobyte.us/ethan/weed_cover_images/flyTerra_2016_08_19/split/DSC00360_38.JPG'
p431
aS'http://server.genobyte.us/ethan/weed_cover_images/flyTerra_2016_08_19/split/DSC00333_18.JPG'
p432
aS'http://server.genobyte.us/ethan/weed_cover_images/goreLab_08_10_2016/flight_2/IMG_1345.JPG'
p433
aS'http://server.genobyte.us/ethan/weed_cover_images/flyTerra_2016_08_19/split/DSC00316_38.JPG'
p434
aS'http://server.genobyte.us/ethan/weed_cover_images/flyTerra_2016_08_19/split/DSC00347_35.JPG'
p435
aS'http://server.genobyte.us/ethan/weed_cover_images/flyTerra_2016_08_19/split/DSC00328_20.JPG'
p436
aS'http://server.genobyte.us/ethan/weed_cover_images/goreLab_08_09_2016/split/DSC05787_2.JPG'
p437
aS'http://server.genobyte.us/ethan/weed_cover_images/flyTerra_2016_08_19/split/DSC00363_38.JPG'
p438
aS'http://server.genobyte.us/ethan/weed_cover_images/flyTerra_2016_08_19/split/DSC00328_30.JPG'
p439
aS'http://server.genobyte.us/ethan/weed_cover_images/flyTerra_2016_08_19/split/DSC00354_8.JPG'
p440
aS'http://server.genobyte.us/ethan/weed_cover_images/flyTerra_2016_08_19/split/DSC00356_34.JPG'
p441
aS'http://server.genobyte.us/ethan/weed_cover_images/flyTerra_2016_08_19/split/DSC00358_22.JPG'
p442
aS'http://server.genobyte.us/ethan/weed_cover_images/flyTerra_2016_08_19/split/DSC00348_26.JPG'
p443
aS'http://server.genobyte.us/ethan/weed_cover_images/flyTerra_2016_08_19/split/DSC00358_27.JPG'
p444
aS'http://server.genobyte.us/ethan/weed_cover_images/flyTerra_2016_08_19/split/DSC00357_3.JPG'
p445
aS'http://server.genobyte.us/ethan/weed_cover_images/flyTerra_2016_08_19/split/DSC00347_44.JPG'
p446
aS'http://server.genobyte.us/ethan/weed_cover_images/flyTerra_2016_08_19/split/DSC00347_34.JPG'
p447
aS'http://server.genobyte.us/ethan/weed_cover_images/flyTerra_2016_08_19/split/DSC00332_24.JPG'
p448
aS'http://server.genobyte.us/ethan/weed_cover_images/flyTerra_2016_08_19/split/DSC00355_45.JPG'
p449
aS'http://server.genobyte.us/ethan/weed_cover_images/flyTerra_2016_08_19/split/DSC00327_23.JPG'
p450
aS'http://server.genobyte.us/ethan/weed_cover_images/flyTerra_2016_08_19/split/DSC00330_28.JPG'
p451
aS'http://server.genobyte.us/ethan/weed_cover_images/flyTerra_2016_08_19/split/DSC00353_22.JPG'
p452
aS'http://server.genobyte.us/ethan/weed_cover_images/flyTerra_2016_08_19/split/DSC00360_34.JPG'
p453
aS'http://server.genobyte.us/ethan/weed_cover_images/flyTerra_2016_08_19/split/DSC00324_34.JPG'
p454
aS'http://server.genobyte.us/ethan/weed_cover_images/goreLab_08_09_2016/split/DSC05855_0.JPG'
p455
aS'http://server.genobyte.us/ethan/weed_cover_images/flyTerra_2016_08_19/split/DSC00332_41.JPG'
p456
aS'http://server.genobyte.us/ethan/weed_cover_images/goreLab_08_09_2016/split/DSC05863_2.JPG'
p457
aS'http://server.genobyte.us/ethan/weed_cover_images/flyTerra_2016_08_19/split/DSC00359_16.JPG'
p458
aS'http://server.genobyte.us/ethan/weed_cover_images/flyTerra_2016_08_19/split/DSC00331_23.JPG'
p459
aS'http://server.genobyte.us/ethan/weed_cover_images/flyTerra_2016_08_19/split/DSC00317_20.JPG'
p460
aS'http://server.genobyte.us/ethan/weed_cover_images/goreLab_08_09_2016/split/DSC05786_2.JPG'
p461
aS'http://server.genobyte.us/ethan/weed_cover_images/goreLab_08_09_2016/split/DSC05892_3.JPG'
p462
aS'http://server.genobyte.us/ethan/weed_cover_images/flyTerra_2016_08_19/split/DSC00318_38.JPG'
p463
aS'http://server.genobyte.us/ethan/weed_cover_images/flyTerra_2016_08_19/split/DSC00322_46.JPG'
p464
aS'http://server.genobyte.us/ethan/weed_cover_images/flyTerra_2016_08_19/split/DSC00349_39.JPG'
p465
aS'http://server.genobyte.us/ethan/weed_cover_images/flyTerra_2016_08_19/split/DSC00323_29.JPG'
p466
aS'http://server.genobyte.us/ethan/weed_cover_images/flyTerra_2016_08_19/split/DSC00355_3.JPG'
p467
aS'http://server.genobyte.us/ethan/weed_cover_images/goreLab_08_09_2016/split/DSC05957_1.JPG'
p468
aS'http://server.genobyte.us/ethan/weed_cover_images/flyTerra_2016_08_19/split/DSC00324_8.JPG'
p469
aS'http://server.genobyte.us/ethan/weed_cover_images/flyTerra_2016_08_19/split/DSC00332_30.JPG'
p470
aS'http://server.genobyte.us/ethan/weed_cover_images/flyTerra_2016_08_19/split/DSC00345_37.JPG'
p471
aS'http://server.genobyte.us/ethan/weed_cover_images/flyTerra_2016_08_19/split/DSC00318_28.JPG'
p472
aS'http://server.genobyte.us/ethan/weed_cover_images/flyTerra_2016_08_19/split/DSC00327_11.JPG'
p473
aS'http://server.genobyte.us/ethan/weed_cover_images/flyTerra_2016_08_19/split/DSC00332_17.JPG'
p474
aS'http://server.genobyte.us/ethan/weed_cover_images/flyTerra_2016_08_19/split/DSC00316_14.JPG'
p475
aS'http://server.genobyte.us/ethan/weed_cover_images/flyTerra_2016_08_19/split/DSC00329_45.JPG'
p476
aS'http://server.genobyte.us/ethan/weed_cover_images/flyTerra_2016_08_19/split/DSC00332_25.JPG'
p477
aS'http://server.genobyte.us/ethan/weed_cover_images/flyTerra_2016_08_19/split/DSC00351_40.JPG'
p478
aS'http://server.genobyte.us/ethan/weed_cover_images/goreLab_08_09_2016/split/DSC05793_2.JPG'
p479
aS'http://server.genobyte.us/ethan/weed_cover_images/flyTerra_2016_08_19/split/DSC00355_43.JPG'
p480
aS'http://server.genobyte.us/ethan/weed_cover_images/flyTerra_2016_08_19/split/DSC00345_22.JPG'
p481
aS'http://server.genobyte.us/ethan/weed_cover_images/flyTerra_2016_08_19/split/DSC00349_34.JPG'
p482
aS'http://server.genobyte.us/ethan/weed_cover_images/flyTerra_2016_08_19/split/DSC00327_5.JPG'
p483
aS'http://server.genobyte.us/ethan/weed_cover_images/flyTerra_2016_08_19/split/DSC00357_26.JPG'
p484
aS'http://server.genobyte.us/ethan/weed_cover_images/flyTerra_2016_08_19/split/DSC00320_3.JPG'
p485
aS'http://server.genobyte.us/ethan/weed_cover_images/goreLab_08_09_2016/split/DSC05860_0.JPG'
p486
aS'http://server.genobyte.us/ethan/weed_cover_images/flyTerra_2016_08_19/split/DSC00347_39.JPG'
p487
aS'http://server.genobyte.us/ethan/weed_cover_images/goreLab_08_09_2016/split/DSC05864_2.JPG'
p488
aS'http://server.genobyte.us/ethan/weed_cover_images/flyTerra_2016_08_19/split/DSC00347_17.JPG'
p489
aS'http://server.genobyte.us/ethan/weed_cover_images/flyTerra_2016_08_19/split/DSC00348_23.JPG'
p490
aS'http://server.genobyte.us/ethan/weed_cover_images/flyTerra_2016_08_19/split/DSC00356_36.JPG'
p491
aS'http://server.genobyte.us/ethan/weed_cover_images/flyTerra_2016_08_19/split/DSC00323_10.JPG'
p492
aS'http://server.genobyte.us/ethan/weed_cover_images/flyTerra_2016_08_19/split/DSC00325_22.JPG'
p493
aS'http://server.genobyte.us/ethan/weed_cover_images/goreLab_08_09_2016/split/DSC05993_0.JPG'
p494
aS'http://server.genobyte.us/ethan/weed_cover_images/goreLab_08_10_2016/flight_1/split/IMG_2188_2.JPG'
p495
aS'http://server.genobyte.us/ethan/weed_cover_images/goreLab_08_09_2016/split/DSC05994_3.JPG'
p496
aS'http://server.genobyte.us/ethan/weed_cover_images/flyTerra_2016_08_19/split/DSC00322_22.JPG'
p497
aS'http://server.genobyte.us/ethan/weed_cover_images/flyTerra_2016_08_19/split/DSC00347_11.JPG'
p498
aS'http://server.genobyte.us/ethan/weed_cover_images/flyTerra_2016_08_19/split/DSC00358_1.JPG'
p499
aS'http://server.genobyte.us/ethan/weed_cover_images/flyTerra_2016_08_19/split/DSC00344_27.JPG'
p500
aS'http://server.genobyte.us/ethan/weed_cover_images/flyTerra_2016_08_19/split/DSC00350_1.JPG'
p501
aS'http://server.genobyte.us/ethan/weed_cover_images/flyTerra_2016_08_19/split/DSC00319_36.JPG'
p502
aS'http://server.genobyte.us/ethan/weed_cover_images/flyTerra_2016_08_19/split/DSC00323_11.JPG'
p503
aS'http://server.genobyte.us/ethan/weed_cover_images/flyTerra_2016_08_19/split/DSC00319_45.JPG'
p504
aS'http://server.genobyte.us/ethan/weed_cover_images/flyTerra_2016_08_19/split/DSC00344_4.JPG'
p505
aS'http://server.genobyte.us/ethan/weed_cover_images/flyTerra_2016_08_19/split/DSC00352_46.JPG'
p506
aS'http://server.genobyte.us/ethan/weed_cover_images/flyTerra_2016_08_19/split/DSC00357_42.JPG'
p507
aS'http://server.genobyte.us/ethan/weed_cover_images/goreLab_08_09_2016/split/DSC05783_3.JPG'
p508
aS'http://server.genobyte.us/ethan/weed_cover_images/flyTerra_2016_08_19/split/DSC00319_37.JPG'
p509
aS'http://server.genobyte.us/ethan/weed_cover_images/goreLab_08_09_2016/split/DSC05787_3.JPG'
p510
aS'http://server.genobyte.us/ethan/weed_cover_images/flyTerra_2016_08_19/split/DSC00326_27.JPG'
p511
aS'http://server.genobyte.us/ethan/weed_cover_images/flyTerra_2016_08_19/split/DSC00315_23.JPG'
p512
aS'http://server.genobyte.us/ethan/weed_cover_images/goreLab_08_09_2016/split/DSC05790_2.JPG'
p513
aS'http://server.genobyte.us/ethan/weed_cover_images/flyTerra_2016_08_19/split/DSC00331_43.JPG'
p514
aS'http://server.genobyte.us/ethan/weed_cover_images/flyTerra_2016_08_19/split/DSC00319_15.JPG'
p515
aS'http://server.genobyte.us/ethan/weed_cover_images/flyTerra_2016_08_19/split/DSC00346_26.JPG'
p516
aS'http://server.genobyte.us/ethan/weed_cover_images/flyTerra_2016_08_19/split/DSC00361_29.JPG'
p517
aS'http://server.genobyte.us/ethan/weed_cover_images/flyTerra_2016_08_19/split/DSC00321_23.JPG'
p518
aS'http://server.genobyte.us/ethan/weed_cover_images/goreLab_08_10_2016/flight_2/IMG_1443.JPG'
p519
aS'http://server.genobyte.us/ethan/weed_cover_images/flyTerra_2016_08_19/split/DSC00350_37.JPG'
p520
aS'http://server.genobyte.us/ethan/weed_cover_images/flyTerra_2016_08_19/split/DSC00361_47.JPG'
p521
aS'http://server.genobyte.us/ethan/weed_cover_images/flyTerra_2016_08_19/split/DSC00361_16.JPG'
p522
aS'http://server.genobyte.us/ethan/weed_cover_images/goreLab_08_09_2016/split/DSC05889_0.JPG'
p523
aS'http://server.genobyte.us/ethan/weed_cover_images/flyTerra_2016_08_19/split/DSC00363_37.JPG'
p524
aS'http://server.genobyte.us/ethan/weed_cover_images/goreLab_08_09_2016/split/DSC05999_1.JPG'
p525
aS'http://server.genobyte.us/ethan/weed_cover_images/flyTerra_2016_08_19/split/DSC00362_6.JPG'
p526
aS'http://server.genobyte.us/ethan/weed_cover_images/goreLab_08_10_2016/flight_2/IMG_1478.JPG'
p527
aS'http://server.genobyte.us/ethan/weed_cover_images/flyTerra_2016_08_19/split/DSC00318_27.JPG'
p528
aS'http://server.genobyte.us/ethan/weed_cover_images/flyTerra_2016_08_19/split/DSC00363_15.JPG'
p529
aS'http://server.genobyte.us/ethan/weed_cover_images/flyTerra_2016_08_19/split/DSC00321_46.JPG'
p530
aS'http://server.genobyte.us/ethan/weed_cover_images/flyTerra_2016_08_19/split/DSC00345_18.JPG'
p531
aS'http://server.genobyte.us/ethan/weed_cover_images/flyTerra_2016_08_19/split/DSC00315_33.JPG'
p532
aS'http://server.genobyte.us/ethan/weed_cover_images/flyTerra_2016_08_19/split/DSC00360_10.JPG'
p533
aS'http://server.genobyte.us/ethan/weed_cover_images/goreLab_08_10_2016/flight_1/split/IMG_2224_0.JPG'
p534
aS'http://server.genobyte.us/ethan/weed_cover_images/flyTerra_2016_08_19/split/DSC00360_6.JPG'
p535
aS'http://server.genobyte.us/ethan/weed_cover_images/goreLab_08_09_2016/split/DSC05859_1.JPG'
p536
aS'http://server.genobyte.us/ethan/weed_cover_images/flyTerra_2016_08_19/split/DSC00333_20.JPG'
p537
aS'http://server.genobyte.us/ethan/weed_cover_images/flyTerra_2016_08_19/split/DSC00332_6.JPG'
p538
aS'http://server.genobyte.us/ethan/weed_cover_images/flyTerra_2016_08_19/split/DSC00348_21.JPG'
p539
aS'http://server.genobyte.us/ethan/weed_cover_images/flyTerra_2016_08_19/split/DSC00345_1.JPG'
p540
aS'http://server.genobyte.us/ethan/weed_cover_images/flyTerra_2016_08_19/split/DSC00324_2.JPG'
p541
aS'http://server.genobyte.us/ethan/weed_cover_images/flyTerra_2016_08_19/split/DSC00356_16.JPG'
p542
aS'http://server.genobyte.us/ethan/weed_cover_images/flyTerra_2016_08_19/split/DSC00323_31.JPG'
p543
aS'http://server.genobyte.us/ethan/weed_cover_images/flyTerra_2016_08_19/split/DSC00350_6.JPG'
p544
aS'http://server.genobyte.us/ethan/weed_cover_images/goreLab_08_10_2016/flight_1/split/IMG_2209_3.JPG'
p545
aS'http://server.genobyte.us/ethan/weed_cover_images/flyTerra_2016_08_19/split/DSC00348_38.JPG'
p546
aS'http://server.genobyte.us/ethan/weed_cover_images/goreLab_08_10_2016/flight_1/split/IMG_2084_0.JPG'
p547
aS'http://server.genobyte.us/ethan/weed_cover_images/flyTerra_2016_08_19/split/DSC00348_2.JPG'
p548
aS'http://server.genobyte.us/ethan/weed_cover_images/flyTerra_2016_08_19/split/DSC00349_21.JPG'
p549
aS'http://server.genobyte.us/ethan/weed_cover_images/flyTerra_2016_08_19/split/DSC00331_2.JPG'
p550
aS'http://server.genobyte.us/ethan/weed_cover_images/goreLab_08_10_2016/flight_1/split/IMG_2232_2.JPG'
p551
aS'http://server.genobyte.us/ethan/weed_cover_images/flyTerra_2016_08_19/split/DSC00318_3.JPG'
p552
aS'http://server.genobyte.us/ethan/weed_cover_images/flyTerra_2016_08_19/split/DSC00361_31.JPG'
p553
aS'http://server.genobyte.us/ethan/weed_cover_images/flyTerra_2016_08_19/split/DSC00332_43.JPG'
p554
aS'http://server.genobyte.us/ethan/weed_cover_images/flyTerra_2016_08_19/split/DSC00347_26.JPG'
p555
aS'http://server.genobyte.us/ethan/weed_cover_images/goreLab_08_09_2016/split/DSC05784_3.JPG'
p556
aS'http://server.genobyte.us/ethan/weed_cover_images/flyTerra_2016_08_19/split/DSC00317_21.JPG'
p557
aS'http://server.genobyte.us/ethan/weed_cover_images/flyTerra_2016_08_19/split/DSC00351_21.JPG'
p558
aS'http://server.genobyte.us/ethan/weed_cover_images/flyTerra_2016_08_19/split/DSC00353_37.JPG'
p559
aS'http://server.genobyte.us/ethan/weed_cover_images/goreLab_08_09_2016/split/DSC05958_1.JPG'
p560
aS'http://server.genobyte.us/ethan/weed_cover_images/flyTerra_2016_08_19/split/DSC00355_0.JPG'
p561
aS'http://server.genobyte.us/ethan/weed_cover_images/flyTerra_2016_08_19/split/DSC00344_35.JPG'
p562
aS'http://server.genobyte.us/ethan/weed_cover_images/flyTerra_2016_08_19/split/DSC00321_12.JPG'
p563
aS'http://server.genobyte.us/ethan/weed_cover_images/flyTerra_2016_08_19/split/DSC00324_30.JPG'
p564
aS'http://server.genobyte.us/ethan/weed_cover_images/flyTerra_2016_08_19/split/DSC00346_9.JPG'
p565
aS'http://server.genobyte.us/ethan/weed_cover_images/flyTerra_2016_08_19/split/DSC00324_40.JPG'
p566
aS'http://server.genobyte.us/ethan/weed_cover_images/flyTerra_2016_08_19/split/DSC00361_41.JPG'
p567
aS'http://server.genobyte.us/ethan/weed_cover_images/flyTerra_2016_08_19/split/DSC00319_31.JPG'
p568
aS'http://server.genobyte.us/ethan/weed_cover_images/flyTerra_2016_08_19/split/DSC00355_42.JPG'
p569
aS'http://server.genobyte.us/ethan/weed_cover_images/flyTerra_2016_08_19/split/DSC00326_9.JPG'
p570
aS'http://server.genobyte.us/ethan/weed_cover_images/flyTerra_2016_08_19/split/DSC00321_42.JPG'
p571
aS'http://server.genobyte.us/ethan/weed_cover_images/flyTerra_2016_08_19/split/DSC00357_6.JPG'
p572
aS'http://server.genobyte.us/ethan/weed_cover_images/flyTerra_2016_08_19/split/DSC00356_28.JPG'
p573
aS'http://server.genobyte.us/ethan/weed_cover_images/flyTerra_2016_08_19/split/DSC00356_12.JPG'
p574
aS'http://server.genobyte.us/ethan/weed_cover_images/flyTerra_2016_08_19/split/DSC00362_17.JPG'
p575
aS'http://server.genobyte.us/ethan/weed_cover_images/flyTerra_2016_08_19/split/DSC00352_23.JPG'
p576
aS'http://server.genobyte.us/ethan/weed_cover_images/flyTerra_2016_08_19/split/DSC00326_18.JPG'
p577
aS'http://server.genobyte.us/ethan/weed_cover_images/flyTerra_2016_08_19/split/DSC00332_22.JPG'
p578
aS'http://server.genobyte.us/ethan/weed_cover_images/flyTerra_2016_08_19/split/DSC00325_33.JPG'
p579
aS'http://server.genobyte.us/ethan/weed_cover_images/flyTerra_2016_08_19/split/DSC00344_46.JPG'
p580
aS'http://server.genobyte.us/ethan/weed_cover_images/flyTerra_2016_08_19/split/DSC00327_35.JPG'
p581
aS'http://server.genobyte.us/ethan/weed_cover_images/flyTerra_2016_08_19/split/DSC00322_41.JPG'
p582
aS'http://server.genobyte.us/ethan/weed_cover_images/flyTerra_2016_08_19/split/DSC00316_4.JPG'
p583
aS'http://server.genobyte.us/ethan/weed_cover_images/flyTerra_2016_08_19/split/DSC00361_6.JPG'
p584
aS'http://server.genobyte.us/ethan/weed_cover_images/flyTerra_2016_08_19/split/DSC00326_34.JPG'
p585
aS'http://server.genobyte.us/ethan/weed_cover_images/flyTerra_2016_08_19/split/DSC00351_1.JPG'
p586
aS'http://server.genobyte.us/ethan/weed_cover_images/flyTerra_2016_08_19/split/DSC00327_20.JPG'
p587
aS'http://server.genobyte.us/ethan/weed_cover_images/goreLab_08_09_2016/split/DSC05865_1.JPG'
p588
aS'http://server.genobyte.us/ethan/weed_cover_images/flyTerra_2016_08_19/split/DSC00354_42.JPG'
p589
aS'http://server.genobyte.us/ethan/weed_cover_images/flyTerra_2016_08_19/split/DSC00360_9.JPG'
p590
aS'http://server.genobyte.us/ethan/weed_cover_images/flyTerra_2016_08_19/split/DSC00322_8.JPG'
p591
aS'http://server.genobyte.us/ethan/weed_cover_images/flyTerra_2016_08_19/split/DSC00329_37.JPG'
p592
aS'http://server.genobyte.us/ethan/weed_cover_images/flyTerra_2016_08_19/split/DSC00333_9.JPG'
p593
aS'http://server.genobyte.us/ethan/weed_cover_images/flyTerra_2016_08_19/split/DSC00316_3.JPG'
p594
aS'http://server.genobyte.us/ethan/weed_cover_images/goreLab_08_09_2016/split/DSC05791_3.JPG'
p595
aS'http://server.genobyte.us/ethan/weed_cover_images/flyTerra_2016_08_19/split/DSC00350_15.JPG'
p596
aS'http://server.genobyte.us/ethan/weed_cover_images/flyTerra_2016_08_19/split/DSC00353_24.JPG'
p597
aS'http://server.genobyte.us/ethan/weed_cover_images/flyTerra_2016_08_19/split/DSC00318_8.JPG'
p598
aS'http://server.genobyte.us/ethan/weed_cover_images/flyTerra_2016_08_19/split/DSC00322_7.JPG'
p599
aS'http://server.genobyte.us/ethan/weed_cover_images/flyTerra_2016_08_19/split/DSC00327_3.JPG'
p600
aS'http://server.genobyte.us/ethan/weed_cover_images/flyTerra_2016_08_19/split/DSC00329_21.JPG'
p601
aS'http://server.genobyte.us/ethan/weed_cover_images/flyTerra_2016_08_19/split/DSC00323_33.JPG'
p602
aS'http://server.genobyte.us/ethan/weed_cover_images/flyTerra_2016_08_19/split/DSC00362_20.JPG'
p603
aS'http://server.genobyte.us/ethan/weed_cover_images/flyTerra_2016_08_19/split/DSC00355_6.JPG'
p604
aS'http://server.genobyte.us/ethan/weed_cover_images/flyTerra_2016_08_19/split/DSC00326_21.JPG'
p605
aS'http://server.genobyte.us/ethan/weed_cover_images/flyTerra_2016_08_19/split/DSC00332_18.JPG'
p606
aS'http://server.genobyte.us/ethan/weed_cover_images/flyTerra_2016_08_19/split/DSC00322_33.JPG'
p607
aS'http://server.genobyte.us/ethan/weed_cover_images/flyTerra_2016_08_19/split/DSC00355_36.JPG'
p608
aS'http://server.genobyte.us/ethan/weed_cover_images/flyTerra_2016_08_19/split/DSC00318_41.JPG'
p609
aS'http://server.genobyte.us/ethan/weed_cover_images/flyTerra_2016_08_19/split/DSC00361_0.JPG'
p610
aS'http://server.genobyte.us/ethan/weed_cover_images/flyTerra_2016_08_19/split/DSC00346_14.JPG'
p611
aS'http://server.genobyte.us/ethan/weed_cover_images/flyTerra_2016_08_19/split/DSC00349_36.JPG'
p612
aS'http://server.genobyte.us/ethan/weed_cover_images/flyTerra_2016_08_19/split/DSC00357_44.JPG'
p613
aS'http://server.genobyte.us/ethan/weed_cover_images/flyTerra_2016_08_19/split/DSC00351_17.JPG'
p614
aS'http://server.genobyte.us/ethan/weed_cover_images/flyTerra_2016_08_19/split/DSC00318_45.JPG'
p615
aS'http://server.genobyte.us/ethan/weed_cover_images/flyTerra_2016_08_19/split/DSC00316_7.JPG'
p616
aS'http://server.genobyte.us/ethan/weed_cover_images/flyTerra_2016_08_19/split/DSC00356_19.JPG'
p617
aS'http://server.genobyte.us/ethan/weed_cover_images/flyTerra_2016_08_19/split/DSC00321_0.JPG'
p618
aS'http://server.genobyte.us/ethan/weed_cover_images/flyTerra_2016_08_19/split/DSC00332_33.JPG'
p619
aS'http://server.genobyte.us/ethan/weed_cover_images/flyTerra_2016_08_19/split/DSC00358_47.JPG'
p620
aS'http://server.genobyte.us/ethan/weed_cover_images/flyTerra_2016_08_19/split/DSC00330_8.JPG'
p621
aS'http://server.genobyte.us/ethan/weed_cover_images/flyTerra_2016_08_19/split/DSC00322_35.JPG'
p622
aS'http://server.genobyte.us/ethan/weed_cover_images/goreLab_08_09_2016/split/DSC05956_0.JPG'
p623
aS'http://server.genobyte.us/ethan/weed_cover_images/goreLab_08_10_2016/flight_2/IMG_1710.JPG'
p624
aS'http://server.genobyte.us/ethan/weed_cover_images/flyTerra_2016_08_19/split/DSC00357_29.JPG'
p625
aS'http://server.genobyte.us/ethan/weed_cover_images/goreLab_08_09_2016/split/DSC05865_2.JPG'
p626
aS'http://server.genobyte.us/ethan/weed_cover_images/flyTerra_2016_08_19/split/DSC00347_22.JPG'
p627
aS'http://server.genobyte.us/ethan/weed_cover_images/flyTerra_2016_08_19/split/DSC00360_41.JPG'
p628
aS'http://server.genobyte.us/ethan/weed_cover_images/flyTerra_2016_08_19/split/DSC00347_46.JPG'
p629
aS'http://server.genobyte.us/ethan/weed_cover_images/flyTerra_2016_08_19/split/DSC00346_10.JPG'
p630
aS'http://server.genobyte.us/ethan/weed_cover_images/flyTerra_2016_08_19/split/DSC00363_3.JPG'
p631
aS'http://server.genobyte.us/ethan/weed_cover_images/flyTerra_2016_08_19/split/DSC00356_42.JPG'
p632
aS'http://server.genobyte.us/ethan/weed_cover_images/flyTerra_2016_08_19/split/DSC00362_29.JPG'
p633
aS'http://server.genobyte.us/ethan/weed_cover_images/flyTerra_2016_08_19/split/DSC00325_16.JPG'
p634
aS'http://server.genobyte.us/ethan/weed_cover_images/flyTerra_2016_08_19/split/DSC00350_9.JPG'
p635
aS'http://server.genobyte.us/ethan/weed_cover_images/goreLab_08_09_2016/split/DSC05789_2.JPG'
p636
aS'http://server.genobyte.us/ethan/weed_cover_images/flyTerra_2016_08_19/split/DSC00357_38.JPG'
p637
aS'http://server.genobyte.us/ethan/weed_cover_images/flyTerra_2016_08_19/split/DSC00347_13.JPG'
p638
aS'http://server.genobyte.us/ethan/weed_cover_images/flyTerra_2016_08_19/split/DSC00344_7.JPG'
p639
aS'http://server.genobyte.us/ethan/weed_cover_images/flyTerra_2016_08_19/split/DSC00356_41.JPG'
p640
aS'http://server.genobyte.us/ethan/weed_cover_images/flyTerra_2016_08_19/split/DSC00344_23.JPG'
p641
aS'http://server.genobyte.us/ethan/weed_cover_images/flyTerra_2016_08_19/split/DSC00325_14.JPG'
p642
aS'http://server.genobyte.us/ethan/weed_cover_images/flyTerra_2016_08_19/split/DSC00325_18.JPG'
p643
aS'http://server.genobyte.us/ethan/weed_cover_images/flyTerra_2016_08_19/split/DSC00327_28.JPG'
p644
aS'http://server.genobyte.us/ethan/weed_cover_images/flyTerra_2016_08_19/split/DSC00350_27.JPG'
p645
aS'http://server.genobyte.us/ethan/weed_cover_images/flyTerra_2016_08_19/split/DSC00348_42.JPG'
p646
aS'http://server.genobyte.us/ethan/weed_cover_images/flyTerra_2016_08_19/split/DSC00362_44.JPG'
p647
aS'http://server.genobyte.us/ethan/weed_cover_images/flyTerra_2016_08_19/split/DSC00328_25.JPG'
p648
aS'http://server.genobyte.us/ethan/weed_cover_images/flyTerra_2016_08_19/split/DSC00363_1.JPG'
p649
aS'http://server.genobyte.us/ethan/weed_cover_images/goreLab_08_09_2016/split/DSC05900_0.JPG'
p650
aS'http://server.genobyte.us/ethan/weed_cover_images/goreLab_08_09_2016/split/DSC05891_3.JPG'
p651
aS'http://server.genobyte.us/ethan/weed_cover_images/flyTerra_2016_08_19/split/DSC00317_39.JPG'
p652
aS'http://server.genobyte.us/ethan/weed_cover_images/flyTerra_2016_08_19/split/DSC00358_43.JPG'
p653
aS'http://server.genobyte.us/ethan/weed_cover_images/flyTerra_2016_08_19/split/DSC00327_40.JPG'
p654
aS'http://server.genobyte.us/ethan/weed_cover_images/flyTerra_2016_08_19/split/DSC00352_27.JPG'
p655
aS'http://server.genobyte.us/ethan/weed_cover_images/flyTerra_2016_08_19/split/DSC00356_45.JPG'
p656
aS'http://server.genobyte.us/ethan/weed_cover_images/flyTerra_2016_08_19/split/DSC00351_16.JPG'
p657
aS'http://server.genobyte.us/ethan/weed_cover_images/flyTerra_2016_08_19/split/DSC00346_39.JPG'
p658
aS'http://server.genobyte.us/ethan/weed_cover_images/flyTerra_2016_08_19/split/DSC00359_47.JPG'
p659
aS'http://server.genobyte.us/ethan/weed_cover_images/flyTerra_2016_08_19/split/DSC00345_7.JPG'
p660
aS'http://server.genobyte.us/ethan/weed_cover_images/flyTerra_2016_08_19/split/DSC00344_36.JPG'
p661
aS'http://server.genobyte.us/ethan/weed_cover_images/flyTerra_2016_08_19/split/DSC00330_38.JPG'
p662
aS'http://server.genobyte.us/ethan/weed_cover_images/flyTerra_2016_08_19/split/DSC00349_30.JPG'
p663
aS'http://server.genobyte.us/ethan/weed_cover_images/flyTerra_2016_08_19/split/DSC00356_26.JPG'
p664
aS'http://server.genobyte.us/ethan/weed_cover_images/flyTerra_2016_08_19/split/DSC00320_17.JPG'
p665
aS'http://server.genobyte.us/ethan/weed_cover_images/flyTerra_2016_08_19/split/DSC00358_10.JPG'
p666
aS'http://server.genobyte.us/ethan/weed_cover_images/flyTerra_2016_08_19/split/DSC00349_40.JPG'
p667
aS'http://server.genobyte.us/ethan/weed_cover_images/flyTerra_2016_08_19/split/DSC00330_9.JPG'
p668
aS'http://server.genobyte.us/ethan/weed_cover_images/flyTerra_2016_08_19/split/DSC00315_24.JPG'
p669
aS'http://server.genobyte.us/ethan/weed_cover_images/flyTerra_2016_08_19/split/DSC00326_29.JPG'
p670
aS'http://server.genobyte.us/ethan/weed_cover_images/flyTerra_2016_08_19/split/DSC00352_33.JPG'
p671
aS'http://server.genobyte.us/ethan/weed_cover_images/flyTerra_2016_08_19/split/DSC00344_0.JPG'
p672
aS'http://server.genobyte.us/ethan/weed_cover_images/goreLab_08_10_2016/flight_1/split/IMG_2083_0.JPG'
p673
aS'http://server.genobyte.us/ethan/weed_cover_images/flyTerra_2016_08_19/split/DSC00362_46.JPG'
p674
aS'http://server.genobyte.us/ethan/weed_cover_images/flyTerra_2016_08_19/split/DSC00363_17.JPG'
p675
aS'http://server.genobyte.us/ethan/weed_cover_images/goreLab_08_10_2016/flight_1/split/IMG_2232_3.JPG'
p676
aS'http://server.genobyte.us/ethan/weed_cover_images/flyTerra_2016_08_19/split/DSC00347_8.JPG'
p677
aS'http://server.genobyte.us/ethan/weed_cover_images/flyTerra_2016_08_19/split/DSC00346_1.JPG'
p678
aS'http://server.genobyte.us/ethan/weed_cover_images/goreLab_08_09_2016/split/DSC05961_0.JPG'
p679
aS'http://server.genobyte.us/ethan/weed_cover_images/flyTerra_2016_08_19/split/DSC00321_4.JPG'
p680
aS'http://server.genobyte.us/ethan/weed_cover_images/flyTerra_2016_08_19/split/DSC00328_34.JPG'
p681
aS'http://server.genobyte.us/ethan/weed_cover_images/goreLab_08_09_2016/split/DSC05993_1.JPG'
p682
aS'http://server.genobyte.us/ethan/weed_cover_images/flyTerra_2016_08_19/split/DSC00351_20.JPG'
p683
aS'http://server.genobyte.us/ethan/weed_cover_images/flyTerra_2016_08_19/split/DSC00324_42.JPG'
p684
aS'http://server.genobyte.us/ethan/weed_cover_images/goreLab_08_09_2016/split/DSC05857_3.JPG'
p685
aS'http://server.genobyte.us/ethan/weed_cover_images/flyTerra_2016_08_19/split/DSC00355_1.JPG'
p686
aS'http://server.genobyte.us/ethan/weed_cover_images/flyTerra_2016_08_19/split/DSC00358_42.JPG'
p687
aS'http://server.genobyte.us/ethan/weed_cover_images/goreLab_08_10_2016/flight_2/IMG_1861.JPG'
p688
aS'http://server.genobyte.us/ethan/weed_cover_images/flyTerra_2016_08_19/split/DSC00316_40.JPG'
p689
aS'http://server.genobyte.us/ethan/weed_cover_images/goreLab_08_09_2016/split/DSC05958_0.JPG'
p690
aS'http://server.genobyte.us/ethan/weed_cover_images/flyTerra_2016_08_19/split/DSC00322_40.JPG'
p691
aS'http://server.genobyte.us/ethan/weed_cover_images/flyTerra_2016_08_19/split/DSC00329_43.JPG'
p692
aS'http://server.genobyte.us/ethan/weed_cover_images/flyTerra_2016_08_19/split/DSC00360_36.JPG'
p693
aS'http://server.genobyte.us/ethan/weed_cover_images/flyTerra_2016_08_19/split/DSC00351_3.JPG'
p694
aS'http://server.genobyte.us/ethan/weed_cover_images/flyTerra_2016_08_19/split/DSC00351_13.JPG'
p695
aS'http://server.genobyte.us/ethan/weed_cover_images/goreLab_08_09_2016/split/DSC05901_3.JPG'
p696
aS'http://server.genobyte.us/ethan/weed_cover_images/goreLab_08_09_2016/split/DSC05956_1.JPG'
p697
aS'http://server.genobyte.us/ethan/weed_cover_images/flyTerra_2016_08_19/split/DSC00323_21.JPG'
p698
aS'http://server.genobyte.us/ethan/weed_cover_images/flyTerra_2016_08_19/split/DSC00350_33.JPG'
p699
aS'http://server.genobyte.us/ethan/weed_cover_images/flyTerra_2016_08_19/split/DSC00346_3.JPG'
p700
aS'http://server.genobyte.us/ethan/weed_cover_images/flyTerra_2016_08_19/split/DSC00332_16.JPG'
p701
aS'http://server.genobyte.us/ethan/weed_cover_images/flyTerra_2016_08_19/split/DSC00345_34.JPG'
p702
aS'http://server.genobyte.us/ethan/weed_cover_images/goreLab_08_09_2016/split/DSC05859_3.JPG'
p703
aS'http://server.genobyte.us/ethan/weed_cover_images/flyTerra_2016_08_19/split/DSC00316_27.JPG'
p704
aS'http://server.genobyte.us/ethan/weed_cover_images/flyTerra_2016_08_19/split/DSC00347_4.JPG'
p705
aS'http://server.genobyte.us/ethan/weed_cover_images/flyTerra_2016_08_19/split/DSC00315_22.JPG'
p706
aS'http://server.genobyte.us/ethan/weed_cover_images/flyTerra_2016_08_19/split/DSC00330_31.JPG'
p707
aS'http://server.genobyte.us/ethan/weed_cover_images/goreLab_08_09_2016/split/DSC05997_2.JPG'
p708
aS'http://server.genobyte.us/ethan/weed_cover_images/flyTerra_2016_08_19/split/DSC00327_2.JPG'
p709
aS'http://server.genobyte.us/ethan/weed_cover_images/flyTerra_2016_08_19/split/DSC00317_47.JPG'
p710
aS'http://server.genobyte.us/ethan/weed_cover_images/flyTerra_2016_08_19/split/DSC00351_42.JPG'
p711
aS'http://server.genobyte.us/ethan/weed_cover_images/goreLab_08_10_2016/flight_1/split/IMG_2083_2.JPG'
p712
aS'http://server.genobyte.us/ethan/weed_cover_images/flyTerra_2016_08_19/split/DSC00353_2.JPG'
p713
aS'http://server.genobyte.us/ethan/weed_cover_images/flyTerra_2016_08_19/split/DSC00350_26.JPG'
p714
aS'http://server.genobyte.us/ethan/weed_cover_images/flyTerra_2016_08_19/split/DSC00326_31.JPG'
p715
aS'http://server.genobyte.us/ethan/weed_cover_images/flyTerra_2016_08_19/split/DSC00350_8.JPG'
p716
aS'http://server.genobyte.us/ethan/weed_cover_images/flyTerra_2016_08_19/split/DSC00348_39.JPG'
p717
aS'http://server.genobyte.us/ethan/weed_cover_images/flyTerra_2016_08_19/split/DSC00321_5.JPG'
p718
aS'http://server.genobyte.us/ethan/weed_cover_images/flyTerra_2016_08_19/split/DSC00347_30.JPG'
p719
aS'http://server.genobyte.us/ethan/weed_cover_images/flyTerra_2016_08_19/split/DSC00327_17.JPG'
p720
aS'http://server.genobyte.us/ethan/weed_cover_images/goreLab_08_10_2016/flight_2/IMG_1440.JPG'
p721
aS'http://server.genobyte.us/ethan/weed_cover_images/flyTerra_2016_08_19/split/DSC00357_47.JPG'
p722
aS'http://server.genobyte.us/ethan/weed_cover_images/flyTerra_2016_08_19/split/DSC00349_42.JPG'
p723
aS'http://server.genobyte.us/ethan/weed_cover_images/flyTerra_2016_08_19/split/DSC00361_33.JPG'
p724
aS'http://server.genobyte.us/ethan/weed_cover_images/flyTerra_2016_08_19/split/DSC00318_15.JPG'
p725
aS'http://server.genobyte.us/ethan/weed_cover_images/flyTerra_2016_08_19/split/DSC00360_7.JPG'
p726
aS'http://server.genobyte.us/ethan/weed_cover_images/flyTerra_2016_08_19/split/DSC00317_38.JPG'
p727
aS'http://server.genobyte.us/ethan/weed_cover_images/goreLab_08_09_2016/split/DSC05902_3.JPG'
p728
aS'http://server.genobyte.us/ethan/weed_cover_images/flyTerra_2016_08_19/split/DSC00317_28.JPG'
p729
aS'http://server.genobyte.us/ethan/weed_cover_images/flyTerra_2016_08_19/split/DSC00316_19.JPG'
p730
aS'http://server.genobyte.us/ethan/weed_cover_images/flyTerra_2016_08_19/split/DSC00349_10.JPG'
p731
aS'http://server.genobyte.us/ethan/weed_cover_images/flyTerra_2016_08_19/split/DSC00327_31.JPG'
p732
aS'http://server.genobyte.us/ethan/weed_cover_images/flyTerra_2016_08_19/split/DSC00333_6.JPG'
p733
aS'http://server.genobyte.us/ethan/weed_cover_images/flyTerra_2016_08_19/split/DSC00359_32.JPG'
p734
aS'http://server.genobyte.us/ethan/weed_cover_images/flyTerra_2016_08_19/split/DSC00331_9.JPG'
p735
aS'http://server.genobyte.us/ethan/weed_cover_images/flyTerra_2016_08_19/split/DSC00349_11.JPG'
p736
aS'http://server.genobyte.us/ethan/weed_cover_images/flyTerra_2016_08_19/split/DSC00347_28.JPG'
p737
aS'http://server.genobyte.us/ethan/weed_cover_images/flyTerra_2016_08_19/split/DSC00327_0.JPG'
p738
aS'http://server.genobyte.us/ethan/weed_cover_images/flyTerra_2016_08_19/split/DSC00319_42.JPG'
p739
aS'http://server.genobyte.us/ethan/weed_cover_images/flyTerra_2016_08_19/split/DSC00353_15.JPG'
p740
aS'http://server.genobyte.us/ethan/weed_cover_images/flyTerra_2016_08_19/split/DSC00317_3.JPG'
p741
aS'http://server.genobyte.us/ethan/weed_cover_images/flyTerra_2016_08_19/split/DSC00354_34.JPG'
p742
aS'http://server.genobyte.us/ethan/weed_cover_images/flyTerra_2016_08_19/split/DSC00346_27.JPG'
p743
aS'http://server.genobyte.us/ethan/weed_cover_images/goreLab_08_09_2016/split/DSC05895_0.JPG'
p744
aS'http://server.genobyte.us/ethan/weed_cover_images/goreLab_08_09_2016/split/DSC05860_2.JPG'
p745
aS'http://server.genobyte.us/ethan/weed_cover_images/flyTerra_2016_08_19/split/DSC00332_7.JPG'
p746
aS'http://server.genobyte.us/ethan/weed_cover_images/flyTerra_2016_08_19/split/DSC00363_5.JPG'
p747
aS'http://server.genobyte.us/ethan/weed_cover_images/flyTerra_2016_08_19/split/DSC00323_20.JPG'
p748
aS'http://server.genobyte.us/ethan/weed_cover_images/flyTerra_2016_08_19/split/DSC00350_16.JPG'
p749
aS'http://server.genobyte.us/ethan/weed_cover_images/flyTerra_2016_08_19/split/DSC00322_43.JPG'
p750
aS'http://server.genobyte.us/ethan/weed_cover_images/goreLab_08_09_2016/split/DSC05992_2.JPG'
p751
aS'http://server.genobyte.us/ethan/weed_cover_images/flyTerra_2016_08_19/split/DSC00359_10.JPG'
p752
aS'http://server.genobyte.us/ethan/weed_cover_images/flyTerra_2016_08_19/split/DSC00330_1.JPG'
p753
aS'http://server.genobyte.us/ethan/weed_cover_images/flyTerra_2016_08_19/split/DSC00349_29.JPG'
p754
aS'http://server.genobyte.us/ethan/weed_cover_images/flyTerra_2016_08_19/split/DSC00346_2.JPG'
p755
aS'http://server.genobyte.us/ethan/weed_cover_images/flyTerra_2016_08_19/split/DSC00324_38.JPG'
p756
aS'http://server.genobyte.us/ethan/weed_cover_images/flyTerra_2016_08_19/split/DSC00352_21.JPG'
p757
aS'http://server.genobyte.us/ethan/weed_cover_images/flyTerra_2016_08_19/split/DSC00344_44.JPG'
p758
aS'http://server.genobyte.us/ethan/weed_cover_images/flyTerra_2016_08_19/split/DSC00316_8.JPG'
p759
aS'http://server.genobyte.us/ethan/weed_cover_images/goreLab_08_10_2016/flight_2/IMG_1344.JPG'
p760
aS'http://server.genobyte.us/ethan/weed_cover_images/flyTerra_2016_08_19/split/DSC00360_13.JPG'
p761
aS'http://server.genobyte.us/ethan/weed_cover_images/goreLab_08_10_2016/flight_1/split/IMG_2233_2.JPG'
p762
aS'http://server.genobyte.us/ethan/weed_cover_images/flyTerra_2016_08_19/split/DSC00315_38.JPG'
p763
aS'http://server.genobyte.us/ethan/weed_cover_images/flyTerra_2016_08_19/split/DSC00333_24.JPG'
p764
aS'http://server.genobyte.us/ethan/weed_cover_images/flyTerra_2016_08_19/split/DSC00344_15.JPG'
p765
aS'http://server.genobyte.us/ethan/weed_cover_images/flyTerra_2016_08_19/split/DSC00353_45.JPG'
p766
aS'http://server.genobyte.us/ethan/weed_cover_images/goreLab_08_10_2016/flight_1/split/IMG_2210_0.JPG'
p767
aS'http://server.genobyte.us/ethan/weed_cover_images/goreLab_08_10_2016/flight_2/IMG_1400.JPG'
p768
aS'http://server.genobyte.us/ethan/weed_cover_images/flyTerra_2016_08_19/split/DSC00350_45.JPG'
p769
aS'http://server.genobyte.us/ethan/weed_cover_images/goreLab_08_09_2016/split/DSC05955_1.JPG'
p770
aS'http://server.genobyte.us/ethan/weed_cover_images/flyTerra_2016_08_19/split/DSC00357_0.JPG'
p771
aS'http://server.genobyte.us/ethan/weed_cover_images/flyTerra_2016_08_19/split/DSC00353_1.JPG'
p772
aS'http://server.genobyte.us/ethan/weed_cover_images/flyTerra_2016_08_19/split/DSC00362_32.JPG'
p773
aS'http://server.genobyte.us/ethan/weed_cover_images/flyTerra_2016_08_19/split/DSC00315_9.JPG'
p774
aS'http://server.genobyte.us/ethan/weed_cover_images/flyTerra_2016_08_19/split/DSC00349_33.JPG'
p775
aS'http://server.genobyte.us/ethan/weed_cover_images/flyTerra_2016_08_19/split/DSC00333_4.JPG'
p776
aS'http://server.genobyte.us/ethan/weed_cover_images/flyTerra_2016_08_19/split/DSC00357_22.JPG'
p777
aS'http://server.genobyte.us/ethan/weed_cover_images/flyTerra_2016_08_19/split/DSC00358_45.JPG'
p778
aS'http://server.genobyte.us/ethan/weed_cover_images/flyTerra_2016_08_19/split/DSC00359_6.JPG'
p779
aS'http://server.genobyte.us/ethan/weed_cover_images/goreLab_08_09_2016/split/DSC05964_2.JPG'
p780
aS'http://server.genobyte.us/ethan/weed_cover_images/goreLab_08_09_2016/split/DSC05965_3.JPG'
p781
aS'http://server.genobyte.us/ethan/weed_cover_images/flyTerra_2016_08_19/split/DSC00333_16.JPG'
p782
aS'http://server.genobyte.us/ethan/weed_cover_images/flyTerra_2016_08_19/split/DSC00319_12.JPG'
p783
aS'http://server.genobyte.us/ethan/weed_cover_images/flyTerra_2016_08_19/split/DSC00358_31.JPG'
p784
aS'http://server.genobyte.us/ethan/weed_cover_images/flyTerra_2016_08_19/split/DSC00330_32.JPG'
p785
aS'http://server.genobyte.us/ethan/weed_cover_images/flyTerra_2016_08_19/split/DSC00360_5.JPG'
p786
aS'http://server.genobyte.us/ethan/weed_cover_images/flyTerra_2016_08_19/split/DSC00362_31.JPG'
p787
aS'http://server.genobyte.us/ethan/weed_cover_images/flyTerra_2016_08_19/split/DSC00357_17.JPG'
p788
aS'http://server.genobyte.us/ethan/weed_cover_images/flyTerra_2016_08_19/split/DSC00316_25.JPG'
p789
aS'http://server.genobyte.us/ethan/weed_cover_images/goreLab_08_09_2016/split/DSC05789_1.JPG'
p790
aS'http://server.genobyte.us/ethan/weed_cover_images/flyTerra_2016_08_19/split/DSC00347_45.JPG'
p791
aS'http://server.genobyte.us/ethan/weed_cover_images/flyTerra_2016_08_19/split/DSC00332_29.JPG'
p792
aS'http://server.genobyte.us/ethan/weed_cover_images/flyTerra_2016_08_19/split/DSC00320_13.JPG'
p793
aS'http://server.genobyte.us/ethan/weed_cover_images/goreLab_08_09_2016/split/DSC05988_2.JPG'
p794
aS'http://server.genobyte.us/ethan/weed_cover_images/goreLab_08_10_2016/flight_1/split/IMG_2226_3.JPG'
p795
aS'http://server.genobyte.us/ethan/weed_cover_images/flyTerra_2016_08_19/split/DSC00330_2.JPG'
p796
aS'http://server.genobyte.us/ethan/weed_cover_images/flyTerra_2016_08_19/split/DSC00331_5.JPG'
p797
aS'http://server.genobyte.us/ethan/weed_cover_images/flyTerra_2016_08_19/split/DSC00326_37.JPG'
p798
aS'http://server.genobyte.us/ethan/weed_cover_images/goreLab_08_10_2016/flight_1/split/IMG_2188_1.JPG'
p799
aS'http://server.genobyte.us/ethan/weed_cover_images/flyTerra_2016_08_19/split/DSC00361_9.JPG'
p800
aS'http://server.genobyte.us/ethan/weed_cover_images/goreLab_08_09_2016/split/DSC05954_1.JPG'
p801
aS'http://server.genobyte.us/ethan/weed_cover_images/flyTerra_2016_08_19/split/DSC00363_8.JPG'
p802
aS'http://server.genobyte.us/ethan/weed_cover_images/goreLab_08_09_2016/split/DSC05899_0.JPG'
p803
aS'http://server.genobyte.us/ethan/weed_cover_images/flyTerra_2016_08_19/split/DSC00330_24.JPG'
p804
aS'http://server.genobyte.us/ethan/weed_cover_images/goreLab_08_09_2016/split/DSC05959_1.JPG'
p805
aS'http://server.genobyte.us/ethan/weed_cover_images/flyTerra_2016_08_19/split/DSC00331_39.JPG'
p806
aS'http://server.genobyte.us/ethan/weed_cover_images/goreLab_08_09_2016/split/DSC05902_2.JPG'
p807
aS'http://server.genobyte.us/ethan/weed_cover_images/goreLab_08_10_2016/flight_2/IMG_1346.JPG'
p808
aS'http://server.genobyte.us/ethan/weed_cover_images/flyTerra_2016_08_19/split/DSC00328_42.JPG'
p809
aS'http://server.genobyte.us/ethan/weed_cover_images/flyTerra_2016_08_19/split/DSC00321_7.JPG'
p810
aS'http://server.genobyte.us/ethan/weed_cover_images/flyTerra_2016_08_19/split/DSC00354_46.JPG'
p811
aS'http://server.genobyte.us/ethan/weed_cover_images/goreLab_08_10_2016/flight_2/IMG_1360.JPG'
p812
aS'http://server.genobyte.us/ethan/weed_cover_images/goreLab_08_09_2016/split/DSC05894_3.JPG'
p813
aS'http://server.genobyte.us/ethan/weed_cover_images/goreLab_08_09_2016/split/DSC05962_1.JPG'
p814
aS'http://server.genobyte.us/ethan/weed_cover_images/goreLab_08_09_2016/split/DSC05956_3.JPG'
p815
aS'http://server.genobyte.us/ethan/weed_cover_images/flyTerra_2016_08_19/split/DSC00352_30.JPG'
p816
aS'http://server.genobyte.us/ethan/weed_cover_images/flyTerra_2016_08_19/split/DSC00329_13.JPG'
p817
aS'http://server.genobyte.us/ethan/weed_cover_images/flyTerra_2016_08_19/split/DSC00362_45.JPG'
p818
aS'http://server.genobyte.us/ethan/weed_cover_images/goreLab_08_09_2016/split/DSC05987_1.JPG'
p819
aS'http://server.genobyte.us/ethan/weed_cover_images/flyTerra_2016_08_19/split/DSC00333_7.JPG'
p820
aS'http://server.genobyte.us/ethan/weed_cover_images/flyTerra_2016_08_19/split/DSC00332_47.JPG'
p821
aS'http://server.genobyte.us/ethan/weed_cover_images/flyTerra_2016_08_19/split/DSC00319_29.JPG'
p822
aS'http://server.genobyte.us/ethan/weed_cover_images/flyTerra_2016_08_19/split/DSC00348_7.JPG'
p823
aS'http://server.genobyte.us/ethan/weed_cover_images/flyTerra_2016_08_19/split/DSC00358_25.JPG'
p824
aS'http://server.genobyte.us/ethan/weed_cover_images/flyTerra_2016_08_19/split/DSC00317_42.JPG'
p825
aS'http://server.genobyte.us/ethan/weed_cover_images/flyTerra_2016_08_19/split/DSC00345_12.JPG'
p826
aS'http://server.genobyte.us/ethan/weed_cover_images/flyTerra_2016_08_19/split/DSC00331_30.JPG'
p827
aS'http://server.genobyte.us/ethan/weed_cover_images/flyTerra_2016_08_19/split/DSC00317_13.JPG'
p828
aS'http://server.genobyte.us/ethan/weed_cover_images/flyTerra_2016_08_19/split/DSC00324_20.JPG'
p829
aS'http://server.genobyte.us/ethan/weed_cover_images/flyTerra_2016_08_19/split/DSC00361_45.JPG'
p830
aS'http://server.genobyte.us/ethan/weed_cover_images/flyTerra_2016_08_19/split/DSC00320_26.JPG'
p831
aS'http://server.genobyte.us/ethan/weed_cover_images/flyTerra_2016_08_19/split/DSC00316_23.JPG'
p832
aS'http://server.genobyte.us/ethan/weed_cover_images/flyTerra_2016_08_19/split/DSC00322_37.JPG'
p833
aS'http://server.genobyte.us/ethan/weed_cover_images/goreLab_08_09_2016/split/DSC05857_0.JPG'
p834
aS'http://server.genobyte.us/ethan/weed_cover_images/flyTerra_2016_08_19/split/DSC00350_39.JPG'
p835
aS'http://server.genobyte.us/ethan/weed_cover_images/flyTerra_2016_08_19/split/DSC00332_2.JPG'
p836
aS'http://server.genobyte.us/ethan/weed_cover_images/flyTerra_2016_08_19/split/DSC00327_15.JPG'
p837
aS'http://server.genobyte.us/ethan/weed_cover_images/goreLab_08_09_2016/split/DSC05867_0.JPG'
p838
aS'http://server.genobyte.us/ethan/weed_cover_images/flyTerra_2016_08_19/split/DSC00353_17.JPG'
p839
aS'http://server.genobyte.us/ethan/weed_cover_images/flyTerra_2016_08_19/split/DSC00357_37.JPG'
p840
aS'http://server.genobyte.us/ethan/weed_cover_images/goreLab_08_09_2016/split/DSC05893_3.JPG'
p841
aS'http://server.genobyte.us/ethan/weed_cover_images/flyTerra_2016_08_19/split/DSC00325_20.JPG'
p842
aS'http://server.genobyte.us/ethan/weed_cover_images/flyTerra_2016_08_19/split/DSC00328_47.JPG'
p843
aS'http://server.genobyte.us/ethan/weed_cover_images/flyTerra_2016_08_19/split/DSC00328_26.JPG'
p844
aS'http://server.genobyte.us/ethan/weed_cover_images/flyTerra_2016_08_19/split/DSC00363_31.JPG'
p845
aS'http://server.genobyte.us/ethan/weed_cover_images/flyTerra_2016_08_19/split/DSC00353_19.JPG'
p846
aS'http://server.genobyte.us/ethan/weed_cover_images/flyTerra_2016_08_19/split/DSC00321_33.JPG'
p847
aS'http://server.genobyte.us/ethan/weed_cover_images/flyTerra_2016_08_19/split/DSC00316_31.JPG'
p848
aS'http://server.genobyte.us/ethan/weed_cover_images/flyTerra_2016_08_19/split/DSC00326_16.JPG'
p849
aS'http://server.genobyte.us/ethan/weed_cover_images/flyTerra_2016_08_19/split/DSC00352_35.JPG'
p850
aS'http://server.genobyte.us/ethan/weed_cover_images/flyTerra_2016_08_19/split/DSC00327_12.JPG'
p851
aS'http://server.genobyte.us/ethan/weed_cover_images/goreLab_08_09_2016/split/DSC05897_3.JPG'
p852
aS'http://server.genobyte.us/ethan/weed_cover_images/flyTerra_2016_08_19/split/DSC00359_27.JPG'
p853
aS'http://server.genobyte.us/ethan/weed_cover_images/flyTerra_2016_08_19/split/DSC00355_26.JPG'
p854
aS'http://server.genobyte.us/ethan/weed_cover_images/flyTerra_2016_08_19/split/DSC00325_35.JPG'
p855
aS'http://server.genobyte.us/ethan/weed_cover_images/flyTerra_2016_08_19/split/DSC00316_21.JPG'
p856
aS'http://server.genobyte.us/ethan/weed_cover_images/flyTerra_2016_08_19/split/DSC00346_43.JPG'
p857
aS'http://server.genobyte.us/ethan/weed_cover_images/flyTerra_2016_08_19/split/DSC00354_27.JPG'
p858
aS'http://server.genobyte.us/ethan/weed_cover_images/flyTerra_2016_08_19/split/DSC00317_43.JPG'
p859
aS'http://server.genobyte.us/ethan/weed_cover_images/flyTerra_2016_08_19/split/DSC00355_15.JPG'
p860
aS'http://server.genobyte.us/ethan/weed_cover_images/goreLab_08_10_2016/flight_1/split/IMG_2090_1.JPG'
p861
aS'http://server.genobyte.us/ethan/weed_cover_images/goreLab_08_10_2016/flight_1/split/IMG_2224_1.JPG'
p862
aS'http://server.genobyte.us/ethan/weed_cover_images/flyTerra_2016_08_19/split/DSC00319_19.JPG'
p863
aS'http://server.genobyte.us/ethan/weed_cover_images/flyTerra_2016_08_19/split/DSC00358_14.JPG'
p864
aS'http://server.genobyte.us/ethan/weed_cover_images/flyTerra_2016_08_19/split/DSC00332_15.JPG'
p865
aS'http://server.genobyte.us/ethan/weed_cover_images/flyTerra_2016_08_19/split/DSC00331_42.JPG'
p866
aS'http://server.genobyte.us/ethan/weed_cover_images/flyTerra_2016_08_19/split/DSC00354_12.JPG'
p867
aS'http://server.genobyte.us/ethan/weed_cover_images/goreLab_08_09_2016/split/DSC05996_2.JPG'
p868
aS'http://server.genobyte.us/ethan/weed_cover_images/flyTerra_2016_08_19/split/DSC00333_2.JPG'
p869
aS'http://server.genobyte.us/ethan/weed_cover_images/flyTerra_2016_08_19/split/DSC00363_13.JPG'
p870
aS'http://server.genobyte.us/ethan/weed_cover_images/flyTerra_2016_08_19/split/DSC00320_28.JPG'
p871
aS'http://server.genobyte.us/ethan/weed_cover_images/flyTerra_2016_08_19/split/DSC00321_32.JPG'
p872
aS'http://server.genobyte.us/ethan/weed_cover_images/flyTerra_2016_08_19/split/DSC00361_7.JPG'
p873
aS'http://server.genobyte.us/ethan/weed_cover_images/flyTerra_2016_08_19/split/DSC00347_42.JPG'
p874
aS'http://server.genobyte.us/ethan/weed_cover_images/flyTerra_2016_08_19/split/DSC00332_0.JPG'
p875
aS'http://server.genobyte.us/ethan/weed_cover_images/goreLab_08_09_2016/split/DSC05896_1.JPG'
p876
aS'http://server.genobyte.us/ethan/weed_cover_images/flyTerra_2016_08_19/split/DSC00328_31.JPG'
p877
aS'http://server.genobyte.us/ethan/weed_cover_images/flyTerra_2016_08_19/split/DSC00344_40.JPG'
p878
aS'http://server.genobyte.us/ethan/weed_cover_images/flyTerra_2016_08_19/split/DSC00362_33.JPG'
p879
aS'http://server.genobyte.us/ethan/weed_cover_images/flyTerra_2016_08_19/split/DSC00330_39.JPG'
p880
aS'http://server.genobyte.us/ethan/weed_cover_images/flyTerra_2016_08_19/split/DSC00316_44.JPG'
p881
aS'http://server.genobyte.us/ethan/weed_cover_images/flyTerra_2016_08_19/split/DSC00350_11.JPG'
p882
aS'http://server.genobyte.us/ethan/weed_cover_images/flyTerra_2016_08_19/split/DSC00348_25.JPG'
p883
aS'http://server.genobyte.us/ethan/weed_cover_images/flyTerra_2016_08_19/split/DSC00353_21.JPG'
p884
aS'http://server.genobyte.us/ethan/weed_cover_images/flyTerra_2016_08_19/split/DSC00330_27.JPG'
p885
aS'http://server.genobyte.us/ethan/weed_cover_images/goreLab_08_09_2016/split/DSC05895_2.JPG'
p886
aS'http://server.genobyte.us/ethan/weed_cover_images/flyTerra_2016_08_19/split/DSC00362_8.JPG'
p887
aS'http://server.genobyte.us/ethan/weed_cover_images/flyTerra_2016_08_19/split/DSC00333_39.JPG'
p888
aS'http://server.genobyte.us/ethan/weed_cover_images/flyTerra_2016_08_19/split/DSC00354_43.JPG'
p889
aS'http://server.genobyte.us/ethan/weed_cover_images/flyTerra_2016_08_19/split/DSC00345_47.JPG'
p890
aS'http://server.genobyte.us/ethan/weed_cover_images/flyTerra_2016_08_19/split/DSC00345_8.JPG'
p891
aS'http://server.genobyte.us/ethan/weed_cover_images/flyTerra_2016_08_19/split/DSC00361_42.JPG'
p892
aS'http://server.genobyte.us/ethan/weed_cover_images/flyTerra_2016_08_19/split/DSC00354_41.JPG'
p893
aS'http://server.genobyte.us/ethan/weed_cover_images/flyTerra_2016_08_19/split/DSC00318_26.JPG'
p894
aS'http://server.genobyte.us/ethan/weed_cover_images/goreLab_08_10_2016/flight_1/split/IMG_2187_1.JPG'
p895
aS'http://server.genobyte.us/ethan/weed_cover_images/flyTerra_2016_08_19/split/DSC00333_34.JPG'
p896
aS'http://server.genobyte.us/ethan/weed_cover_images/flyTerra_2016_08_19/split/DSC00350_29.JPG'
p897
aS'http://server.genobyte.us/ethan/weed_cover_images/flyTerra_2016_08_19/split/DSC00362_18.JPG'
p898
aS'http://server.genobyte.us/ethan/weed_cover_images/flyTerra_2016_08_19/split/DSC00345_19.JPG'
p899
aS'http://server.genobyte.us/ethan/weed_cover_images/flyTerra_2016_08_19/split/DSC00322_12.JPG'
p900
aS'http://server.genobyte.us/ethan/weed_cover_images/flyTerra_2016_08_19/split/DSC00353_46.JPG'
p901
aS'http://server.genobyte.us/ethan/weed_cover_images/flyTerra_2016_08_19/split/DSC00318_23.JPG'
p902
aS'http://server.genobyte.us/ethan/weed_cover_images/flyTerra_2016_08_19/split/DSC00352_32.JPG'
p903
aS'http://server.genobyte.us/ethan/weed_cover_images/flyTerra_2016_08_19/split/DSC00345_43.JPG'
p904
aS'http://server.genobyte.us/ethan/weed_cover_images/flyTerra_2016_08_19/split/DSC00362_3.JPG'
p905
aS'http://server.genobyte.us/ethan/weed_cover_images/flyTerra_2016_08_19/split/DSC00348_32.JPG'
p906
aS'http://server.genobyte.us/ethan/weed_cover_images/flyTerra_2016_08_19/split/DSC00352_40.JPG'
p907
aS'http://server.genobyte.us/ethan/weed_cover_images/flyTerra_2016_08_19/split/DSC00349_26.JPG'
p908
aS'http://server.genobyte.us/ethan/weed_cover_images/flyTerra_2016_08_19/split/DSC00327_39.JPG'
p909
aS'http://server.genobyte.us/ethan/weed_cover_images/flyTerra_2016_08_19/split/DSC00354_11.JPG'
p910
aS'http://server.genobyte.us/ethan/weed_cover_images/goreLab_08_09_2016/split/DSC05855_3.JPG'
p911
aS'http://server.genobyte.us/ethan/weed_cover_images/flyTerra_2016_08_19/split/DSC00330_7.JPG'
p912
aS'http://server.genobyte.us/ethan/weed_cover_images/flyTerra_2016_08_19/split/DSC00349_38.JPG'
p913
aS'http://server.genobyte.us/ethan/weed_cover_images/flyTerra_2016_08_19/split/DSC00328_24.JPG'
p914
aS'http://server.genobyte.us/ethan/weed_cover_images/goreLab_08_10_2016/flight_1/split/IMG_2224_2.JPG'
p915
aS'http://server.genobyte.us/ethan/weed_cover_images/goreLab_08_09_2016/split/DSC05786_1.JPG'
p916
aS'http://server.genobyte.us/ethan/weed_cover_images/flyTerra_2016_08_19/split/DSC00347_23.JPG'
p917
aS'http://server.genobyte.us/ethan/weed_cover_images/flyTerra_2016_08_19/split/DSC00363_30.JPG'
p918
aS'http://server.genobyte.us/ethan/weed_cover_images/flyTerra_2016_08_19/split/DSC00355_8.JPG'
p919
aS'http://server.genobyte.us/ethan/weed_cover_images/flyTerra_2016_08_19/split/DSC00330_40.JPG'
p920
aS'http://server.genobyte.us/ethan/weed_cover_images/flyTerra_2016_08_19/split/DSC00323_8.JPG'
p921
aS'http://server.genobyte.us/ethan/weed_cover_images/flyTerra_2016_08_19/split/DSC00317_8.JPG'
p922
aS'http://server.genobyte.us/ethan/weed_cover_images/flyTerra_2016_08_19/split/DSC00360_15.JPG'
p923
aS'http://server.genobyte.us/ethan/weed_cover_images/flyTerra_2016_08_19/split/DSC00355_38.JPG'
p924
aS'http://server.genobyte.us/ethan/weed_cover_images/flyTerra_2016_08_19/split/DSC00351_8.JPG'
p925
aS'http://server.genobyte.us/ethan/weed_cover_images/flyTerra_2016_08_19/split/DSC00325_27.JPG'
p926
aS'http://server.genobyte.us/ethan/weed_cover_images/flyTerra_2016_08_19/split/DSC00333_31.JPG'
p927
aS'http://server.genobyte.us/ethan/weed_cover_images/flyTerra_2016_08_19/split/DSC00329_12.JPG'
p928
aS'http://server.genobyte.us/ethan/weed_cover_images/flyTerra_2016_08_19/split/DSC00358_26.JPG'
p929
aS'http://server.genobyte.us/ethan/weed_cover_images/goreLab_08_10_2016/flight_1/split/IMG_2210_2.JPG'
p930
aS'http://server.genobyte.us/ethan/weed_cover_images/flyTerra_2016_08_19/split/DSC00360_20.JPG'
p931
aS'http://server.genobyte.us/ethan/weed_cover_images/flyTerra_2016_08_19/split/DSC00327_22.JPG'
p932
aS'http://server.genobyte.us/ethan/weed_cover_images/flyTerra_2016_08_19/split/DSC00331_36.JPG'
p933
aS'http://server.genobyte.us/ethan/weed_cover_images/flyTerra_2016_08_19/split/DSC00344_38.JPG'
p934
aS'http://server.genobyte.us/ethan/weed_cover_images/flyTerra_2016_08_19/split/DSC00347_1.JPG'
p935
aS'http://server.genobyte.us/ethan/weed_cover_images/goreLab_08_09_2016/split/DSC05790_0.JPG'
p936
aS'http://server.genobyte.us/ethan/weed_cover_images/flyTerra_2016_08_19/split/DSC00355_41.JPG'
p937
aS'http://server.genobyte.us/ethan/weed_cover_images/flyTerra_2016_08_19/split/DSC00320_29.JPG'
p938
aS'http://server.genobyte.us/ethan/weed_cover_images/flyTerra_2016_08_19/split/DSC00319_27.JPG'
p939
aS'http://server.genobyte.us/ethan/weed_cover_images/flyTerra_2016_08_19/split/DSC00361_30.JPG'
p940
aS'http://server.genobyte.us/ethan/weed_cover_images/flyTerra_2016_08_19/split/DSC00325_12.JPG'
p941
aS'http://server.genobyte.us/ethan/weed_cover_images/flyTerra_2016_08_19/split/DSC00329_5.JPG'
p942
aS'http://server.genobyte.us/ethan/weed_cover_images/goreLab_08_10_2016/flight_1/split/IMG_2210_1.JPG'
p943
aS'http://server.genobyte.us/ethan/weed_cover_images/flyTerra_2016_08_19/split/DSC00330_6.JPG'
p944
aS'http://server.genobyte.us/ethan/weed_cover_images/flyTerra_2016_08_19/split/DSC00358_16.JPG'
p945
aS'http://server.genobyte.us/ethan/weed_cover_images/flyTerra_2016_08_19/split/DSC00355_39.JPG'
p946
aS'http://server.genobyte.us/ethan/weed_cover_images/flyTerra_2016_08_19/split/DSC00332_19.JPG'
p947
aS'http://server.genobyte.us/ethan/weed_cover_images/flyTerra_2016_08_19/split/DSC00355_47.JPG'
p948
aS'http://server.genobyte.us/ethan/weed_cover_images/flyTerra_2016_08_19/split/DSC00317_25.JPG'
p949
aS'http://server.genobyte.us/ethan/weed_cover_images/goreLab_08_09_2016/split/DSC05858_3.JPG'
p950
aS'http://server.genobyte.us/ethan/weed_cover_images/flyTerra_2016_08_19/split/DSC00328_44.JPG'
p951
aS'http://server.genobyte.us/ethan/weed_cover_images/flyTerra_2016_08_19/split/DSC00324_37.JPG'
p952
aS'http://server.genobyte.us/ethan/weed_cover_images/flyTerra_2016_08_19/split/DSC00318_21.JPG'
p953
aS'http://server.genobyte.us/ethan/weed_cover_images/flyTerra_2016_08_19/split/DSC00345_21.JPG'
p954
aS'http://server.genobyte.us/ethan/weed_cover_images/flyTerra_2016_08_19/split/DSC00353_27.JPG'
p955
aS'http://server.genobyte.us/ethan/weed_cover_images/flyTerra_2016_08_19/split/DSC00329_44.JPG'
p956
aS'http://server.genobyte.us/ethan/weed_cover_images/flyTerra_2016_08_19/split/DSC00360_14.JPG'
p957
aS'http://server.genobyte.us/ethan/weed_cover_images/flyTerra_2016_08_19/split/DSC00361_26.JPG'
p958
aS'http://server.genobyte.us/ethan/weed_cover_images/flyTerra_2016_08_19/split/DSC00357_16.JPG'
p959
aS'http://server.genobyte.us/ethan/weed_cover_images/flyTerra_2016_08_19/split/DSC00351_15.JPG'
p960
aS'http://server.genobyte.us/ethan/weed_cover_images/flyTerra_2016_08_19/split/DSC00353_7.JPG'
p961
aS'http://server.genobyte.us/ethan/weed_cover_images/goreLab_08_10_2016/flight_1/split/IMG_2092_1.JPG'
p962
aS'http://server.genobyte.us/ethan/weed_cover_images/flyTerra_2016_08_19/split/DSC00347_12.JPG'
p963
aS'http://server.genobyte.us/ethan/weed_cover_images/goreLab_08_09_2016/split/DSC05996_3.JPG'
p964
aS'http://server.genobyte.us/ethan/weed_cover_images/flyTerra_2016_08_19/split/DSC00331_16.JPG'
p965
aS'http://server.genobyte.us/ethan/weed_cover_images/flyTerra_2016_08_19/split/DSC00359_19.JPG'
p966
aS'http://server.genobyte.us/ethan/weed_cover_images/flyTerra_2016_08_19/split/DSC00358_5.JPG'
p967
aS'http://server.genobyte.us/ethan/weed_cover_images/flyTerra_2016_08_19/split/DSC00360_19.JPG'
p968
aS'http://server.genobyte.us/ethan/weed_cover_images/flyTerra_2016_08_19/split/DSC00329_16.JPG'
p969
aS'http://server.genobyte.us/ethan/weed_cover_images/flyTerra_2016_08_19/split/DSC00356_18.JPG'
p970
aS'http://server.genobyte.us/ethan/weed_cover_images/flyTerra_2016_08_19/split/DSC00350_2.JPG'
p971
aS'http://server.genobyte.us/ethan/weed_cover_images/goreLab_08_09_2016/split/DSC05988_0.JPG'
p972
aS'http://server.genobyte.us/ethan/weed_cover_images/flyTerra_2016_08_19/split/DSC00329_24.JPG'
p973
aS'http://server.genobyte.us/ethan/weed_cover_images/flyTerra_2016_08_19/split/DSC00346_36.JPG'
p974
aS'http://server.genobyte.us/ethan/weed_cover_images/flyTerra_2016_08_19/split/DSC00323_36.JPG'
p975
aS'http://server.genobyte.us/ethan/weed_cover_images/flyTerra_2016_08_19/split/DSC00318_47.JPG'
p976
aS'http://server.genobyte.us/ethan/weed_cover_images/flyTerra_2016_08_19/split/DSC00324_23.JPG'
p977
aS'http://server.genobyte.us/ethan/weed_cover_images/flyTerra_2016_08_19/split/DSC00354_23.JPG'
p978
aS'http://server.genobyte.us/ethan/weed_cover_images/goreLab_08_09_2016/split/DSC05862_2.JPG'
p979
aS'http://server.genobyte.us/ethan/weed_cover_images/goreLab_08_10_2016/flight_2/IMG_1402.JPG'
p980
aS'http://server.genobyte.us/ethan/weed_cover_images/flyTerra_2016_08_19/split/DSC00332_36.JPG'
p981
aS'http://server.genobyte.us/ethan/weed_cover_images/flyTerra_2016_08_19/split/DSC00348_41.JPG'
p982
aS'http://server.genobyte.us/ethan/weed_cover_images/flyTerra_2016_08_19/split/DSC00345_46.JPG'
p983
aS'http://server.genobyte.us/ethan/weed_cover_images/flyTerra_2016_08_19/split/DSC00320_42.JPG'
p984
aS'http://server.genobyte.us/ethan/weed_cover_images/flyTerra_2016_08_19/split/DSC00324_11.JPG'
p985
aS'http://server.genobyte.us/ethan/weed_cover_images/flyTerra_2016_08_19/split/DSC00353_3.JPG'
p986
aS'http://server.genobyte.us/ethan/weed_cover_images/flyTerra_2016_08_19/split/DSC00322_3.JPG'
p987
aS'http://server.genobyte.us/ethan/weed_cover_images/flyTerra_2016_08_19/split/DSC00362_30.JPG'
p988
aS'http://server.genobyte.us/ethan/weed_cover_images/goreLab_08_09_2016/split/DSC05958_3.JPG'
p989
aS'http://server.genobyte.us/ethan/weed_cover_images/goreLab_08_09_2016/split/DSC05789_0.JPG'
p990
aS'http://server.genobyte.us/ethan/weed_cover_images/flyTerra_2016_08_19/split/DSC00333_46.JPG'
p991
aS'http://server.genobyte.us/ethan/weed_cover_images/flyTerra_2016_08_19/split/DSC00323_47.JPG'
p992
aS'http://server.genobyte.us/ethan/weed_cover_images/flyTerra_2016_08_19/split/DSC00317_5.JPG'
p993
aS'http://server.genobyte.us/ethan/weed_cover_images/flyTerra_2016_08_19/split/DSC00351_2.JPG'
p994
aS'http://server.genobyte.us/ethan/weed_cover_images/flyTerra_2016_08_19/split/DSC00357_19.JPG'
p995
aS'http://server.genobyte.us/ethan/weed_cover_images/flyTerra_2016_08_19/split/DSC00331_7.JPG'
p996
aS'http://server.genobyte.us/ethan/weed_cover_images/flyTerra_2016_08_19/split/DSC00345_40.JPG'
p997
aS'http://server.genobyte.us/ethan/weed_cover_images/flyTerra_2016_08_19/split/DSC00324_10.JPG'
p998
aS'http://server.genobyte.us/ethan/weed_cover_images/flyTerra_2016_08_19/split/DSC00358_2.JPG'
p999
aS'http://server.genobyte.us/ethan/weed_cover_images/flyTerra_2016_08_19/split/DSC00324_41.JPG'
p1000
a.