(lp0
(lp1
S'http://server.genobyte.us/ethan/weed_cover_images/flyTerra_2016_08_19/split/DSC00362_26.JPG'
p2
aI299
aI27
aa(lp3
S'http://server.genobyte.us/ethan/weed_cover_images/flyTerra_2016_08_19/split/DSC00319_3.JPG'
p4
aI331
aI696
aa(lp5
S'http://server.genobyte.us/ethan/weed_cover_images/flyTerra_2016_08_19/split/DSC00316_41.JPG'
p6
aI81
aI512
aa(lp7
S'http://server.genobyte.us/ethan/weed_cover_images/flyTerra_2016_08_19/split/DSC00349_4.JPG'
p8
aI898
aI474
aa(lp9
S'http://server.genobyte.us/ethan/weed_cover_images/flyTerra_2016_08_19/split/DSC00328_2.JPG'
p10
aI612
aI205
aa(lp11
S'http://server.genobyte.us/ethan/weed_cover_images/goreLab_08_09_2016/split/DSC05790_3.JPG'
p12
aI1278
aI1714
aa(lp13
S'http://server.genobyte.us/ethan/weed_cover_images/flyTerra_2016_08_19/split/DSC00322_11.JPG'
p14
aI192
aI727
aa(lp15
S'http://server.genobyte.us/ethan/weed_cover_images/flyTerra_2016_08_19/split/DSC00351_39.JPG'
p16
aI611
aI472
aa(lp17
S'http://server.genobyte.us/ethan/weed_cover_images/flyTerra_2016_08_19/split/DSC00346_25.JPG'
p18
aI374
aI834
aa(lp19
S'http://server.genobyte.us/ethan/weed_cover_images/flyTerra_2016_08_19/split/DSC00361_5.JPG'
p20
aI448
aI437
aa(lp21
S'http://server.genobyte.us/ethan/weed_cover_images/flyTerra_2016_08_19/split/DSC00323_7.JPG'
p22
aI398
aI605
aa(lp23
S'http://server.genobyte.us/ethan/weed_cover_images/flyTerra_2016_08_19/split/DSC00324_29.JPG'
p24
aI652
aI406
aa(lp25
S'http://server.genobyte.us/ethan/weed_cover_images/flyTerra_2016_08_19/split/DSC00357_12.JPG'
p26
aI355
aI233
aa(lp27
S'http://server.genobyte.us/ethan/weed_cover_images/flyTerra_2016_08_19/split/DSC00353_18.JPG'
p28
aI747
aI709
aa(lp29
S'http://server.genobyte.us/ethan/weed_cover_images/goreLab_08_09_2016/split/DSC05900_3.JPG'
p30
aI1289
aI748
aa(lp31
S'http://server.genobyte.us/ethan/weed_cover_images/goreLab_08_09_2016/split/DSC05863_1.JPG'
p32
aI2731
aI135
aa(lp33
S'http://server.genobyte.us/ethan/weed_cover_images/flyTerra_2016_08_19/split/DSC00315_15.JPG'
p34
aI976
aI422
aa(lp35
S'http://server.genobyte.us/ethan/weed_cover_images/goreLab_08_09_2016/split/DSC05866_2.JPG'
p36
aI1739
aI1883
aa(lp37
S'http://server.genobyte.us/ethan/weed_cover_images/flyTerra_2016_08_19/split/DSC00350_21.JPG'
p38
aI971
aI866
aa(lp39
S'http://server.genobyte.us/ethan/weed_cover_images/flyTerra_2016_08_19/split/DSC00333_36.JPG'
p40
aI610
aI280
aa(lp41
S'http://server.genobyte.us/ethan/weed_cover_images/flyTerra_2016_08_19/split/DSC00329_29.JPG'
p42
aI530
aI156
aa(lp43
S'http://server.genobyte.us/ethan/weed_cover_images/flyTerra_2016_08_19/split/DSC00356_24.JPG'
p44
aI27
aI92
aa(lp45
S'http://server.genobyte.us/ethan/weed_cover_images/flyTerra_2016_08_19/split/DSC00315_12.JPG'
p46
aI754
aI288
aa(lp47
S'http://server.genobyte.us/ethan/weed_cover_images/flyTerra_2016_08_19/split/DSC00358_3.JPG'
p48
aI620
aI49
aa(lp49
S'http://server.genobyte.us/ethan/weed_cover_images/flyTerra_2016_08_19/split/DSC00346_17.JPG'
p50
aI631
aI714
aa(lp51
S'http://server.genobyte.us/ethan/weed_cover_images/flyTerra_2016_08_19/split/DSC00330_11.JPG'
p52
aI754
aI434
aa(lp53
S'http://server.genobyte.us/ethan/weed_cover_images/flyTerra_2016_08_19/split/DSC00317_44.JPG'
p54
aI201
aI774
aa(lp55
S'http://server.genobyte.us/ethan/weed_cover_images/goreLab_08_09_2016/split/DSC05785_2.JPG'
p56
aI2114
aI544
aa(lp57
S'http://server.genobyte.us/ethan/weed_cover_images/flyTerra_2016_08_19/split/DSC00347_37.JPG'
p58
aI396
aI299
aa(lp59
S'http://server.genobyte.us/ethan/weed_cover_images/flyTerra_2016_08_19/split/DSC00330_26.JPG'
p60
aI362
aI693
aa(lp61
S'http://server.genobyte.us/ethan/weed_cover_images/flyTerra_2016_08_19/split/DSC00344_2.JPG'
p62
aI488
aI406
aa(lp63
S'http://server.genobyte.us/ethan/weed_cover_images/flyTerra_2016_08_19/split/DSC00326_10.JPG'
p64
aI78
aI473
aa(lp65
S'http://server.genobyte.us/ethan/weed_cover_images/flyTerra_2016_08_19/split/DSC00322_1.JPG'
p66
aI95
aI841
aa(lp67
S'http://server.genobyte.us/ethan/weed_cover_images/flyTerra_2016_08_19/split/DSC00360_45.JPG'
p68
aI694
aI169
aa(lp69
S'http://server.genobyte.us/ethan/weed_cover_images/flyTerra_2016_08_19/split/DSC00344_21.JPG'
p70
aI911
aI241
aa(lp71
S'http://server.genobyte.us/ethan/weed_cover_images/goreLab_08_09_2016/split/DSC05893_0.JPG'
p72
aI1296
aI944
aa(lp73
S'http://server.genobyte.us/ethan/weed_cover_images/flyTerra_2016_08_19/split/DSC00331_13.JPG'
p74
aI489
aI267
aa(lp75
S'http://server.genobyte.us/ethan/weed_cover_images/flyTerra_2016_08_19/split/DSC00360_4.JPG'
p76
aI752
aI64
aa(lp77
S'http://server.genobyte.us/ethan/weed_cover_images/flyTerra_2016_08_19/split/DSC00332_28.JPG'
p78
aI180
aI311
aa(lp79
S'http://server.genobyte.us/ethan/weed_cover_images/goreLab_08_09_2016/split/DSC05999_2.JPG'
p80
aI1151
aI751
aa(lp81
S'http://server.genobyte.us/ethan/weed_cover_images/flyTerra_2016_08_19/split/DSC00352_37.JPG'
p82
aI287
aI691
aa(lp83
S'http://server.genobyte.us/ethan/weed_cover_images/goreLab_08_09_2016/split/DSC05896_3.JPG'
p84
aI325
aI1181
aa(lp85
S'http://server.genobyte.us/ethan/weed_cover_images/flyTerra_2016_08_19/split/DSC00345_10.JPG'
p86
aI862
aI122
aa(lp87
S'http://server.genobyte.us/ethan/weed_cover_images/flyTerra_2016_08_19/split/DSC00345_6.JPG'
p88
aI595
aI428
aa(lp89
S'http://server.genobyte.us/ethan/weed_cover_images/flyTerra_2016_08_19/split/DSC00350_35.JPG'
p90
aI515
aI686
aa(lp91
S'http://server.genobyte.us/ethan/weed_cover_images/goreLab_08_09_2016/split/DSC05784_0.JPG'
p92
aI1683
aI909
aa(lp93
S'http://server.genobyte.us/ethan/weed_cover_images/flyTerra_2016_08_19/split/DSC00349_41.JPG'
p94
aI926
aI630
aa(lp95
S'http://server.genobyte.us/ethan/weed_cover_images/flyTerra_2016_08_19/split/DSC00321_6.JPG'
p96
aI812
aI352
aa(lp97
S'http://server.genobyte.us/ethan/weed_cover_images/flyTerra_2016_08_19/split/DSC00346_33.JPG'
p98
aI805
aI423
aa(lp99
S'http://server.genobyte.us/ethan/weed_cover_images/flyTerra_2016_08_19/split/DSC00327_42.JPG'
p100
aI128
aI243
aa(lp101
S'http://server.genobyte.us/ethan/weed_cover_images/flyTerra_2016_08_19/split/DSC00360_17.JPG'
p102
aI254
aI586
aa(lp103
S'http://server.genobyte.us/ethan/weed_cover_images/goreLab_08_09_2016/split/DSC05988_3.JPG'
p104
aI2966
aI1493
aa(lp105
S'http://server.genobyte.us/ethan/weed_cover_images/flyTerra_2016_08_19/split/DSC00355_31.JPG'
p106
aI652
aI232
aa(lp107
S'http://server.genobyte.us/ethan/weed_cover_images/flyTerra_2016_08_19/split/DSC00326_25.JPG'
p108
aI953
aI148
aa(lp109
S'http://server.genobyte.us/ethan/weed_cover_images/flyTerra_2016_08_19/split/DSC00317_33.JPG'
p110
aI505
aI415
aa(lp111
S'http://server.genobyte.us/ethan/weed_cover_images/flyTerra_2016_08_19/split/DSC00322_15.JPG'
p112
aI415
aI800
aa(lp113
S'http://server.genobyte.us/ethan/weed_cover_images/flyTerra_2016_08_19/split/DSC00326_35.JPG'
p114
aI419
aI71
aa(lp115
S'http://server.genobyte.us/ethan/weed_cover_images/flyTerra_2016_08_19/split/DSC00321_37.JPG'
p116
aI113
aI875
aa(lp117
S'http://server.genobyte.us/ethan/weed_cover_images/goreLab_08_09_2016/split/DSC05954_0.JPG'
p118
aI2873
aI1161
aa(lp119
S'http://server.genobyte.us/ethan/weed_cover_images/flyTerra_2016_08_19/split/DSC00317_35.JPG'
p120
aI939
aI707
aa(lp121
S'http://server.genobyte.us/ethan/weed_cover_images/flyTerra_2016_08_19/split/DSC00317_12.JPG'
p122
aI837
aI276
aa(lp123
S'http://server.genobyte.us/ethan/weed_cover_images/goreLab_08_09_2016/split/DSC05901_2.JPG'
p124
aI1797
aI1615
aa(lp125
S'http://server.genobyte.us/ethan/weed_cover_images/flyTerra_2016_08_19/split/DSC00350_24.JPG'
p126
aI510
aI265
aa(lp127
S'http://server.genobyte.us/ethan/weed_cover_images/goreLab_08_09_2016/split/DSC05995_2.JPG'
p128
aI2771
aI1997
aa(lp129
S'http://server.genobyte.us/ethan/weed_cover_images/flyTerra_2016_08_19/split/DSC00318_12.JPG'
p130
aI518
aI483
aa(lp131
S'http://server.genobyte.us/ethan/weed_cover_images/flyTerra_2016_08_19/split/DSC00318_14.JPG'
p132
aI179
aI390
aa(lp133
S'http://server.genobyte.us/ethan/weed_cover_images/flyTerra_2016_08_19/split/DSC00361_36.JPG'
p134
aI592
aI289
aa(lp135
S'http://server.genobyte.us/ethan/weed_cover_images/flyTerra_2016_08_19/split/DSC00356_17.JPG'
p136
aI704
aI791
aa(lp137
S'http://server.genobyte.us/ethan/weed_cover_images/flyTerra_2016_08_19/split/DSC00362_24.JPG'
p138
aI421
aI874
aa(lp139
S'http://server.genobyte.us/ethan/weed_cover_images/flyTerra_2016_08_19/split/DSC00363_22.JPG'
p140
aI356
aI279
aa(lp141
S'http://server.genobyte.us/ethan/weed_cover_images/flyTerra_2016_08_19/split/DSC00358_44.JPG'
p142
aI771
aI564
aa(lp143
S'http://server.genobyte.us/ethan/weed_cover_images/flyTerra_2016_08_19/split/DSC00319_24.JPG'
p144
aI696
aI574
aa(lp145
S'http://server.genobyte.us/ethan/weed_cover_images/flyTerra_2016_08_19/split/DSC00351_45.JPG'
p146
aI537
aI525
aa(lp147
S'http://server.genobyte.us/ethan/weed_cover_images/flyTerra_2016_08_19/split/DSC00357_41.JPG'
p148
aI684
aI649
aa(lp149
S'http://server.genobyte.us/ethan/weed_cover_images/flyTerra_2016_08_19/split/DSC00316_34.JPG'
p150
aI401
aI861
aa(lp151
S'http://server.genobyte.us/ethan/weed_cover_images/goreLab_08_10_2016/flight_1/split/IMG_2226_1.JPG'
p152
aI129
aI1117
aa(lp153
S'http://server.genobyte.us/ethan/weed_cover_images/goreLab_08_09_2016/split/DSC05997_1.JPG'
p154
aI1834
aI208
aa(lp155
S'http://server.genobyte.us/ethan/weed_cover_images/flyTerra_2016_08_19/split/DSC00355_21.JPG'
p156
aI228
aI140
aa(lp157
S'http://server.genobyte.us/ethan/weed_cover_images/flyTerra_2016_08_19/split/DSC00319_46.JPG'
p158
aI238
aI418
aa(lp159
S'http://server.genobyte.us/ethan/weed_cover_images/flyTerra_2016_08_19/split/DSC00328_15.JPG'
p160
aI320
aI851
aa(lp161
S'http://server.genobyte.us/ethan/weed_cover_images/flyTerra_2016_08_19/split/DSC00326_17.JPG'
p162
aI925
aI348
aa(lp163
S'http://server.genobyte.us/ethan/weed_cover_images/flyTerra_2016_08_19/split/DSC00326_28.JPG'
p164
aI9
aI792
aa(lp165
S'http://server.genobyte.us/ethan/weed_cover_images/flyTerra_2016_08_19/split/DSC00344_24.JPG'
p166
aI971
aI445
aa(lp167
S'http://server.genobyte.us/ethan/weed_cover_images/flyTerra_2016_08_19/split/DSC00322_14.JPG'
p168
aI744
aI639
aa(lp169
S'http://server.genobyte.us/ethan/weed_cover_images/flyTerra_2016_08_19/split/DSC00331_15.JPG'
p170
aI654
aI207
aa(lp171
S'http://server.genobyte.us/ethan/weed_cover_images/flyTerra_2016_08_19/split/DSC00345_11.JPG'
p172
aI578
aI369
aa(lp173
S'http://server.genobyte.us/ethan/weed_cover_images/flyTerra_2016_08_19/split/DSC00333_8.JPG'
p174
aI114
aI359
aa(lp175
S'http://server.genobyte.us/ethan/weed_cover_images/flyTerra_2016_08_19/split/DSC00315_2.JPG'
p176
aI25
aI415
aa(lp177
S'http://server.genobyte.us/ethan/weed_cover_images/flyTerra_2016_08_19/split/DSC00345_33.JPG'
p178
aI794
aI757
aa(lp179
S'http://server.genobyte.us/ethan/weed_cover_images/flyTerra_2016_08_19/split/DSC00323_16.JPG'
p180
aI752
aI805
aa(lp181
S'http://server.genobyte.us/ethan/weed_cover_images/flyTerra_2016_08_19/split/DSC00356_44.JPG'
p182
aI383
aI569
aa(lp183
S'http://server.genobyte.us/ethan/weed_cover_images/flyTerra_2016_08_19/split/DSC00318_29.JPG'
p184
aI372
aI288
aa(lp185
S'http://server.genobyte.us/ethan/weed_cover_images/flyTerra_2016_08_19/split/DSC00354_1.JPG'
p186
aI227
aI224
aa(lp187
S'http://server.genobyte.us/ethan/weed_cover_images/flyTerra_2016_08_19/split/DSC00363_34.JPG'
p188
aI684
aI704
aa(lp189
S'http://server.genobyte.us/ethan/weed_cover_images/flyTerra_2016_08_19/split/DSC00330_21.JPG'
p190
aI528
aI356
aa(lp191
S'http://server.genobyte.us/ethan/weed_cover_images/flyTerra_2016_08_19/split/DSC00354_44.JPG'
p192
aI787
aI114
aa(lp193
S'http://server.genobyte.us/ethan/weed_cover_images/flyTerra_2016_08_19/split/DSC00363_4.JPG'
p194
aI900
aI830
aa(lp195
S'http://server.genobyte.us/ethan/weed_cover_images/flyTerra_2016_08_19/split/DSC00327_25.JPG'
p196
aI971
aI830
aa(lp197
S'http://server.genobyte.us/ethan/weed_cover_images/flyTerra_2016_08_19/split/DSC00331_4.JPG'
p198
aI633
aI55
aa(lp199
S'http://server.genobyte.us/ethan/weed_cover_images/flyTerra_2016_08_19/split/DSC00330_0.JPG'
p200
aI742
aI597
aa(lp201
S'http://server.genobyte.us/ethan/weed_cover_images/flyTerra_2016_08_19/split/DSC00363_36.JPG'
p202
aI73
aI140
aa(lp203
S'http://server.genobyte.us/ethan/weed_cover_images/goreLab_08_09_2016/split/DSC05867_3.JPG'
p204
aI868
aI1494
aa(lp205
S'http://server.genobyte.us/ethan/weed_cover_images/flyTerra_2016_08_19/split/DSC00361_25.JPG'
p206
aI321
aI781
aa(lp207
S'http://server.genobyte.us/ethan/weed_cover_images/flyTerra_2016_08_19/split/DSC00317_18.JPG'
p208
aI580
aI770
aa(lp209
S'http://server.genobyte.us/ethan/weed_cover_images/goreLab_08_09_2016/split/DSC05786_0.JPG'
p210
aI892
aI719
aa(lp211
S'http://server.genobyte.us/ethan/weed_cover_images/flyTerra_2016_08_19/split/DSC00332_32.JPG'
p212
aI508
aI707
aa(lp213
S'http://server.genobyte.us/ethan/weed_cover_images/flyTerra_2016_08_19/split/DSC00320_21.JPG'
p214
aI841
aI687
aa(lp215
S'http://server.genobyte.us/ethan/weed_cover_images/goreLab_08_09_2016/split/DSC05857_2.JPG'
p216
aI2586
aI347
aa(lp217
S'http://server.genobyte.us/ethan/weed_cover_images/goreLab_08_09_2016/split/DSC05956_2.JPG'
p218
aI1635
aI26
aa(lp219
S'http://server.genobyte.us/ethan/weed_cover_images/flyTerra_2016_08_19/split/DSC00333_28.JPG'
p220
aI925
aI586
aa(lp221
S'http://server.genobyte.us/ethan/weed_cover_images/flyTerra_2016_08_19/split/DSC00357_9.JPG'
p222
aI430
aI43
aa(lp223
S'http://server.genobyte.us/ethan/weed_cover_images/flyTerra_2016_08_19/split/DSC00344_20.JPG'
p224
aI519
aI460
aa(lp225
S'http://server.genobyte.us/ethan/weed_cover_images/flyTerra_2016_08_19/split/DSC00319_10.JPG'
p226
aI381
aI583
aa(lp227
S'http://server.genobyte.us/ethan/weed_cover_images/flyTerra_2016_08_19/split/DSC00345_38.JPG'
p228
aI821
aI568
aa(lp229
S'http://server.genobyte.us/ethan/weed_cover_images/flyTerra_2016_08_19/split/DSC00349_45.JPG'
p230
aI846
aI87
aa(lp231
S'http://server.genobyte.us/ethan/weed_cover_images/flyTerra_2016_08_19/split/DSC00329_31.JPG'
p232
aI364
aI397
aa(lp233
S'http://server.genobyte.us/ethan/weed_cover_images/goreLab_08_09_2016/split/DSC05897_1.JPG'
p234
aI666
aI938
aa(lp235
S'http://server.genobyte.us/ethan/weed_cover_images/goreLab_08_10_2016/flight_1/split/IMG_2186_2.JPG'
p236
aI289
aI540
aa(lp237
S'http://server.genobyte.us/ethan/weed_cover_images/flyTerra_2016_08_19/split/DSC00329_10.JPG'
p238
aI25
aI613
aa(lp239
S'http://server.genobyte.us/ethan/weed_cover_images/flyTerra_2016_08_19/split/DSC00361_13.JPG'
p240
aI660
aI619
aa(lp241
S'http://server.genobyte.us/ethan/weed_cover_images/flyTerra_2016_08_19/split/DSC00318_31.JPG'
p242
aI603
aI853
aa(lp243
S'http://server.genobyte.us/ethan/weed_cover_images/goreLab_08_09_2016/split/DSC05793_3.JPG'
p244
aI502
aI1004
aa(lp245
S'http://server.genobyte.us/ethan/weed_cover_images/flyTerra_2016_08_19/split/DSC00349_32.JPG'
p246
aI533
aI107
aa(lp247
S'http://server.genobyte.us/ethan/weed_cover_images/flyTerra_2016_08_19/split/DSC00324_3.JPG'
p248
aI610
aI726
aa(lp249
S'http://server.genobyte.us/ethan/weed_cover_images/flyTerra_2016_08_19/split/DSC00316_18.JPG'
p250
aI725
aI207
aa(lp251
S'http://server.genobyte.us/ethan/weed_cover_images/flyTerra_2016_08_19/split/DSC00330_13.JPG'
p252
aI764
aI458
aa(lp253
S'http://server.genobyte.us/ethan/weed_cover_images/flyTerra_2016_08_19/split/DSC00321_2.JPG'
p254
aI627
aI436
aa(lp255
S'http://server.genobyte.us/ethan/weed_cover_images/flyTerra_2016_08_19/split/DSC00359_14.JPG'
p256
aI538
aI322
aa(lp257
S'http://server.genobyte.us/ethan/weed_cover_images/flyTerra_2016_08_19/split/DSC00323_13.JPG'
p258
aI348
aI68
aa(lp259
S'http://server.genobyte.us/ethan/weed_cover_images/flyTerra_2016_08_19/split/DSC00324_12.JPG'
p260
aI62
aI589
aa(lp261
S'http://server.genobyte.us/ethan/weed_cover_images/flyTerra_2016_08_19/split/DSC00328_35.JPG'
p262
aI304
aI736
aa(lp263
S'http://server.genobyte.us/ethan/weed_cover_images/flyTerra_2016_08_19/split/DSC00347_36.JPG'
p264
aI409
aI858
aa(lp265
S'http://server.genobyte.us/ethan/weed_cover_images/flyTerra_2016_08_19/split/DSC00354_28.JPG'
p266
aI868
aI850
aa(lp267
S'http://server.genobyte.us/ethan/weed_cover_images/flyTerra_2016_08_19/split/DSC00315_30.JPG'
p268
aI409
aI213
aa(lp269
S'http://server.genobyte.us/ethan/weed_cover_images/flyTerra_2016_08_19/split/DSC00333_44.JPG'
p270
aI864
aI252
aa(lp271
S'http://server.genobyte.us/ethan/weed_cover_images/flyTerra_2016_08_19/split/DSC00330_34.JPG'
p272
aI765
aI821
aa(lp273
S'http://server.genobyte.us/ethan/weed_cover_images/flyTerra_2016_08_19/split/DSC00360_46.JPG'
p274
aI617
aI647
aa(lp275
S'http://server.genobyte.us/ethan/weed_cover_images/flyTerra_2016_08_19/split/DSC00316_5.JPG'
p276
aI160
aI451
aa(lp277
S'http://server.genobyte.us/ethan/weed_cover_images/flyTerra_2016_08_19/split/DSC00358_35.JPG'
p278
aI388
aI342
aa(lp279
S'http://server.genobyte.us/ethan/weed_cover_images/flyTerra_2016_08_19/split/DSC00362_21.JPG'
p280
aI235
aI478
aa(lp281
S'http://server.genobyte.us/ethan/weed_cover_images/flyTerra_2016_08_19/split/DSC00327_24.JPG'
p282
aI596
aI664
aa(lp283
S'http://server.genobyte.us/ethan/weed_cover_images/flyTerra_2016_08_19/split/DSC00354_36.JPG'
p284
aI25
aI646
aa(lp285
S'http://server.genobyte.us/ethan/weed_cover_images/goreLab_08_09_2016/split/DSC05992_0.JPG'
p286
aI154
aI1296
aa(lp287
S'http://server.genobyte.us/ethan/weed_cover_images/flyTerra_2016_08_19/split/DSC00359_0.JPG'
p288
aI48
aI274
aa(lp289
S'http://server.genobyte.us/ethan/weed_cover_images/flyTerra_2016_08_19/split/DSC00350_44.JPG'
p290
aI965
aI805
aa(lp291
S'http://server.genobyte.us/ethan/weed_cover_images/flyTerra_2016_08_19/split/DSC00353_42.JPG'
p292
aI91
aI110
aa(lp293
S'http://server.genobyte.us/ethan/weed_cover_images/flyTerra_2016_08_19/split/DSC00318_1.JPG'
p294
aI219
aI351
aa(lp295
S'http://server.genobyte.us/ethan/weed_cover_images/goreLab_08_10_2016/flight_2/IMG_1399.JPG'
p296
aI430
aI1165
aa(lp297
S'http://server.genobyte.us/ethan/weed_cover_images/goreLab_08_09_2016/split/DSC05795_0.JPG'
p298
aI292
aI1081
aa(lp299
S'http://server.genobyte.us/ethan/weed_cover_images/flyTerra_2016_08_19/split/DSC00315_3.JPG'
p300
aI967
aI451
aa(lp301
S'http://server.genobyte.us/ethan/weed_cover_images/flyTerra_2016_08_19/split/DSC00357_32.JPG'
p302
aI758
aI651
aa(lp303
S'http://server.genobyte.us/ethan/weed_cover_images/flyTerra_2016_08_19/split/DSC00362_10.JPG'
p304
aI628
aI251
aa(lp305
S'http://server.genobyte.us/ethan/weed_cover_images/flyTerra_2016_08_19/split/DSC00318_35.JPG'
p306
aI177
aI778
aa(lp307
S'http://server.genobyte.us/ethan/weed_cover_images/goreLab_08_10_2016/flight_1/split/IMG_2090_2.JPG'
p308
aI401
aI548
aa(lp309
S'http://server.genobyte.us/ethan/weed_cover_images/flyTerra_2016_08_19/split/DSC00353_47.JPG'
p310
aI862
aI59
aa(lp311
S'http://server.genobyte.us/ethan/weed_cover_images/flyTerra_2016_08_19/split/DSC00316_22.JPG'
p312
aI227
aI789
aa(lp313
S'http://server.genobyte.us/ethan/weed_cover_images/flyTerra_2016_08_19/split/DSC00361_20.JPG'
p314
aI117
aI384
aa(lp315
S'http://server.genobyte.us/ethan/weed_cover_images/flyTerra_2016_08_19/split/DSC00333_30.JPG'
p316
aI759
aI308
aa(lp317
S'http://server.genobyte.us/ethan/weed_cover_images/flyTerra_2016_08_19/split/DSC00354_22.JPG'
p318
aI621
aI759
aa(lp319
S'http://server.genobyte.us/ethan/weed_cover_images/goreLab_08_10_2016/flight_1/split/IMG_2085_0.JPG'
p320
aI274
aI134
aa(lp321
S'http://server.genobyte.us/ethan/weed_cover_images/flyTerra_2016_08_19/split/DSC00323_14.JPG'
p322
aI862
aI801
aa(lp323
S'http://server.genobyte.us/ethan/weed_cover_images/flyTerra_2016_08_19/split/DSC00329_38.JPG'
p324
aI596
aI737
aa(lp325
S'http://server.genobyte.us/ethan/weed_cover_images/flyTerra_2016_08_19/split/DSC00358_0.JPG'
p326
aI952
aI125
aa(lp327
S'http://server.genobyte.us/ethan/weed_cover_images/flyTerra_2016_08_19/split/DSC00350_38.JPG'
p328
aI78
aI558
aa(lp329
S'http://server.genobyte.us/ethan/weed_cover_images/flyTerra_2016_08_19/split/DSC00357_27.JPG'
p330
aI946
aI598
aa(lp331
S'http://server.genobyte.us/ethan/weed_cover_images/goreLab_08_09_2016/split/DSC05866_0.JPG'
p332
aI2828
aI1743
aa(lp333
S'http://server.genobyte.us/ethan/weed_cover_images/goreLab_08_09_2016/split/DSC05899_3.JPG'
p334
aI1413
aI17
aa(lp335
S'http://server.genobyte.us/ethan/weed_cover_images/flyTerra_2016_08_19/split/DSC00354_18.JPG'
p336
aI873
aI265
aa(lp337
S'http://server.genobyte.us/ethan/weed_cover_images/flyTerra_2016_08_19/split/DSC00350_10.JPG'
p338
aI117
aI347
aa(lp339
S'http://server.genobyte.us/ethan/weed_cover_images/flyTerra_2016_08_19/split/DSC00318_9.JPG'
p340
aI575
aI666
aa(lp341
S'http://server.genobyte.us/ethan/weed_cover_images/goreLab_08_09_2016/split/DSC05855_2.JPG'
p342
aI703
aI229
aa(lp343
S'http://server.genobyte.us/ethan/weed_cover_images/flyTerra_2016_08_19/split/DSC00330_42.JPG'
p344
aI431
aI564
aa(lp345
S'http://server.genobyte.us/ethan/weed_cover_images/flyTerra_2016_08_19/split/DSC00350_14.JPG'
p346
aI643
aI839
aa(lp347
S'http://server.genobyte.us/ethan/weed_cover_images/goreLab_08_10_2016/flight_1/split/IMG_2091_2.JPG'
p348
aI299
aI257
aa(lp349
S'http://server.genobyte.us/ethan/weed_cover_images/flyTerra_2016_08_19/split/DSC00319_1.JPG'
p350
aI625
aI854
aa(lp351
S'http://server.genobyte.us/ethan/weed_cover_images/flyTerra_2016_08_19/split/DSC00322_5.JPG'
p352
aI764
aI66
aa(lp353
S'http://server.genobyte.us/ethan/weed_cover_images/flyTerra_2016_08_19/split/DSC00360_29.JPG'
p354
aI499
aI501
aa(lp355
S'http://server.genobyte.us/ethan/weed_cover_images/goreLab_08_09_2016/split/DSC05965_2.JPG'
p356
aI2003
aI61
aa(lp357
S'http://server.genobyte.us/ethan/weed_cover_images/flyTerra_2016_08_19/split/DSC00321_40.JPG'
p358
aI484
aI419
aa(lp359
S'http://server.genobyte.us/ethan/weed_cover_images/flyTerra_2016_08_19/split/DSC00344_9.JPG'
p360
aI547
aI371
aa(lp361
S'http://server.genobyte.us/ethan/weed_cover_images/flyTerra_2016_08_19/split/DSC00315_21.JPG'
p362
aI786
aI232
aa(lp363
S'http://server.genobyte.us/ethan/weed_cover_images/goreLab_08_10_2016/flight_2/IMG_1387.JPG'
p364
aI1851
aI29
aa(lp365
S'http://server.genobyte.us/ethan/weed_cover_images/flyTerra_2016_08_19/split/DSC00352_22.JPG'
p366
aI603
aI314
aa(lp367
S'http://server.genobyte.us/ethan/weed_cover_images/flyTerra_2016_08_19/split/DSC00315_1.JPG'
p368
aI415
aI333
aa(lp369
S'http://server.genobyte.us/ethan/weed_cover_images/flyTerra_2016_08_19/split/DSC00345_30.JPG'
p370
aI105
aI475
aa(lp371
S'http://server.genobyte.us/ethan/weed_cover_images/goreLab_08_09_2016/split/DSC05997_0.JPG'
p372
aI1194
aI1649
aa(lp373
S'http://server.genobyte.us/ethan/weed_cover_images/flyTerra_2016_08_19/split/DSC00354_5.JPG'
p374
aI105
aI457
aa(lp375
S'http://server.genobyte.us/ethan/weed_cover_images/flyTerra_2016_08_19/split/DSC00352_36.JPG'
p376
aI828
aI452
aa(lp377
S'http://server.genobyte.us/ethan/weed_cover_images/flyTerra_2016_08_19/split/DSC00318_11.JPG'
p378
aI506
aI274
aa(lp379
S'http://server.genobyte.us/ethan/weed_cover_images/flyTerra_2016_08_19/split/DSC00333_40.JPG'
p380
aI59
aI41
aa(lp381
S'http://server.genobyte.us/ethan/weed_cover_images/flyTerra_2016_08_19/split/DSC00350_47.JPG'
p382
aI146
aI466
aa(lp383
S'http://server.genobyte.us/ethan/weed_cover_images/goreLab_08_09_2016/split/DSC05992_3.JPG'
p384
aI2110
aI1440
aa(lp385
S'http://server.genobyte.us/ethan/weed_cover_images/flyTerra_2016_08_19/split/DSC00316_28.JPG'
p386
aI295
aI269
aa(lp387
S'http://server.genobyte.us/ethan/weed_cover_images/flyTerra_2016_08_19/split/DSC00359_17.JPG'
p388
aI961
aI319
aa(lp389
S'http://server.genobyte.us/ethan/weed_cover_images/flyTerra_2016_08_19/split/DSC00324_33.JPG'
p390
aI534
aI400
aa(lp391
S'http://server.genobyte.us/ethan/weed_cover_images/flyTerra_2016_08_19/split/DSC00325_0.JPG'
p392
aI185
aI293
aa(lp393
S'http://server.genobyte.us/ethan/weed_cover_images/flyTerra_2016_08_19/split/DSC00330_16.JPG'
p394
aI693
aI798
aa(lp395
S'http://server.genobyte.us/ethan/weed_cover_images/flyTerra_2016_08_19/split/DSC00362_12.JPG'
p396
aI339
aI165
aa(lp397
S'http://server.genobyte.us/ethan/weed_cover_images/flyTerra_2016_08_19/split/DSC00351_38.JPG'
p398
aI293
aI320
aa(lp399
S'http://server.genobyte.us/ethan/weed_cover_images/flyTerra_2016_08_19/split/DSC00362_19.JPG'
p400
aI526
aI509
aa(lp401
S'http://server.genobyte.us/ethan/weed_cover_images/flyTerra_2016_08_19/split/DSC00326_3.JPG'
p402
aI846
aI92
aa(lp403
S'http://server.genobyte.us/ethan/weed_cover_images/goreLab_08_09_2016/split/DSC05963_3.JPG'
p404
aI2616
aI1835
aa(lp405
S'http://server.genobyte.us/ethan/weed_cover_images/flyTerra_2016_08_19/split/DSC00316_36.JPG'
p406
aI803
aI596
aa(lp407
S'http://server.genobyte.us/ethan/weed_cover_images/flyTerra_2016_08_19/split/DSC00315_41.JPG'
p408
aI571
aI757
aa(lp409
S'http://server.genobyte.us/ethan/weed_cover_images/goreLab_08_09_2016/split/DSC05963_2.JPG'
p410
aI2597
aI1131
aa(lp411
S'http://server.genobyte.us/ethan/weed_cover_images/flyTerra_2016_08_19/split/DSC00321_13.JPG'
p412
aI691
aI132
aa(lp413
S'http://server.genobyte.us/ethan/weed_cover_images/goreLab_08_09_2016/split/DSC05991_0.JPG'
p414
aI2674
aI267
aa(lp415
S'http://server.genobyte.us/ethan/weed_cover_images/goreLab_08_09_2016/split/DSC05991_2.JPG'
p416
aI1729
aI743
aa(lp417
S'http://server.genobyte.us/ethan/weed_cover_images/flyTerra_2016_08_19/split/DSC00358_15.JPG'
p418
aI177
aI709
aa(lp419
S'http://server.genobyte.us/ethan/weed_cover_images/flyTerra_2016_08_19/split/DSC00319_14.JPG'
p420
aI262
aI301
aa(lp421
S'http://server.genobyte.us/ethan/weed_cover_images/flyTerra_2016_08_19/split/DSC00349_31.JPG'
p422
aI247
aI520
aa(lp423
S'http://server.genobyte.us/ethan/weed_cover_images/flyTerra_2016_08_19/split/DSC00331_32.JPG'
p424
aI376
aI549
aa(lp425
S'http://server.genobyte.us/ethan/weed_cover_images/goreLab_08_10_2016/flight_1/split/IMG_2091_3.JPG'
p426
aI731
aI66
aa(lp427
S'http://server.genobyte.us/ethan/weed_cover_images/flyTerra_2016_08_19/split/DSC00357_20.JPG'
p428
aI369
aI173
aa(lp429
S'http://server.genobyte.us/ethan/weed_cover_images/flyTerra_2016_08_19/split/DSC00348_34.JPG'
p430
aI668
aI509
aa(lp431
S'http://server.genobyte.us/ethan/weed_cover_images/flyTerra_2016_08_19/split/DSC00352_17.JPG'
p432
aI614
aI43
aa(lp433
S'http://server.genobyte.us/ethan/weed_cover_images/flyTerra_2016_08_19/split/DSC00319_38.JPG'
p434
aI683
aI524
aa(lp435
S'http://server.genobyte.us/ethan/weed_cover_images/flyTerra_2016_08_19/split/DSC00346_37.JPG'
p436
aI51
aI31
aa(lp437
S'http://server.genobyte.us/ethan/weed_cover_images/flyTerra_2016_08_19/split/DSC00321_20.JPG'
p438
aI74
aI853
aa(lp439
S'http://server.genobyte.us/ethan/weed_cover_images/flyTerra_2016_08_19/split/DSC00353_10.JPG'
p440
aI37
aI489
aa(lp441
S'http://server.genobyte.us/ethan/weed_cover_images/flyTerra_2016_08_19/split/DSC00352_16.JPG'
p442
aI817
aI712
aa(lp443
S'http://server.genobyte.us/ethan/weed_cover_images/flyTerra_2016_08_19/split/DSC00363_35.JPG'
p444
aI711
aI787
aa(lp445
S'http://server.genobyte.us/ethan/weed_cover_images/flyTerra_2016_08_19/split/DSC00359_24.JPG'
p446
aI515
aI231
aa(lp447
S'http://server.genobyte.us/ethan/weed_cover_images/flyTerra_2016_08_19/split/DSC00353_23.JPG'
p448
aI153
aI413
aa(lp449
S'http://server.genobyte.us/ethan/weed_cover_images/flyTerra_2016_08_19/split/DSC00352_41.JPG'
p450
aI564
aI807
aa(lp451
S'http://server.genobyte.us/ethan/weed_cover_images/flyTerra_2016_08_19/split/DSC00324_24.JPG'
p452
aI737
aI222
aa(lp453
S'http://server.genobyte.us/ethan/weed_cover_images/flyTerra_2016_08_19/split/DSC00318_33.JPG'
p454
aI167
aI574
aa(lp455
S'http://server.genobyte.us/ethan/weed_cover_images/flyTerra_2016_08_19/split/DSC00324_21.JPG'
p456
aI443
aI672
aa(lp457
S'http://server.genobyte.us/ethan/weed_cover_images/flyTerra_2016_08_19/split/DSC00332_8.JPG'
p458
aI92
aI433
aa(lp459
S'http://server.genobyte.us/ethan/weed_cover_images/flyTerra_2016_08_19/split/DSC00330_41.JPG'
p460
aI670
aI449
aa(lp461
S'http://server.genobyte.us/ethan/weed_cover_images/flyTerra_2016_08_19/split/DSC00315_36.JPG'
p462
aI627
aI266
aa(lp463
S'http://server.genobyte.us/ethan/weed_cover_images/flyTerra_2016_08_19/split/DSC00331_1.JPG'
p464
aI909
aI825
aa(lp465
S'http://server.genobyte.us/ethan/weed_cover_images/goreLab_08_10_2016/flight_2/IMG_1359.JPG'
p466
aI3598
aI46
aa(lp467
S'http://server.genobyte.us/ethan/weed_cover_images/flyTerra_2016_08_19/split/DSC00322_45.JPG'
p468
aI297
aI590
aa(lp469
S'http://server.genobyte.us/ethan/weed_cover_images/flyTerra_2016_08_19/split/DSC00358_18.JPG'
p470
aI189
aI873
aa(lp471
S'http://server.genobyte.us/ethan/weed_cover_images/flyTerra_2016_08_19/split/DSC00348_17.JPG'
p472
aI799
aI290
aa(lp473
S'http://server.genobyte.us/ethan/weed_cover_images/flyTerra_2016_08_19/split/DSC00355_14.JPG'
p474
aI602
aI344
aa(lp475
S'http://server.genobyte.us/ethan/weed_cover_images/flyTerra_2016_08_19/split/DSC00333_45.JPG'
p476
aI462
aI865
aa(lp477
S'http://server.genobyte.us/ethan/weed_cover_images/flyTerra_2016_08_19/split/DSC00363_46.JPG'
p478
aI7
aI239
aa(lp479
S'http://server.genobyte.us/ethan/weed_cover_images/flyTerra_2016_08_19/split/DSC00344_29.JPG'
p480
aI85
aI193
aa(lp481
S'http://server.genobyte.us/ethan/weed_cover_images/flyTerra_2016_08_19/split/DSC00356_21.JPG'
p482
aI335
aI505
aa(lp483
S'http://server.genobyte.us/ethan/weed_cover_images/flyTerra_2016_08_19/split/DSC00349_16.JPG'
p484
aI696
aI594
aa(lp485
S'http://server.genobyte.us/ethan/weed_cover_images/flyTerra_2016_08_19/split/DSC00345_17.JPG'
p486
aI351
aI100
aa(lp487
S'http://server.genobyte.us/ethan/weed_cover_images/goreLab_08_09_2016/split/DSC05859_0.JPG'
p488
aI2052
aI776
aa(lp489
S'http://server.genobyte.us/ethan/weed_cover_images/flyTerra_2016_08_19/split/DSC00328_38.JPG'
p490
aI958
aI790
aa(lp491
S'http://server.genobyte.us/ethan/weed_cover_images/flyTerra_2016_08_19/split/DSC00317_46.JPG'
p492
aI123
aI555
aa(lp493
S'http://server.genobyte.us/ethan/weed_cover_images/flyTerra_2016_08_19/split/DSC00319_34.JPG'
p494
aI657
aI14
aa(lp495
S'http://server.genobyte.us/ethan/weed_cover_images/flyTerra_2016_08_19/split/DSC00333_15.JPG'
p496
aI275
aI297
aa(lp497
S'http://server.genobyte.us/ethan/weed_cover_images/flyTerra_2016_08_19/split/DSC00324_36.JPG'
p498
aI315
aI726
aa(lp499
S'http://server.genobyte.us/ethan/weed_cover_images/flyTerra_2016_08_19/split/DSC00355_35.JPG'
p500
aI392
aI783
aa(lp501
S'http://server.genobyte.us/ethan/weed_cover_images/flyTerra_2016_08_19/split/DSC00317_26.JPG'
p502
aI707
aI339
aa(lp503
S'http://server.genobyte.us/ethan/weed_cover_images/flyTerra_2016_08_19/split/DSC00330_30.JPG'
p504
aI421
aI711
aa(lp505
S'http://server.genobyte.us/ethan/weed_cover_images/goreLab_08_09_2016/split/DSC05991_1.JPG'
p506
aI1197
aI46
aa(lp507
S'http://server.genobyte.us/ethan/weed_cover_images/flyTerra_2016_08_19/split/DSC00328_39.JPG'
p508
aI934
aI58
aa(lp509
S'http://server.genobyte.us/ethan/weed_cover_images/flyTerra_2016_08_19/split/DSC00348_9.JPG'
p510
aI103
aI712
aa(lp511
S'http://server.genobyte.us/ethan/weed_cover_images/flyTerra_2016_08_19/split/DSC00355_16.JPG'
p512
aI462
aI569
aa(lp513
S'http://server.genobyte.us/ethan/weed_cover_images/flyTerra_2016_08_19/split/DSC00322_16.JPG'
p514
aI151
aI835
aa(lp515
S'http://server.genobyte.us/ethan/weed_cover_images/flyTerra_2016_08_19/split/DSC00325_43.JPG'
p516
aI974
aI436
aa(lp517
S'http://server.genobyte.us/ethan/weed_cover_images/flyTerra_2016_08_19/split/DSC00330_45.JPG'
p518
aI796
aI556
aa(lp519
S'http://server.genobyte.us/ethan/weed_cover_images/flyTerra_2016_08_19/split/DSC00351_31.JPG'
p520
aI442
aI42
aa(lp521
S'http://server.genobyte.us/ethan/weed_cover_images/flyTerra_2016_08_19/split/DSC00353_8.JPG'
p522
aI697
aI58
aa(lp523
S'http://server.genobyte.us/ethan/weed_cover_images/flyTerra_2016_08_19/split/DSC00351_33.JPG'
p524
aI818
aI47
aa(lp525
S'http://server.genobyte.us/ethan/weed_cover_images/flyTerra_2016_08_19/split/DSC00329_41.JPG'
p526
aI221
aI62
aa(lp527
S'http://server.genobyte.us/ethan/weed_cover_images/goreLab_08_09_2016/split/DSC05965_0.JPG'
p528
aI1754
aI45
aa(lp529
S'http://server.genobyte.us/ethan/weed_cover_images/flyTerra_2016_08_19/split/DSC00325_10.JPG'
p530
aI702
aI745
aa(lp531
S'http://server.genobyte.us/ethan/weed_cover_images/goreLab_08_09_2016/split/DSC05987_2.JPG'
p532
aI1974
aI190
aa(lp533
S'http://server.genobyte.us/ethan/weed_cover_images/flyTerra_2016_08_19/split/DSC00345_45.JPG'
p534
aI775
aI733
aa(lp535
S'http://server.genobyte.us/ethan/weed_cover_images/goreLab_08_09_2016/split/DSC05890_1.JPG'
p536
aI2537
aI1911
aa(lp537
S'http://server.genobyte.us/ethan/weed_cover_images/flyTerra_2016_08_19/split/DSC00358_24.JPG'
p538
aI744
aI354
aa(lp539
S'http://server.genobyte.us/ethan/weed_cover_images/flyTerra_2016_08_19/split/DSC00351_44.JPG'
p540
aI504
aI159
aa(lp541
S'http://server.genobyte.us/ethan/weed_cover_images/flyTerra_2016_08_19/split/DSC00322_42.JPG'
p542
aI210
aI754
aa(lp543
S'http://server.genobyte.us/ethan/weed_cover_images/flyTerra_2016_08_19/split/DSC00357_1.JPG'
p544
aI915
aI139
aa(lp545
S'http://server.genobyte.us/ethan/weed_cover_images/goreLab_08_10_2016/flight_1/split/IMG_2226_2.JPG'
p546
aI1469
aI982
aa(lp547
S'http://server.genobyte.us/ethan/weed_cover_images/flyTerra_2016_08_19/split/DSC00324_15.JPG'
p548
aI235
aI724
aa(lp549
S'http://server.genobyte.us/ethan/weed_cover_images/goreLab_08_10_2016/flight_2/IMG_1426.JPG'
p550
aI1162
aI544
aa(lp551
S'http://server.genobyte.us/ethan/weed_cover_images/flyTerra_2016_08_19/split/DSC00327_1.JPG'
p552
aI210
aI65
aa(lp553
S'http://server.genobyte.us/ethan/weed_cover_images/goreLab_08_09_2016/split/DSC05795_3.JPG'
p554
aI1548
aI640
aa(lp555
S'http://server.genobyte.us/ethan/weed_cover_images/goreLab_08_09_2016/split/DSC05863_0.JPG'
p556
aI426
aI1816
aa(lp557
S'http://server.genobyte.us/ethan/weed_cover_images/flyTerra_2016_08_19/split/DSC00323_18.JPG'
p558
aI1
aI849
aa(lp559
S'http://server.genobyte.us/ethan/weed_cover_images/flyTerra_2016_08_19/split/DSC00319_39.JPG'
p560
aI955
aI85
aa(lp561
S'http://server.genobyte.us/ethan/weed_cover_images/flyTerra_2016_08_19/split/DSC00331_3.JPG'
p562
aI822
aI824
aa(lp563
S'http://server.genobyte.us/ethan/weed_cover_images/flyTerra_2016_08_19/split/DSC00355_37.JPG'
p564
aI925
aI309
aa(lp565
S'http://server.genobyte.us/ethan/weed_cover_images/flyTerra_2016_08_19/split/DSC00348_19.JPG'
p566
aI346
aI682
aa(lp567
S'http://server.genobyte.us/ethan/weed_cover_images/flyTerra_2016_08_19/split/DSC00346_30.JPG'
p568
aI404
aI398
aa(lp569
S'http://server.genobyte.us/ethan/weed_cover_images/flyTerra_2016_08_19/split/DSC00363_21.JPG'
p570
aI132
aI451
aa(lp571
S'http://server.genobyte.us/ethan/weed_cover_images/goreLab_08_10_2016/flight_2/IMG_1348.JPG'
p572
aI1376
aI2439
aa(lp573
S'http://server.genobyte.us/ethan/weed_cover_images/flyTerra_2016_08_19/split/DSC00358_29.JPG'
p574
aI142
aI189
aa(lp575
S'http://server.genobyte.us/ethan/weed_cover_images/flyTerra_2016_08_19/split/DSC00345_26.JPG'
p576
aI520
aI148
aa(lp577
S'http://server.genobyte.us/ethan/weed_cover_images/flyTerra_2016_08_19/split/DSC00329_20.JPG'
p578
aI575
aI121
aa(lp579
S'http://server.genobyte.us/ethan/weed_cover_images/goreLab_08_10_2016/flight_2/IMG_1853.JPG'
p580
aI2371
aI1212
aa(lp581
S'http://server.genobyte.us/ethan/weed_cover_images/flyTerra_2016_08_19/split/DSC00348_0.JPG'
p582
aI515
aI216
aa(lp583
S'http://server.genobyte.us/ethan/weed_cover_images/flyTerra_2016_08_19/split/DSC00324_28.JPG'
p584
aI892
aI134
aa(lp585
S'http://server.genobyte.us/ethan/weed_cover_images/flyTerra_2016_08_19/split/DSC00327_45.JPG'
p586
aI753
aI310
aa(lp587
S'http://server.genobyte.us/ethan/weed_cover_images/flyTerra_2016_08_19/split/DSC00328_13.JPG'
p588
aI320
aI405
aa(lp589
S'http://server.genobyte.us/ethan/weed_cover_images/goreLab_08_10_2016/flight_1/split/IMG_2090_0.JPG'
p590
aI876
aI9
aa(lp591
S'http://server.genobyte.us/ethan/weed_cover_images/flyTerra_2016_08_19/split/DSC00362_28.JPG'
p592
aI549
aI250
aa(lp593
S'http://server.genobyte.us/ethan/weed_cover_images/flyTerra_2016_08_19/split/DSC00360_47.JPG'
p594
aI83
aI17
aa(lp595
S'http://server.genobyte.us/ethan/weed_cover_images/flyTerra_2016_08_19/split/DSC00347_7.JPG'
p596
aI553
aI281
aa(lp597
S'http://server.genobyte.us/ethan/weed_cover_images/goreLab_08_09_2016/split/DSC05791_1.JPG'
p598
aI2672
aI498
aa(lp599
S'http://server.genobyte.us/ethan/weed_cover_images/flyTerra_2016_08_19/split/DSC00317_15.JPG'
p600
aI351
aI449
aa(lp601
S'http://server.genobyte.us/ethan/weed_cover_images/goreLab_08_10_2016/flight_2/IMG_1442.JPG'
p602
aI770
aI1419
aa(lp603
S'http://server.genobyte.us/ethan/weed_cover_images/goreLab_08_09_2016/split/DSC05989_2.JPG'
p604
aI792
aI565
aa(lp605
S'http://server.genobyte.us/ethan/weed_cover_images/flyTerra_2016_08_19/split/DSC00321_35.JPG'
p606
aI790
aI382
aa(lp607
S'http://server.genobyte.us/ethan/weed_cover_images/goreLab_08_09_2016/split/DSC05890_3.JPG'
p608
aI1800
aI1268
aa(lp609
S'http://server.genobyte.us/ethan/weed_cover_images/flyTerra_2016_08_19/split/DSC00348_33.JPG'
p610
aI858
aI494
aa(lp611
S'http://server.genobyte.us/ethan/weed_cover_images/flyTerra_2016_08_19/split/DSC00351_25.JPG'
p612
aI446
aI718
aa(lp613
S'http://server.genobyte.us/ethan/weed_cover_images/flyTerra_2016_08_19/split/DSC00330_22.JPG'
p614
aI735
aI282
aa(lp615
S'http://server.genobyte.us/ethan/weed_cover_images/flyTerra_2016_08_19/split/DSC00347_15.JPG'
p616
aI713
aI368
aa(lp617
S'http://server.genobyte.us/ethan/weed_cover_images/flyTerra_2016_08_19/split/DSC00321_25.JPG'
p618
aI261
aI400
aa(lp619
S'http://server.genobyte.us/ethan/weed_cover_images/flyTerra_2016_08_19/split/DSC00316_32.JPG'
p620
aI749
aI138
aa(lp621
S'http://server.genobyte.us/ethan/weed_cover_images/flyTerra_2016_08_19/split/DSC00347_29.JPG'
p622
aI388
aI758
aa(lp623
S'http://server.genobyte.us/ethan/weed_cover_images/goreLab_08_09_2016/split/DSC05963_0.JPG'
p624
aI1092
aI718
aa(lp625
S'http://server.genobyte.us/ethan/weed_cover_images/flyTerra_2016_08_19/split/DSC00315_40.JPG'
p626
aI176
aI150
aa(lp627
S'http://server.genobyte.us/ethan/weed_cover_images/flyTerra_2016_08_19/split/DSC00347_25.JPG'
p628
aI458
aI252
aa(lp629
S'http://server.genobyte.us/ethan/weed_cover_images/flyTerra_2016_08_19/split/DSC00316_33.JPG'
p630
aI610
aI83
aa(lp631
S'http://server.genobyte.us/ethan/weed_cover_images/flyTerra_2016_08_19/split/DSC00325_3.JPG'
p632
aI810
aI435
aa(lp633
S'http://server.genobyte.us/ethan/weed_cover_images/flyTerra_2016_08_19/split/DSC00329_3.JPG'
p634
aI531
aI284
aa(lp635
S'http://server.genobyte.us/ethan/weed_cover_images/flyTerra_2016_08_19/split/DSC00353_41.JPG'
p636
aI385
aI661
aa(lp637
S'http://server.genobyte.us/ethan/weed_cover_images/flyTerra_2016_08_19/split/DSC00327_47.JPG'
p638
aI303
aI212
aa(lp639
S'http://server.genobyte.us/ethan/weed_cover_images/flyTerra_2016_08_19/split/DSC00326_39.JPG'
p640
aI499
aI204
aa(lp641
S'http://server.genobyte.us/ethan/weed_cover_images/goreLab_08_09_2016/split/DSC05902_1.JPG'
p642
aI623
aI32
aa(lp643
S'http://server.genobyte.us/ethan/weed_cover_images/flyTerra_2016_08_19/split/DSC00330_4.JPG'
p644
aI124
aI30
aa(lp645
S'http://server.genobyte.us/ethan/weed_cover_images/flyTerra_2016_08_19/split/DSC00321_10.JPG'
p646
aI239
aI269
aa(lp647
S'http://server.genobyte.us/ethan/weed_cover_images/flyTerra_2016_08_19/split/DSC00360_37.JPG'
p648
aI797
aI504
aa(lp649
S'http://server.genobyte.us/ethan/weed_cover_images/goreLab_08_09_2016/split/DSC05889_2.JPG'
p650
aI1257
aI243
aa(lp651
S'http://server.genobyte.us/ethan/weed_cover_images/flyTerra_2016_08_19/split/DSC00324_44.JPG'
p652
aI673
aI519
aa(lp653
S'http://server.genobyte.us/ethan/weed_cover_images/flyTerra_2016_08_19/split/DSC00345_32.JPG'
p654
aI459
aI512
aa(lp655
S'http://server.genobyte.us/ethan/weed_cover_images/flyTerra_2016_08_19/split/DSC00324_22.JPG'
p656
aI16
aI405
aa(lp657
S'http://server.genobyte.us/ethan/weed_cover_images/flyTerra_2016_08_19/split/DSC00322_29.JPG'
p658
aI841
aI879
aa(lp659
S'http://server.genobyte.us/ethan/weed_cover_images/goreLab_08_09_2016/split/DSC05994_2.JPG'
p660
aI1106
aI428
aa(lp661
S'http://server.genobyte.us/ethan/weed_cover_images/flyTerra_2016_08_19/split/DSC00315_46.JPG'
p662
aI21
aI517
aa(lp663
S'http://server.genobyte.us/ethan/weed_cover_images/flyTerra_2016_08_19/split/DSC00346_38.JPG'
p664
aI107
aI342
aa(lp665
S'http://server.genobyte.us/ethan/weed_cover_images/flyTerra_2016_08_19/split/DSC00330_12.JPG'
p666
aI569
aI292
aa(lp667
S'http://server.genobyte.us/ethan/weed_cover_images/goreLab_08_09_2016/split/DSC05856_0.JPG'
p668
aI738
aI1337
aa(lp669
S'http://server.genobyte.us/ethan/weed_cover_images/flyTerra_2016_08_19/split/DSC00326_23.JPG'
p670
aI471
aI452
aa(lp671
S'http://server.genobyte.us/ethan/weed_cover_images/flyTerra_2016_08_19/split/DSC00329_1.JPG'
p672
aI756
aI286
aa(lp673
S'http://server.genobyte.us/ethan/weed_cover_images/flyTerra_2016_08_19/split/DSC00354_31.JPG'
p674
aI298
aI208
aa(lp675
S'http://server.genobyte.us/ethan/weed_cover_images/flyTerra_2016_08_19/split/DSC00319_7.JPG'
p676
aI208
aI611
aa(lp677
S'http://server.genobyte.us/ethan/weed_cover_images/goreLab_08_10_2016/flight_1/split/IMG_2210_3.JPG'
p678
aI1207
aI1041
aa(lp679
S'http://server.genobyte.us/ethan/weed_cover_images/flyTerra_2016_08_19/split/DSC00362_43.JPG'
p680
aI699
aI185
aa(lp681
S'http://server.genobyte.us/ethan/weed_cover_images/goreLab_08_09_2016/split/DSC05961_3.JPG'
p682
aI2811
aI169
aa(lp683
S'http://server.genobyte.us/ethan/weed_cover_images/flyTerra_2016_08_19/split/DSC00333_5.JPG'
p684
aI285
aI379
aa(lp685
S'http://server.genobyte.us/ethan/weed_cover_images/flyTerra_2016_08_19/split/DSC00332_39.JPG'
p686
aI293
aI387
aa(lp687
S'http://server.genobyte.us/ethan/weed_cover_images/flyTerra_2016_08_19/split/DSC00354_0.JPG'
p688
aI972
aI495
aa(lp689
S'http://server.genobyte.us/ethan/weed_cover_images/flyTerra_2016_08_19/split/DSC00352_2.JPG'
p690
aI395
aI639
aa(lp691
S'http://server.genobyte.us/ethan/weed_cover_images/flyTerra_2016_08_19/split/DSC00331_19.JPG'
p692
aI390
aI572
aa(lp693
S'http://server.genobyte.us/ethan/weed_cover_images/goreLab_08_09_2016/split/DSC05784_1.JPG'
p694
aI603
aI164
aa(lp695
S'http://server.genobyte.us/ethan/weed_cover_images/flyTerra_2016_08_19/split/DSC00327_44.JPG'
p696
aI286
aI79
aa(lp697
S'http://server.genobyte.us/ethan/weed_cover_images/flyTerra_2016_08_19/split/DSC00352_6.JPG'
p698
aI659
aI132
aa(lp699
S'http://server.genobyte.us/ethan/weed_cover_images/goreLab_08_09_2016/split/DSC05960_0.JPG'
p700
aI976
aI496
aa(lp701
S'http://server.genobyte.us/ethan/weed_cover_images/flyTerra_2016_08_19/split/DSC00346_34.JPG'
p702
aI957
aI639
aa(lp703
S'http://server.genobyte.us/ethan/weed_cover_images/flyTerra_2016_08_19/split/DSC00333_47.JPG'
p704
aI65
aI305
aa(lp705
S'http://server.genobyte.us/ethan/weed_cover_images/flyTerra_2016_08_19/split/DSC00345_28.JPG'
p706
aI655
aI858
aa(lp707
S'http://server.genobyte.us/ethan/weed_cover_images/flyTerra_2016_08_19/split/DSC00330_36.JPG'
p708
aI622
aI442
aa(lp709
S'http://server.genobyte.us/ethan/weed_cover_images/flyTerra_2016_08_19/split/DSC00325_5.JPG'
p710
aI654
aI645
aa(lp711
S'http://server.genobyte.us/ethan/weed_cover_images/goreLab_08_10_2016/flight_1/split/IMG_2083_1.JPG'
p712
aI692
aI1452
aa(lp713
S'http://server.genobyte.us/ethan/weed_cover_images/goreLab_08_10_2016/flight_1/split/IMG_2188_3.JPG'
p714
aI427
aI259
aa(lp715
S'http://server.genobyte.us/ethan/weed_cover_images/flyTerra_2016_08_19/split/DSC00359_2.JPG'
p716
aI943
aI591
aa(lp717
S'http://server.genobyte.us/ethan/weed_cover_images/flyTerra_2016_08_19/split/DSC00348_29.JPG'
p718
aI408
aI667
aa(lp719
S'http://server.genobyte.us/ethan/weed_cover_images/flyTerra_2016_08_19/split/DSC00319_11.JPG'
p720
aI225
aI311
aa(lp721
S'http://server.genobyte.us/ethan/weed_cover_images/flyTerra_2016_08_19/split/DSC00349_22.JPG'
p722
aI248
aI851
aa(lp723
S'http://server.genobyte.us/ethan/weed_cover_images/flyTerra_2016_08_19/split/DSC00353_9.JPG'
p724
aI879
aI248
aa(lp725
S'http://server.genobyte.us/ethan/weed_cover_images/goreLab_08_09_2016/split/DSC05861_3.JPG'
p726
aI1127
aI747
aa(lp727
S'http://server.genobyte.us/ethan/weed_cover_images/goreLab_08_09_2016/split/DSC05791_0.JPG'
p728
aI882
aI1138
aa(lp729
S'http://server.genobyte.us/ethan/weed_cover_images/flyTerra_2016_08_19/split/DSC00333_33.JPG'
p730
aI972
aI324
aa(lp731
S'http://server.genobyte.us/ethan/weed_cover_images/flyTerra_2016_08_19/split/DSC00354_15.JPG'
p732
aI575
aI243
aa(lp733
S'http://server.genobyte.us/ethan/weed_cover_images/goreLab_08_09_2016/split/DSC05895_1.JPG'
p734
aI1159
aI267
aa(lp735
S'http://server.genobyte.us/ethan/weed_cover_images/flyTerra_2016_08_19/split/DSC00329_36.JPG'
p736
aI822
aI727
aa(lp737
S'http://server.genobyte.us/ethan/weed_cover_images/flyTerra_2016_08_19/split/DSC00321_3.JPG'
p738
aI102
aI425
aa(lp739
S'http://server.genobyte.us/ethan/weed_cover_images/goreLab_08_10_2016/flight_2/IMG_1398.JPG'
p740
aI794
aI192
aa(lp741
S'http://server.genobyte.us/ethan/weed_cover_images/flyTerra_2016_08_19/split/DSC00351_10.JPG'
p742
aI816
aI296
aa(lp743
S'http://server.genobyte.us/ethan/weed_cover_images/goreLab_08_09_2016/split/DSC05961_2.JPG'
p744
aI882
aI1554
aa(lp745
S'http://server.genobyte.us/ethan/weed_cover_images/flyTerra_2016_08_19/split/DSC00320_2.JPG'
p746
aI79
aI845
aa(lp747
S'http://server.genobyte.us/ethan/weed_cover_images/goreLab_08_10_2016/flight_1/split/IMG_2232_1.JPG'
p748
aI664
aI364
aa(lp749
S'http://server.genobyte.us/ethan/weed_cover_images/flyTerra_2016_08_19/split/DSC00328_4.JPG'
p750
aI382
aI858
aa(lp751
S'http://server.genobyte.us/ethan/weed_cover_images/flyTerra_2016_08_19/split/DSC00351_5.JPG'
p752
aI495
aI428
aa(lp753
S'http://server.genobyte.us/ethan/weed_cover_images/flyTerra_2016_08_19/split/DSC00345_20.JPG'
p754
aI387
aI77
aa(lp755
S'http://server.genobyte.us/ethan/weed_cover_images/flyTerra_2016_08_19/split/DSC00325_39.JPG'
p756
aI235
aI437
aa(lp757
S'http://server.genobyte.us/ethan/weed_cover_images/flyTerra_2016_08_19/split/DSC00321_45.JPG'
p758
aI667
aI464
aa(lp759
S'http://server.genobyte.us/ethan/weed_cover_images/goreLab_08_10_2016/flight_2/IMG_1864.JPG'
p760
aI2463
aI776
aa(lp761
S'http://server.genobyte.us/ethan/weed_cover_images/goreLab_08_09_2016/split/DSC05989_0.JPG'
p762
aI1176
aI6
aa(lp763
S'http://server.genobyte.us/ethan/weed_cover_images/flyTerra_2016_08_19/split/DSC00318_0.JPG'
p764
aI357
aI799
aa(lp765
S'http://server.genobyte.us/ethan/weed_cover_images/flyTerra_2016_08_19/split/DSC00357_4.JPG'
p766
aI548
aI109
aa(lp767
S'http://server.genobyte.us/ethan/weed_cover_images/flyTerra_2016_08_19/split/DSC00317_29.JPG'
p768
aI406
aI844
aa(lp769
S'http://server.genobyte.us/ethan/weed_cover_images/flyTerra_2016_08_19/split/DSC00318_30.JPG'
p770
aI712
aI383
aa(lp771
S'http://server.genobyte.us/ethan/weed_cover_images/flyTerra_2016_08_19/split/DSC00332_3.JPG'
p772
aI351
aI654
aa(lp773
S'http://server.genobyte.us/ethan/weed_cover_images/flyTerra_2016_08_19/split/DSC00321_38.JPG'
p774
aI911
aI112
aa(lp775
S'http://server.genobyte.us/ethan/weed_cover_images/flyTerra_2016_08_19/split/DSC00326_20.JPG'
p776
aI610
aI493
aa(lp777
S'http://server.genobyte.us/ethan/weed_cover_images/flyTerra_2016_08_19/split/DSC00320_40.JPG'
p778
aI604
aI576
aa(lp779
S'http://server.genobyte.us/ethan/weed_cover_images/flyTerra_2016_08_19/split/DSC00361_44.JPG'
p780
aI519
aI700
aa(lp781
S'http://server.genobyte.us/ethan/weed_cover_images/flyTerra_2016_08_19/split/DSC00356_3.JPG'
p782
aI229
aI406
aa(lp783
S'http://server.genobyte.us/ethan/weed_cover_images/flyTerra_2016_08_19/split/DSC00323_9.JPG'
p784
aI360
aI624
aa(lp785
S'http://server.genobyte.us/ethan/weed_cover_images/goreLab_08_09_2016/split/DSC05987_0.JPG'
p786
aI2223
aI1677
aa(lp787
S'http://server.genobyte.us/ethan/weed_cover_images/flyTerra_2016_08_19/split/DSC00353_5.JPG'
p788
aI219
aI385
aa(lp789
S'http://server.genobyte.us/ethan/weed_cover_images/flyTerra_2016_08_19/split/DSC00363_14.JPG'
p790
aI781
aI504
aa(lp791
S'http://server.genobyte.us/ethan/weed_cover_images/flyTerra_2016_08_19/split/DSC00362_25.JPG'
p792
aI609
aI802
aa(lp793
S'http://server.genobyte.us/ethan/weed_cover_images/flyTerra_2016_08_19/split/DSC00359_7.JPG'
p794
aI151
aI832
aa(lp795
S'http://server.genobyte.us/ethan/weed_cover_images/flyTerra_2016_08_19/split/DSC00315_4.JPG'
p796
aI577
aI514
aa(lp797
S'http://server.genobyte.us/ethan/weed_cover_images/flyTerra_2016_08_19/split/DSC00318_4.JPG'
p798
aI694
aI291
aa(lp799
S'http://server.genobyte.us/ethan/weed_cover_images/flyTerra_2016_08_19/split/DSC00350_7.JPG'
p800
aI763
aI181
aa(lp801
S'http://server.genobyte.us/ethan/weed_cover_images/flyTerra_2016_08_19/split/DSC00323_19.JPG'
p802
aI971
aI481
aa(lp803
S'http://server.genobyte.us/ethan/weed_cover_images/goreLab_08_09_2016/split/DSC05957_3.JPG'
p804
aI898
aI1859
aa(lp805
S'http://server.genobyte.us/ethan/weed_cover_images/flyTerra_2016_08_19/split/DSC00355_13.JPG'
p806
aI584
aI468
aa(lp807
S'http://server.genobyte.us/ethan/weed_cover_images/goreLab_08_09_2016/split/DSC05892_1.JPG'
p808
aI1685
aI1640
aa(lp809
S'http://server.genobyte.us/ethan/weed_cover_images/flyTerra_2016_08_19/split/DSC00326_12.JPG'
p810
aI567
aI276
aa(lp811
S'http://server.genobyte.us/ethan/weed_cover_images/flyTerra_2016_08_19/split/DSC00360_3.JPG'
p812
aI983
aI475
aa(lp813
S'http://server.genobyte.us/ethan/weed_cover_images/flyTerra_2016_08_19/split/DSC00358_33.JPG'
p814
aI860
aI850
aa(lp815
S'http://server.genobyte.us/ethan/weed_cover_images/flyTerra_2016_08_19/split/DSC00348_47.JPG'
p816
aI681
aI173
aa(lp817
S'http://server.genobyte.us/ethan/weed_cover_images/flyTerra_2016_08_19/split/DSC00316_2.JPG'
p818
aI289
aI867
aa(lp819
S'http://server.genobyte.us/ethan/weed_cover_images/flyTerra_2016_08_19/split/DSC00331_10.JPG'
p820
aI35
aI450
aa(lp821
S'http://server.genobyte.us/ethan/weed_cover_images/flyTerra_2016_08_19/split/DSC00330_37.JPG'
p822
aI310
aI560
aa(lp823
S'http://server.genobyte.us/ethan/weed_cover_images/flyTerra_2016_08_19/split/DSC00322_10.JPG'
p824
aI677
aI337
aa(lp825
S'http://server.genobyte.us/ethan/weed_cover_images/flyTerra_2016_08_19/split/DSC00318_22.JPG'
p826
aI726
aI690
aa(lp827
S'http://server.genobyte.us/ethan/weed_cover_images/flyTerra_2016_08_19/split/DSC00354_37.JPG'
p828
aI366
aI209
aa(lp829
S'http://server.genobyte.us/ethan/weed_cover_images/goreLab_08_10_2016/flight_1/split/IMG_2233_0.JPG'
p830
aI236
aI934
aa(lp831
S'http://server.genobyte.us/ethan/weed_cover_images/flyTerra_2016_08_19/split/DSC00318_43.JPG'
p832
aI265
aI679
aa(lp833
S'http://server.genobyte.us/ethan/weed_cover_images/flyTerra_2016_08_19/split/DSC00350_40.JPG'
p834
aI612
aI346
aa(lp835
S'http://server.genobyte.us/ethan/weed_cover_images/flyTerra_2016_08_19/split/DSC00362_40.JPG'
p836
aI509
aI544
aa(lp837
S'http://server.genobyte.us/ethan/weed_cover_images/flyTerra_2016_08_19/split/DSC00320_12.JPG'
p838
aI44
aI477
aa(lp839
S'http://server.genobyte.us/ethan/weed_cover_images/flyTerra_2016_08_19/split/DSC00333_12.JPG'
p840
aI668
aI676
aa(lp841
S'http://server.genobyte.us/ethan/weed_cover_images/flyTerra_2016_08_19/split/DSC00359_13.JPG'
p842
aI450
aI704
aa(lp843
S'http://server.genobyte.us/ethan/weed_cover_images/flyTerra_2016_08_19/split/DSC00321_17.JPG'
p844
aI776
aI712
aa(lp845
S'http://server.genobyte.us/ethan/weed_cover_images/flyTerra_2016_08_19/split/DSC00361_8.JPG'
p846
aI665
aI791
aa(lp847
S'http://server.genobyte.us/ethan/weed_cover_images/flyTerra_2016_08_19/split/DSC00352_44.JPG'
p848
aI397
aI75
aa(lp849
S'http://server.genobyte.us/ethan/weed_cover_images/flyTerra_2016_08_19/split/DSC00349_13.JPG'
p850
aI335
aI702
aa(lp851
S'http://server.genobyte.us/ethan/weed_cover_images/flyTerra_2016_08_19/split/DSC00319_33.JPG'
p852
aI553
aI2
aa(lp853
S'http://server.genobyte.us/ethan/weed_cover_images/flyTerra_2016_08_19/split/DSC00347_31.JPG'
p854
aI576
aI219
aa(lp855
S'http://server.genobyte.us/ethan/weed_cover_images/flyTerra_2016_08_19/split/DSC00356_40.JPG'
p856
aI641
aI254
aa(lp857
S'http://server.genobyte.us/ethan/weed_cover_images/flyTerra_2016_08_19/split/DSC00360_27.JPG'
p858
aI985
aI30
aa(lp859
S'http://server.genobyte.us/ethan/weed_cover_images/flyTerra_2016_08_19/split/DSC00328_29.JPG'
p860
aI157
aI839
aa(lp861
S'http://server.genobyte.us/ethan/weed_cover_images/flyTerra_2016_08_19/split/DSC00360_38.JPG'
p862
aI578
aI644
aa(lp863
S'http://server.genobyte.us/ethan/weed_cover_images/flyTerra_2016_08_19/split/DSC00333_18.JPG'
p864
aI76
aI330
aa(lp865
S'http://server.genobyte.us/ethan/weed_cover_images/goreLab_08_10_2016/flight_2/IMG_1345.JPG'
p866
aI3378
aI608
aa(lp867
S'http://server.genobyte.us/ethan/weed_cover_images/flyTerra_2016_08_19/split/DSC00316_38.JPG'
p868
aI609
aI748
aa(lp869
S'http://server.genobyte.us/ethan/weed_cover_images/flyTerra_2016_08_19/split/DSC00347_35.JPG'
p870
aI549
aI714
aa(lp871
S'http://server.genobyte.us/ethan/weed_cover_images/flyTerra_2016_08_19/split/DSC00328_20.JPG'
p872
aI949
aI434
aa(lp873
S'http://server.genobyte.us/ethan/weed_cover_images/goreLab_08_09_2016/split/DSC05787_2.JPG'
p874
aI328
aI1070
aa(lp875
S'http://server.genobyte.us/ethan/weed_cover_images/flyTerra_2016_08_19/split/DSC00363_38.JPG'
p876
aI239
aI793
aa(lp877
S'http://server.genobyte.us/ethan/weed_cover_images/flyTerra_2016_08_19/split/DSC00328_30.JPG'
p878
aI266
aI316
aa(lp879
S'http://server.genobyte.us/ethan/weed_cover_images/flyTerra_2016_08_19/split/DSC00354_8.JPG'
p880
aI910
aI776
aa(lp881
S'http://server.genobyte.us/ethan/weed_cover_images/flyTerra_2016_08_19/split/DSC00356_34.JPG'
p882
aI646
aI515
aa(lp883
S'http://server.genobyte.us/ethan/weed_cover_images/flyTerra_2016_08_19/split/DSC00358_22.JPG'
p884
aI576
aI298
aa(lp885
S'http://server.genobyte.us/ethan/weed_cover_images/flyTerra_2016_08_19/split/DSC00348_26.JPG'
p886
aI298
aI726
aa(lp887
S'http://server.genobyte.us/ethan/weed_cover_images/flyTerra_2016_08_19/split/DSC00358_27.JPG'
p888
aI515
aI531
aa(lp889
S'http://server.genobyte.us/ethan/weed_cover_images/flyTerra_2016_08_19/split/DSC00357_3.JPG'
p890
aI118
aI352
aa(lp891
S'http://server.genobyte.us/ethan/weed_cover_images/flyTerra_2016_08_19/split/DSC00347_44.JPG'
p892
aI942
aI138
aa(lp893
S'http://server.genobyte.us/ethan/weed_cover_images/flyTerra_2016_08_19/split/DSC00347_34.JPG'
p894
aI586
aI817
aa(lp895
S'http://server.genobyte.us/ethan/weed_cover_images/flyTerra_2016_08_19/split/DSC00332_24.JPG'
p896
aI585
aI33
aa(lp897
S'http://server.genobyte.us/ethan/weed_cover_images/flyTerra_2016_08_19/split/DSC00355_45.JPG'
p898
aI533
aI262
aa(lp899
S'http://server.genobyte.us/ethan/weed_cover_images/flyTerra_2016_08_19/split/DSC00327_23.JPG'
p900
aI160
aI436
aa(lp901
S'http://server.genobyte.us/ethan/weed_cover_images/flyTerra_2016_08_19/split/DSC00330_28.JPG'
p902
aI931
aI677
aa(lp903
S'http://server.genobyte.us/ethan/weed_cover_images/flyTerra_2016_08_19/split/DSC00353_22.JPG'
p904
aI611
aI389
aa(lp905
S'http://server.genobyte.us/ethan/weed_cover_images/flyTerra_2016_08_19/split/DSC00360_34.JPG'
p906
aI634
aI21
aa(lp907
S'http://server.genobyte.us/ethan/weed_cover_images/flyTerra_2016_08_19/split/DSC00324_34.JPG'
p908
aI94
aI715
aa(lp909
S'http://server.genobyte.us/ethan/weed_cover_images/goreLab_08_09_2016/split/DSC05855_0.JPG'
p910
aI1841
aI1773
aa(lp911
S'http://server.genobyte.us/ethan/weed_cover_images/flyTerra_2016_08_19/split/DSC00332_41.JPG'
p912
aI906
aI237
aa(lp913
S'http://server.genobyte.us/ethan/weed_cover_images/goreLab_08_09_2016/split/DSC05863_2.JPG'
p914
aI1080
aI248
aa(lp915
S'http://server.genobyte.us/ethan/weed_cover_images/flyTerra_2016_08_19/split/DSC00359_16.JPG'
p916
aI385
aI835
aa(lp917
S'http://server.genobyte.us/ethan/weed_cover_images/flyTerra_2016_08_19/split/DSC00331_23.JPG'
p918
aI840
aI458
aa(lp919
S'http://server.genobyte.us/ethan/weed_cover_images/flyTerra_2016_08_19/split/DSC00317_20.JPG'
p920
aI440
aI86
aa(lp921
S'http://server.genobyte.us/ethan/weed_cover_images/goreLab_08_09_2016/split/DSC05786_2.JPG'
p922
aI1371
aI780
aa(lp923
S'http://server.genobyte.us/ethan/weed_cover_images/goreLab_08_09_2016/split/DSC05892_3.JPG'
p924
aI2755
aI1209
aa(lp925
S'http://server.genobyte.us/ethan/weed_cover_images/flyTerra_2016_08_19/split/DSC00318_38.JPG'
p926
aI785
aI361
aa(lp927
S'http://server.genobyte.us/ethan/weed_cover_images/flyTerra_2016_08_19/split/DSC00322_46.JPG'
p928
aI795
aI65
aa(lp929
S'http://server.genobyte.us/ethan/weed_cover_images/flyTerra_2016_08_19/split/DSC00349_39.JPG'
p930
aI46
aI776
aa(lp931
S'http://server.genobyte.us/ethan/weed_cover_images/flyTerra_2016_08_19/split/DSC00323_29.JPG'
p932
aI678
aI825
aa(lp933
S'http://server.genobyte.us/ethan/weed_cover_images/flyTerra_2016_08_19/split/DSC00355_3.JPG'
p934
aI110
aI763
aa(lp935
S'http://server.genobyte.us/ethan/weed_cover_images/goreLab_08_09_2016/split/DSC05957_1.JPG'
p936
aI518
aI1699
aa(lp937
S'http://server.genobyte.us/ethan/weed_cover_images/flyTerra_2016_08_19/split/DSC00324_8.JPG'
p938
aI261
aI769
aa(lp939
S'http://server.genobyte.us/ethan/weed_cover_images/flyTerra_2016_08_19/split/DSC00332_30.JPG'
p940
aI384
aI308
aa(lp941
S'http://server.genobyte.us/ethan/weed_cover_images/flyTerra_2016_08_19/split/DSC00345_37.JPG'
p942
aI326
aI486
aa(lp943
S'http://server.genobyte.us/ethan/weed_cover_images/flyTerra_2016_08_19/split/DSC00318_28.JPG'
p944
aI738
aI255
aa(lp945
S'http://server.genobyte.us/ethan/weed_cover_images/flyTerra_2016_08_19/split/DSC00327_11.JPG'
p946
aI559
aI617
aa(lp947
S'http://server.genobyte.us/ethan/weed_cover_images/flyTerra_2016_08_19/split/DSC00332_17.JPG'
p948
aI411
aI649
aa(lp949
S'http://server.genobyte.us/ethan/weed_cover_images/flyTerra_2016_08_19/split/DSC00316_14.JPG'
p950
aI565
aI854
aa(lp951
S'http://server.genobyte.us/ethan/weed_cover_images/flyTerra_2016_08_19/split/DSC00329_45.JPG'
p952
aI663
aI128
aa(lp953
S'http://server.genobyte.us/ethan/weed_cover_images/flyTerra_2016_08_19/split/DSC00332_25.JPG'
p954
aI457
aI191
aa(lp955
S'http://server.genobyte.us/ethan/weed_cover_images/flyTerra_2016_08_19/split/DSC00351_40.JPG'
p956
aI90
aI731
aa(lp957
S'http://server.genobyte.us/ethan/weed_cover_images/goreLab_08_09_2016/split/DSC05793_2.JPG'
p958
aI504
aI1443
aa(lp959
S'http://server.genobyte.us/ethan/weed_cover_images/flyTerra_2016_08_19/split/DSC00355_43.JPG'
p960
aI656
aI290
aa(lp961
S'http://server.genobyte.us/ethan/weed_cover_images/flyTerra_2016_08_19/split/DSC00345_22.JPG'
p962
aI956
aI170
aa(lp963
S'http://server.genobyte.us/ethan/weed_cover_images/flyTerra_2016_08_19/split/DSC00349_34.JPG'
p964
aI462
aI513
aa(lp965
S'http://server.genobyte.us/ethan/weed_cover_images/flyTerra_2016_08_19/split/DSC00327_5.JPG'
p966
aI332
aI851
aa(lp967
S'http://server.genobyte.us/ethan/weed_cover_images/flyTerra_2016_08_19/split/DSC00357_26.JPG'
p968
aI932
aI227
aa(lp969
S'http://server.genobyte.us/ethan/weed_cover_images/flyTerra_2016_08_19/split/DSC00320_3.JPG'
p970
aI625
aI703
aa(lp971
S'http://server.genobyte.us/ethan/weed_cover_images/goreLab_08_09_2016/split/DSC05860_0.JPG'
p972
aI800
aI1278
aa(lp973
S'http://server.genobyte.us/ethan/weed_cover_images/flyTerra_2016_08_19/split/DSC00347_39.JPG'
p974
aI528
aI456
aa(lp975
S'http://server.genobyte.us/ethan/weed_cover_images/goreLab_08_09_2016/split/DSC05864_2.JPG'
p976
aI2210
aI499
aa(lp977
S'http://server.genobyte.us/ethan/weed_cover_images/flyTerra_2016_08_19/split/DSC00347_17.JPG'
p978
aI883
aI252
aa(lp979
S'http://server.genobyte.us/ethan/weed_cover_images/flyTerra_2016_08_19/split/DSC00348_23.JPG'
p980
aI501
aI493
aa(lp981
S'http://server.genobyte.us/ethan/weed_cover_images/flyTerra_2016_08_19/split/DSC00356_36.JPG'
p982
aI518
aI495
aa(lp983
S'http://server.genobyte.us/ethan/weed_cover_images/flyTerra_2016_08_19/split/DSC00323_10.JPG'
p984
aI79
aI463
aa(lp985
S'http://server.genobyte.us/ethan/weed_cover_images/flyTerra_2016_08_19/split/DSC00325_22.JPG'
p986
aI531
aI634
aa(lp987
S'http://server.genobyte.us/ethan/weed_cover_images/goreLab_08_09_2016/split/DSC05993_0.JPG'
p988
aI2387
aI832
aa(lp989
S'http://server.genobyte.us/ethan/weed_cover_images/goreLab_08_10_2016/flight_1/split/IMG_2188_2.JPG'
p990
aI274
aI491
aa(lp991
S'http://server.genobyte.us/ethan/weed_cover_images/goreLab_08_09_2016/split/DSC05994_3.JPG'
p992
aI1506
aI1298
aa(lp993
S'http://server.genobyte.us/ethan/weed_cover_images/flyTerra_2016_08_19/split/DSC00322_22.JPG'
p994
aI778
aI240
aa(lp995
S'http://server.genobyte.us/ethan/weed_cover_images/flyTerra_2016_08_19/split/DSC00347_11.JPG'
p996
aI277
aI490
aa(lp997
S'http://server.genobyte.us/ethan/weed_cover_images/flyTerra_2016_08_19/split/DSC00358_1.JPG'
p998
aI689
aI637
aa(lp999
S'http://server.genobyte.us/ethan/weed_cover_images/flyTerra_2016_08_19/split/DSC00344_27.JPG'
p1000
aI13
aI482
aa(lp1001
S'http://server.genobyte.us/ethan/weed_cover_images/flyTerra_2016_08_19/split/DSC00350_1.JPG'
p1002
aI13
aI378
aa(lp1003
S'http://server.genobyte.us/ethan/weed_cover_images/flyTerra_2016_08_19/split/DSC00319_36.JPG'
p1004
aI584
aI534
aa(lp1005
S'http://server.genobyte.us/ethan/weed_cover_images/flyTerra_2016_08_19/split/DSC00323_11.JPG'
p1006
aI501
aI152
aa(lp1007
S'http://server.genobyte.us/ethan/weed_cover_images/flyTerra_2016_08_19/split/DSC00319_45.JPG'
p1008
aI607
aI347
aa(lp1009
S'http://server.genobyte.us/ethan/weed_cover_images/flyTerra_2016_08_19/split/DSC00344_4.JPG'
p1010
aI497
aI20
aa(lp1011
S'http://server.genobyte.us/ethan/weed_cover_images/flyTerra_2016_08_19/split/DSC00352_46.JPG'
p1012
aI91
aI158
aa(lp1013
S'http://server.genobyte.us/ethan/weed_cover_images/flyTerra_2016_08_19/split/DSC00357_42.JPG'
p1014
aI202
aI180
aa(lp1015
S'http://server.genobyte.us/ethan/weed_cover_images/goreLab_08_09_2016/split/DSC05783_3.JPG'
p1016
aI2074
aI126
aa(lp1017
S'http://server.genobyte.us/ethan/weed_cover_images/flyTerra_2016_08_19/split/DSC00319_37.JPG'
p1018
aI844
aI346
aa(lp1019
S'http://server.genobyte.us/ethan/weed_cover_images/goreLab_08_09_2016/split/DSC05787_3.JPG'
p1020
aI115
aI1106
aa(lp1021
S'http://server.genobyte.us/ethan/weed_cover_images/flyTerra_2016_08_19/split/DSC00326_27.JPG'
p1022
aI354
aI402
aa(lp1023
S'http://server.genobyte.us/ethan/weed_cover_images/flyTerra_2016_08_19/split/DSC00315_23.JPG'
p1024
aI7
aI512
aa(lp1025
S'http://server.genobyte.us/ethan/weed_cover_images/goreLab_08_09_2016/split/DSC05790_2.JPG'
p1026
aI442
aI301
aa(lp1027
S'http://server.genobyte.us/ethan/weed_cover_images/flyTerra_2016_08_19/split/DSC00331_43.JPG'
p1028
aI966
aI396
aa(lp1029
S'http://server.genobyte.us/ethan/weed_cover_images/flyTerra_2016_08_19/split/DSC00319_15.JPG'
p1030
aI71
aI588
aa(lp1031
S'http://server.genobyte.us/ethan/weed_cover_images/flyTerra_2016_08_19/split/DSC00346_26.JPG'
p1032
aI147
aI579
aa(lp1033
S'http://server.genobyte.us/ethan/weed_cover_images/flyTerra_2016_08_19/split/DSC00361_29.JPG'
p1034
aI814
aI705
aa(lp1035
S'http://server.genobyte.us/ethan/weed_cover_images/flyTerra_2016_08_19/split/DSC00321_23.JPG'
p1036
aI804
aI390
aa(lp1037
S'http://server.genobyte.us/ethan/weed_cover_images/goreLab_08_10_2016/flight_2/IMG_1443.JPG'
p1038
aI2671
aI2454
aa(lp1039
S'http://server.genobyte.us/ethan/weed_cover_images/flyTerra_2016_08_19/split/DSC00350_37.JPG'
p1040
aI692
aI337
aa(lp1041
S'http://server.genobyte.us/ethan/weed_cover_images/flyTerra_2016_08_19/split/DSC00361_47.JPG'
p1042
aI992
aI650
aa(lp1043
S'http://server.genobyte.us/ethan/weed_cover_images/flyTerra_2016_08_19/split/DSC00361_16.JPG'
p1044
aI346
aI244
aa(lp1045
S'http://server.genobyte.us/ethan/weed_cover_images/goreLab_08_09_2016/split/DSC05889_0.JPG'
p1046
aI2361
aI1835
aa(lp1047
S'http://server.genobyte.us/ethan/weed_cover_images/flyTerra_2016_08_19/split/DSC00363_37.JPG'
p1048
aI903
aI816
aa(lp1049
S'http://server.genobyte.us/ethan/weed_cover_images/goreLab_08_09_2016/split/DSC05999_1.JPG'
p1050
aI932
aI36
aa(lp1051
S'http://server.genobyte.us/ethan/weed_cover_images/flyTerra_2016_08_19/split/DSC00362_6.JPG'
p1052
aI564
aI366
aa(lp1053
S'http://server.genobyte.us/ethan/weed_cover_images/goreLab_08_10_2016/flight_2/IMG_1478.JPG'
p1054
aI3188
aI792
aa(lp1055
S'http://server.genobyte.us/ethan/weed_cover_images/flyTerra_2016_08_19/split/DSC00318_27.JPG'
p1056
aI881
aI462
aa(lp1057
S'http://server.genobyte.us/ethan/weed_cover_images/flyTerra_2016_08_19/split/DSC00363_15.JPG'
p1058
aI263
aI291
aa(lp1059
S'http://server.genobyte.us/ethan/weed_cover_images/flyTerra_2016_08_19/split/DSC00321_46.JPG'
p1060
aI675
aI498
aa(lp1061
S'http://server.genobyte.us/ethan/weed_cover_images/flyTerra_2016_08_19/split/DSC00345_18.JPG'
p1062
aI758
aI538
aa(lp1063
S'http://server.genobyte.us/ethan/weed_cover_images/flyTerra_2016_08_19/split/DSC00315_33.JPG'
p1064
aI680
aI559
aa(lp1065
S'http://server.genobyte.us/ethan/weed_cover_images/flyTerra_2016_08_19/split/DSC00360_10.JPG'
p1066
aI563
aI544
aa(lp1067
S'http://server.genobyte.us/ethan/weed_cover_images/goreLab_08_10_2016/flight_1/split/IMG_2224_0.JPG'
p1068
aI1816
aI615
aa(lp1069
S'http://server.genobyte.us/ethan/weed_cover_images/flyTerra_2016_08_19/split/DSC00360_6.JPG'
p1070
aI861
aI487
aa(lp1071
S'http://server.genobyte.us/ethan/weed_cover_images/goreLab_08_09_2016/split/DSC05859_1.JPG'
p1072
aI282
aI1154
aa(lp1073
S'http://server.genobyte.us/ethan/weed_cover_images/flyTerra_2016_08_19/split/DSC00333_20.JPG'
p1074
aI719
aI287
aa(lp1075
S'http://server.genobyte.us/ethan/weed_cover_images/flyTerra_2016_08_19/split/DSC00332_6.JPG'
p1076
aI306
aI227
aa(lp1077
S'http://server.genobyte.us/ethan/weed_cover_images/flyTerra_2016_08_19/split/DSC00348_21.JPG'
p1078
aI42
aI852
aa(lp1079
S'http://server.genobyte.us/ethan/weed_cover_images/flyTerra_2016_08_19/split/DSC00345_1.JPG'
p1080
aI664
aI299
aa(lp1081
S'http://server.genobyte.us/ethan/weed_cover_images/flyTerra_2016_08_19/split/DSC00324_2.JPG'
p1082
aI606
aI601
aa(lp1083
S'http://server.genobyte.us/ethan/weed_cover_images/flyTerra_2016_08_19/split/DSC00356_16.JPG'
p1084
aI134
aI703
aa(lp1085
S'http://server.genobyte.us/ethan/weed_cover_images/flyTerra_2016_08_19/split/DSC00323_31.JPG'
p1086
aI199
aI109
aa(lp1087
S'http://server.genobyte.us/ethan/weed_cover_images/flyTerra_2016_08_19/split/DSC00350_6.JPG'
p1088
aI904
aI287
aa(lp1089
S'http://server.genobyte.us/ethan/weed_cover_images/goreLab_08_10_2016/flight_1/split/IMG_2209_3.JPG'
p1090
aI806
aI769
aa(lp1091
S'http://server.genobyte.us/ethan/weed_cover_images/flyTerra_2016_08_19/split/DSC00348_38.JPG'
p1092
aI468
aI790
aa(lp1093
S'http://server.genobyte.us/ethan/weed_cover_images/goreLab_08_10_2016/flight_1/split/IMG_2084_0.JPG'
p1094
aI234
aI517
aa(lp1095
S'http://server.genobyte.us/ethan/weed_cover_images/flyTerra_2016_08_19/split/DSC00348_2.JPG'
p1096
aI838
aI498
aa(lp1097
S'http://server.genobyte.us/ethan/weed_cover_images/flyTerra_2016_08_19/split/DSC00349_21.JPG'
p1098
aI413
aI165
aa(lp1099
S'http://server.genobyte.us/ethan/weed_cover_images/flyTerra_2016_08_19/split/DSC00331_2.JPG'
p1100
aI393
aI197
aa(lp1101
S'http://server.genobyte.us/ethan/weed_cover_images/goreLab_08_10_2016/flight_1/split/IMG_2232_2.JPG'
p1102
aI376
aI865
aa(lp1103
S'http://server.genobyte.us/ethan/weed_cover_images/flyTerra_2016_08_19/split/DSC00318_3.JPG'
p1104
aI694
aI86
aa(lp1105
S'http://server.genobyte.us/ethan/weed_cover_images/flyTerra_2016_08_19/split/DSC00361_31.JPG'
p1106
aI699
aI699
aa(lp1107
S'http://server.genobyte.us/ethan/weed_cover_images/flyTerra_2016_08_19/split/DSC00332_43.JPG'
p1108
aI310
aI82
aa(lp1109
S'http://server.genobyte.us/ethan/weed_cover_images/flyTerra_2016_08_19/split/DSC00347_26.JPG'
p1110
aI282
aI762
aa(lp1111
S'http://server.genobyte.us/ethan/weed_cover_images/goreLab_08_09_2016/split/DSC05784_3.JPG'
p1112
aI462
aI1778
aa(lp1113
S'http://server.genobyte.us/ethan/weed_cover_images/flyTerra_2016_08_19/split/DSC00317_21.JPG'
p1114
aI830
aI559
aa(lp1115
S'http://server.genobyte.us/ethan/weed_cover_images/flyTerra_2016_08_19/split/DSC00351_21.JPG'
p1116
aI507
aI269
aa(lp1117
S'http://server.genobyte.us/ethan/weed_cover_images/flyTerra_2016_08_19/split/DSC00353_37.JPG'
p1118
aI40
aI750
aa(lp1119
S'http://server.genobyte.us/ethan/weed_cover_images/goreLab_08_09_2016/split/DSC05958_1.JPG'
p1120
aI339
aI1125
aa(lp1121
S'http://server.genobyte.us/ethan/weed_cover_images/flyTerra_2016_08_19/split/DSC00355_0.JPG'
p1122
aI143
aI466
aa(lp1123
S'http://server.genobyte.us/ethan/weed_cover_images/flyTerra_2016_08_19/split/DSC00344_35.JPG'
p1124
aI712
aI424
aa(lp1125
S'http://server.genobyte.us/ethan/weed_cover_images/flyTerra_2016_08_19/split/DSC00321_12.JPG'
p1126
aI945
aI506
aa(lp1127
S'http://server.genobyte.us/ethan/weed_cover_images/flyTerra_2016_08_19/split/DSC00324_30.JPG'
p1128
aI614
aI605
aa(lp1129
S'http://server.genobyte.us/ethan/weed_cover_images/flyTerra_2016_08_19/split/DSC00346_9.JPG'
p1130
aI497
aI418
aa(lp1131
S'http://server.genobyte.us/ethan/weed_cover_images/flyTerra_2016_08_19/split/DSC00324_40.JPG'
p1132
aI529
aI40
aa(lp1133
S'http://server.genobyte.us/ethan/weed_cover_images/flyTerra_2016_08_19/split/DSC00361_41.JPG'
p1134
aI190
aI462
aa(lp1135
S'http://server.genobyte.us/ethan/weed_cover_images/flyTerra_2016_08_19/split/DSC00319_31.JPG'
p1136
aI240
aI766
aa(lp1137
S'http://server.genobyte.us/ethan/weed_cover_images/flyTerra_2016_08_19/split/DSC00355_42.JPG'
p1138
aI337
aI196
aa(lp1139
S'http://server.genobyte.us/ethan/weed_cover_images/flyTerra_2016_08_19/split/DSC00326_9.JPG'
p1140
aI910
aI134
aa(lp1141
S'http://server.genobyte.us/ethan/weed_cover_images/flyTerra_2016_08_19/split/DSC00321_42.JPG'
p1142
aI533
aI146
aa(lp1143
S'http://server.genobyte.us/ethan/weed_cover_images/flyTerra_2016_08_19/split/DSC00357_6.JPG'
p1144
aI780
aI585
aa(lp1145
S'http://server.genobyte.us/ethan/weed_cover_images/flyTerra_2016_08_19/split/DSC00356_28.JPG'
p1146
aI546
aI723
aa(lp1147
S'http://server.genobyte.us/ethan/weed_cover_images/flyTerra_2016_08_19/split/DSC00356_12.JPG'
p1148
aI183
aI285
aa(lp1149
S'http://server.genobyte.us/ethan/weed_cover_images/flyTerra_2016_08_19/split/DSC00362_17.JPG'
p1150
aI763
aI79
aa(lp1151
S'http://server.genobyte.us/ethan/weed_cover_images/flyTerra_2016_08_19/split/DSC00352_23.JPG'
p1152
aI56
aI785
aa(lp1153
S'http://server.genobyte.us/ethan/weed_cover_images/flyTerra_2016_08_19/split/DSC00326_18.JPG'
p1154
aI526
aI499
aa(lp1155
S'http://server.genobyte.us/ethan/weed_cover_images/flyTerra_2016_08_19/split/DSC00332_22.JPG'
p1156
aI605
aI447
aa(lp1157
S'http://server.genobyte.us/ethan/weed_cover_images/flyTerra_2016_08_19/split/DSC00325_33.JPG'
p1158
aI745
aI750
aa(lp1159
S'http://server.genobyte.us/ethan/weed_cover_images/flyTerra_2016_08_19/split/DSC00344_46.JPG'
p1160
aI746
aI336
aa(lp1161
S'http://server.genobyte.us/ethan/weed_cover_images/flyTerra_2016_08_19/split/DSC00327_35.JPG'
p1162
aI456
aI87
aa(lp1163
S'http://server.genobyte.us/ethan/weed_cover_images/flyTerra_2016_08_19/split/DSC00322_41.JPG'
p1164
aI188
aI477
aa(lp1165
S'http://server.genobyte.us/ethan/weed_cover_images/flyTerra_2016_08_19/split/DSC00316_4.JPG'
p1166
aI744
aI45
aa(lp1167
S'http://server.genobyte.us/ethan/weed_cover_images/flyTerra_2016_08_19/split/DSC00361_6.JPG'
p1168
aI892
aI372
aa(lp1169
S'http://server.genobyte.us/ethan/weed_cover_images/flyTerra_2016_08_19/split/DSC00326_34.JPG'
p1170
aI95
aI553
aa(lp1171
S'http://server.genobyte.us/ethan/weed_cover_images/flyTerra_2016_08_19/split/DSC00351_1.JPG'
p1172
aI892
aI489
aa(lp1173
S'http://server.genobyte.us/ethan/weed_cover_images/flyTerra_2016_08_19/split/DSC00327_20.JPG'
p1174
aI884
aI445
aa(lp1175
S'http://server.genobyte.us/ethan/weed_cover_images/goreLab_08_09_2016/split/DSC05865_1.JPG'
p1176
aI539
aI413
aa(lp1177
S'http://server.genobyte.us/ethan/weed_cover_images/flyTerra_2016_08_19/split/DSC00354_42.JPG'
p1178
aI861
aI476
aa(lp1179
S'http://server.genobyte.us/ethan/weed_cover_images/flyTerra_2016_08_19/split/DSC00360_9.JPG'
p1180
aI901
aI772
aa(lp1181
S'http://server.genobyte.us/ethan/weed_cover_images/flyTerra_2016_08_19/split/DSC00322_8.JPG'
p1182
aI216
aI612
aa(lp1183
S'http://server.genobyte.us/ethan/weed_cover_images/flyTerra_2016_08_19/split/DSC00329_37.JPG'
p1184
aI183
aI633
aa(lp1185
S'http://server.genobyte.us/ethan/weed_cover_images/flyTerra_2016_08_19/split/DSC00333_9.JPG'
p1186
aI463
aI790
aa(lp1187
S'http://server.genobyte.us/ethan/weed_cover_images/flyTerra_2016_08_19/split/DSC00316_3.JPG'
p1188
aI734
aI83
aa(lp1189
S'http://server.genobyte.us/ethan/weed_cover_images/goreLab_08_09_2016/split/DSC05791_3.JPG'
p1190
aI1481
aI333
aa(lp1191
S'http://server.genobyte.us/ethan/weed_cover_images/flyTerra_2016_08_19/split/DSC00350_15.JPG'
p1192
aI527
aI871
aa(lp1193
S'http://server.genobyte.us/ethan/weed_cover_images/flyTerra_2016_08_19/split/DSC00353_24.JPG'
p1194
aI424
aI296
aa(lp1195
S'http://server.genobyte.us/ethan/weed_cover_images/flyTerra_2016_08_19/split/DSC00318_8.JPG'
p1196
aI379
aI533
aa(lp1197
S'http://server.genobyte.us/ethan/weed_cover_images/flyTerra_2016_08_19/split/DSC00322_7.JPG'
p1198
aI469
aI68
aa(lp1199
S'http://server.genobyte.us/ethan/weed_cover_images/flyTerra_2016_08_19/split/DSC00327_3.JPG'
p1200
aI4
aI339
aa(lp1201
S'http://server.genobyte.us/ethan/weed_cover_images/flyTerra_2016_08_19/split/DSC00329_21.JPG'
p1202
aI784
aI80
aa(lp1203
S'http://server.genobyte.us/ethan/weed_cover_images/flyTerra_2016_08_19/split/DSC00323_33.JPG'
p1204
aI361
aI717
aa(lp1205
S'http://server.genobyte.us/ethan/weed_cover_images/flyTerra_2016_08_19/split/DSC00362_20.JPG'
p1206
aI102
aI74
aa(lp1207
S'http://server.genobyte.us/ethan/weed_cover_images/flyTerra_2016_08_19/split/DSC00355_6.JPG'
p1208
aI719
aI228
aa(lp1209
S'http://server.genobyte.us/ethan/weed_cover_images/flyTerra_2016_08_19/split/DSC00326_21.JPG'
p1210
aI824
aI410
aa(lp1211
S'http://server.genobyte.us/ethan/weed_cover_images/flyTerra_2016_08_19/split/DSC00332_18.JPG'
p1212
aI461
aI419
aa(lp1213
S'http://server.genobyte.us/ethan/weed_cover_images/flyTerra_2016_08_19/split/DSC00322_33.JPG'
p1214
aI135
aI622
aa(lp1215
S'http://server.genobyte.us/ethan/weed_cover_images/flyTerra_2016_08_19/split/DSC00355_36.JPG'
p1216
aI733
aI848
aa(lp1217
S'http://server.genobyte.us/ethan/weed_cover_images/flyTerra_2016_08_19/split/DSC00318_41.JPG'
p1218
aI722
aI883
aa(lp1219
S'http://server.genobyte.us/ethan/weed_cover_images/flyTerra_2016_08_19/split/DSC00361_0.JPG'
p1220
aI865
aI332
aa(lp1221
S'http://server.genobyte.us/ethan/weed_cover_images/flyTerra_2016_08_19/split/DSC00346_14.JPG'
p1222
aI450
aI308
aa(lp1223
S'http://server.genobyte.us/ethan/weed_cover_images/flyTerra_2016_08_19/split/DSC00349_36.JPG'
p1224
aI891
aI297
aa(lp1225
S'http://server.genobyte.us/ethan/weed_cover_images/flyTerra_2016_08_19/split/DSC00357_44.JPG'
p1226
aI284
aI675
aa(lp1227
S'http://server.genobyte.us/ethan/weed_cover_images/flyTerra_2016_08_19/split/DSC00351_17.JPG'
p1228
aI106
aI352
aa(lp1229
S'http://server.genobyte.us/ethan/weed_cover_images/flyTerra_2016_08_19/split/DSC00318_45.JPG'
p1230
aI569
aI123
aa(lp1231
S'http://server.genobyte.us/ethan/weed_cover_images/flyTerra_2016_08_19/split/DSC00316_7.JPG'
p1232
aI191
aI173
aa(lp1233
S'http://server.genobyte.us/ethan/weed_cover_images/flyTerra_2016_08_19/split/DSC00356_19.JPG'
p1234
aI866
aI180
aa(lp1235
S'http://server.genobyte.us/ethan/weed_cover_images/flyTerra_2016_08_19/split/DSC00321_0.JPG'
p1236
aI322
aI776
aa(lp1237
S'http://server.genobyte.us/ethan/weed_cover_images/flyTerra_2016_08_19/split/DSC00332_33.JPG'
p1238
aI704
aI632
aa(lp1239
S'http://server.genobyte.us/ethan/weed_cover_images/flyTerra_2016_08_19/split/DSC00358_47.JPG'
p1240
aI137
aI812
aa(lp1241
S'http://server.genobyte.us/ethan/weed_cover_images/flyTerra_2016_08_19/split/DSC00330_8.JPG'
p1242
aI402
aI97
aa(lp1243
S'http://server.genobyte.us/ethan/weed_cover_images/flyTerra_2016_08_19/split/DSC00322_35.JPG'
p1244
aI148
aI295
aa(lp1245
S'http://server.genobyte.us/ethan/weed_cover_images/goreLab_08_09_2016/split/DSC05956_0.JPG'
p1246
aI1580
aI1409
aa(lp1247
S'http://server.genobyte.us/ethan/weed_cover_images/goreLab_08_10_2016/flight_2/IMG_1710.JPG'
p1248
aI3539
aI19
aa(lp1249
S'http://server.genobyte.us/ethan/weed_cover_images/flyTerra_2016_08_19/split/DSC00357_29.JPG'
p1250
aI624
aI193
aa(lp1251
S'http://server.genobyte.us/ethan/weed_cover_images/goreLab_08_09_2016/split/DSC05865_2.JPG'
p1252
aI68
aI450
aa(lp1253
S'http://server.genobyte.us/ethan/weed_cover_images/flyTerra_2016_08_19/split/DSC00347_22.JPG'
p1254
aI516
aI281
aa(lp1255
S'http://server.genobyte.us/ethan/weed_cover_images/flyTerra_2016_08_19/split/DSC00360_41.JPG'
p1256
aI749
aI52
aa(lp1257
S'http://server.genobyte.us/ethan/weed_cover_images/flyTerra_2016_08_19/split/DSC00347_46.JPG'
p1258
aI708
aI314
aa(lp1259
S'http://server.genobyte.us/ethan/weed_cover_images/flyTerra_2016_08_19/split/DSC00346_10.JPG'
p1260
aI581
aI545
aa(lp1261
S'http://server.genobyte.us/ethan/weed_cover_images/flyTerra_2016_08_19/split/DSC00363_3.JPG'
p1262
aI470
aI0
aa(lp1263
S'http://server.genobyte.us/ethan/weed_cover_images/flyTerra_2016_08_19/split/DSC00356_42.JPG'
p1264
aI813
aI749
aa(lp1265
S'http://server.genobyte.us/ethan/weed_cover_images/flyTerra_2016_08_19/split/DSC00362_29.JPG'
p1266
aI600
aI198
aa(lp1267
S'http://server.genobyte.us/ethan/weed_cover_images/flyTerra_2016_08_19/split/DSC00325_16.JPG'
p1268
aI607
aI663
aa(lp1269
S'http://server.genobyte.us/ethan/weed_cover_images/flyTerra_2016_08_19/split/DSC00350_9.JPG'
p1270
aI112
aI767
aa(lp1271
S'http://server.genobyte.us/ethan/weed_cover_images/goreLab_08_09_2016/split/DSC05789_2.JPG'
p1272
aI2194
aI1107
aa(lp1273
S'http://server.genobyte.us/ethan/weed_cover_images/flyTerra_2016_08_19/split/DSC00357_38.JPG'
p1274
aI450
aI386
aa(lp1275
S'http://server.genobyte.us/ethan/weed_cover_images/flyTerra_2016_08_19/split/DSC00347_13.JPG'
p1276
aI843
aI560
aa(lp1277
S'http://server.genobyte.us/ethan/weed_cover_images/flyTerra_2016_08_19/split/DSC00344_7.JPG'
p1278
aI65
aI273
aa(lp1279
S'http://server.genobyte.us/ethan/weed_cover_images/flyTerra_2016_08_19/split/DSC00356_41.JPG'
p1280
aI586
aI148
aa(lp1281
S'http://server.genobyte.us/ethan/weed_cover_images/flyTerra_2016_08_19/split/DSC00344_23.JPG'
p1282
aI556
aI346
aa(lp1283
S'http://server.genobyte.us/ethan/weed_cover_images/flyTerra_2016_08_19/split/DSC00325_14.JPG'
p1284
aI190
aI65
aa(lp1285
S'http://server.genobyte.us/ethan/weed_cover_images/flyTerra_2016_08_19/split/DSC00325_18.JPG'
p1286
aI569
aI249
aa(lp1287
S'http://server.genobyte.us/ethan/weed_cover_images/flyTerra_2016_08_19/split/DSC00327_28.JPG'
p1288
aI193
aI858
aa(lp1289
S'http://server.genobyte.us/ethan/weed_cover_images/flyTerra_2016_08_19/split/DSC00350_27.JPG'
p1290
aI74
aI395
aa(lp1291
S'http://server.genobyte.us/ethan/weed_cover_images/flyTerra_2016_08_19/split/DSC00348_42.JPG'
p1292
aI315
aI327
aa(lp1293
S'http://server.genobyte.us/ethan/weed_cover_images/flyTerra_2016_08_19/split/DSC00362_44.JPG'
p1294
aI902
aI129
aa(lp1295
S'http://server.genobyte.us/ethan/weed_cover_images/flyTerra_2016_08_19/split/DSC00328_25.JPG'
p1296
aI36
aI648
aa(lp1297
S'http://server.genobyte.us/ethan/weed_cover_images/flyTerra_2016_08_19/split/DSC00363_1.JPG'
p1298
aI976
aI566
aa(lp1299
S'http://server.genobyte.us/ethan/weed_cover_images/goreLab_08_09_2016/split/DSC05900_0.JPG'
p1300
aI85
aI735
aa(lp1301
S'http://server.genobyte.us/ethan/weed_cover_images/goreLab_08_09_2016/split/DSC05891_3.JPG'
p1302
aI2143
aI1773
aa(lp1303
S'http://server.genobyte.us/ethan/weed_cover_images/flyTerra_2016_08_19/split/DSC00317_39.JPG'
p1304
aI39
aI159
aa(lp1305
S'http://server.genobyte.us/ethan/weed_cover_images/flyTerra_2016_08_19/split/DSC00358_43.JPG'
p1306
aI645
aI219
aa(lp1307
S'http://server.genobyte.us/ethan/weed_cover_images/flyTerra_2016_08_19/split/DSC00327_40.JPG'
p1308
aI304
aI378
aa(lp1309
S'http://server.genobyte.us/ethan/weed_cover_images/flyTerra_2016_08_19/split/DSC00352_27.JPG'
p1310
aI196
aI371
aa(lp1311
S'http://server.genobyte.us/ethan/weed_cover_images/flyTerra_2016_08_19/split/DSC00356_45.JPG'
p1312
aI83
aI540
aa(lp1313
S'http://server.genobyte.us/ethan/weed_cover_images/flyTerra_2016_08_19/split/DSC00351_16.JPG'
p1314
aI766
aI761
aa(lp1315
S'http://server.genobyte.us/ethan/weed_cover_images/flyTerra_2016_08_19/split/DSC00346_39.JPG'
p1316
aI716
aI422
aa(lp1317
S'http://server.genobyte.us/ethan/weed_cover_images/flyTerra_2016_08_19/split/DSC00359_47.JPG'
p1318
aI968
aI213
aa(lp1319
S'http://server.genobyte.us/ethan/weed_cover_images/flyTerra_2016_08_19/split/DSC00345_7.JPG'
p1320
aI375
aI831
aa(lp1321
S'http://server.genobyte.us/ethan/weed_cover_images/flyTerra_2016_08_19/split/DSC00344_36.JPG'
p1322
aI456
aI119
aa(lp1323
S'http://server.genobyte.us/ethan/weed_cover_images/flyTerra_2016_08_19/split/DSC00330_38.JPG'
p1324
aI342
aI40
aa(lp1325
S'http://server.genobyte.us/ethan/weed_cover_images/flyTerra_2016_08_19/split/DSC00349_30.JPG'
p1326
aI863
aI861
aa(lp1327
S'http://server.genobyte.us/ethan/weed_cover_images/flyTerra_2016_08_19/split/DSC00356_26.JPG'
p1328
aI15
aI317
aa(lp1329
S'http://server.genobyte.us/ethan/weed_cover_images/flyTerra_2016_08_19/split/DSC00320_17.JPG'
p1330
aI403
aI419
aa(lp1331
S'http://server.genobyte.us/ethan/weed_cover_images/flyTerra_2016_08_19/split/DSC00358_10.JPG'
p1332
aI543
aI646
aa(lp1333
S'http://server.genobyte.us/ethan/weed_cover_images/flyTerra_2016_08_19/split/DSC00349_40.JPG'
p1334
aI474
aI840
aa(lp1335
S'http://server.genobyte.us/ethan/weed_cover_images/flyTerra_2016_08_19/split/DSC00330_9.JPG'
p1336
aI672
aI293
aa(lp1337
S'http://server.genobyte.us/ethan/weed_cover_images/flyTerra_2016_08_19/split/DSC00315_24.JPG'
p1338
aI890
aI511
aa(lp1339
S'http://server.genobyte.us/ethan/weed_cover_images/flyTerra_2016_08_19/split/DSC00326_29.JPG'
p1340
aI667
aI850
aa(lp1341
S'http://server.genobyte.us/ethan/weed_cover_images/flyTerra_2016_08_19/split/DSC00352_33.JPG'
p1342
aI7
aI407
aa(lp1343
S'http://server.genobyte.us/ethan/weed_cover_images/flyTerra_2016_08_19/split/DSC00344_0.JPG'
p1344
aI594
aI553
aa(lp1345
S'http://server.genobyte.us/ethan/weed_cover_images/goreLab_08_10_2016/flight_1/split/IMG_2083_0.JPG'
p1346
aI869
aI130
aa(lp1347
S'http://server.genobyte.us/ethan/weed_cover_images/flyTerra_2016_08_19/split/DSC00362_46.JPG'
p1348
aI752
aI216
aa(lp1349
S'http://server.genobyte.us/ethan/weed_cover_images/flyTerra_2016_08_19/split/DSC00363_17.JPG'
p1350
aI113
aI71
aa(lp1351
S'http://server.genobyte.us/ethan/weed_cover_images/goreLab_08_10_2016/flight_1/split/IMG_2232_3.JPG'
p1352
aI332
aI297
aa(lp1353
S'http://server.genobyte.us/ethan/weed_cover_images/flyTerra_2016_08_19/split/DSC00347_8.JPG'
p1354
aI16
aI506
aa(lp1355
S'http://server.genobyte.us/ethan/weed_cover_images/flyTerra_2016_08_19/split/DSC00346_1.JPG'
p1356
aI26
aI125
aa(lp1357
S'http://server.genobyte.us/ethan/weed_cover_images/goreLab_08_09_2016/split/DSC05961_0.JPG'
p1358
aI567
aI194
aa(lp1359
S'http://server.genobyte.us/ethan/weed_cover_images/flyTerra_2016_08_19/split/DSC00321_4.JPG'
p1360
aI463
aI788
aa(lp1361
S'http://server.genobyte.us/ethan/weed_cover_images/flyTerra_2016_08_19/split/DSC00328_34.JPG'
p1362
aI464
aI817
aa(lp1363
S'http://server.genobyte.us/ethan/weed_cover_images/goreLab_08_09_2016/split/DSC05993_1.JPG'
p1364
aI747
aI306
aa(lp1365
S'http://server.genobyte.us/ethan/weed_cover_images/flyTerra_2016_08_19/split/DSC00351_20.JPG'
p1366
aI958
aI858
aa(lp1367
S'http://server.genobyte.us/ethan/weed_cover_images/flyTerra_2016_08_19/split/DSC00324_42.JPG'
p1368
aI218
aI84
aa(lp1369
S'http://server.genobyte.us/ethan/weed_cover_images/goreLab_08_09_2016/split/DSC05857_3.JPG'
p1370
aI1232
aI594
aa(lp1371
S'http://server.genobyte.us/ethan/weed_cover_images/flyTerra_2016_08_19/split/DSC00355_1.JPG'
p1372
aI591
aI260
aa(lp1373
S'http://server.genobyte.us/ethan/weed_cover_images/flyTerra_2016_08_19/split/DSC00358_42.JPG'
p1374
aI894
aI777
aa(lp1375
S'http://server.genobyte.us/ethan/weed_cover_images/goreLab_08_10_2016/flight_2/IMG_1861.JPG'
p1376
aI1808
aI645
aa(lp1377
S'http://server.genobyte.us/ethan/weed_cover_images/flyTerra_2016_08_19/split/DSC00316_40.JPG'
p1378
aI374
aI881
aa(lp1379
S'http://server.genobyte.us/ethan/weed_cover_images/goreLab_08_09_2016/split/DSC05958_0.JPG'
p1380
aI1918
aI1396
aa(lp1381
S'http://server.genobyte.us/ethan/weed_cover_images/flyTerra_2016_08_19/split/DSC00322_40.JPG'
p1382
aI737
aI274
aa(lp1383
S'http://server.genobyte.us/ethan/weed_cover_images/flyTerra_2016_08_19/split/DSC00329_43.JPG'
p1384
aI288
aI159
aa(lp1385
S'http://server.genobyte.us/ethan/weed_cover_images/flyTerra_2016_08_19/split/DSC00360_36.JPG'
p1386
aI360
aI46
aa(lp1387
S'http://server.genobyte.us/ethan/weed_cover_images/flyTerra_2016_08_19/split/DSC00351_3.JPG'
p1388
aI140
aI256
aa(lp1389
S'http://server.genobyte.us/ethan/weed_cover_images/flyTerra_2016_08_19/split/DSC00351_13.JPG'
p1390
aI921
aI83
aa(lp1391
S'http://server.genobyte.us/ethan/weed_cover_images/goreLab_08_09_2016/split/DSC05901_3.JPG'
p1392
aI470
aI460
aa(lp1393
S'http://server.genobyte.us/ethan/weed_cover_images/goreLab_08_09_2016/split/DSC05956_1.JPG'
p1394
aI2795
aI1621
aa(lp1395
S'http://server.genobyte.us/ethan/weed_cover_images/flyTerra_2016_08_19/split/DSC00323_21.JPG'
p1396
aI838
aI235
aa(lp1397
S'http://server.genobyte.us/ethan/weed_cover_images/flyTerra_2016_08_19/split/DSC00350_33.JPG'
p1398
aI348
aI311
aa(lp1399
S'http://server.genobyte.us/ethan/weed_cover_images/flyTerra_2016_08_19/split/DSC00346_3.JPG'
p1400
aI702
aI209
aa(lp1401
S'http://server.genobyte.us/ethan/weed_cover_images/flyTerra_2016_08_19/split/DSC00332_16.JPG'
p1402
aI537
aI386
aa(lp1403
S'http://server.genobyte.us/ethan/weed_cover_images/flyTerra_2016_08_19/split/DSC00345_34.JPG'
p1404
aI839
aI833
aa(lp1405
S'http://server.genobyte.us/ethan/weed_cover_images/goreLab_08_09_2016/split/DSC05859_3.JPG'
p1406
aI2578
aI1454
aa(lp1407
S'http://server.genobyte.us/ethan/weed_cover_images/flyTerra_2016_08_19/split/DSC00316_27.JPG'
p1408
aI615
aI477
aa(lp1409
S'http://server.genobyte.us/ethan/weed_cover_images/flyTerra_2016_08_19/split/DSC00347_4.JPG'
p1410
aI863
aI243
aa(lp1411
S'http://server.genobyte.us/ethan/weed_cover_images/flyTerra_2016_08_19/split/DSC00315_22.JPG'
p1412
aI71
aI662
aa(lp1413
S'http://server.genobyte.us/ethan/weed_cover_images/flyTerra_2016_08_19/split/DSC00330_31.JPG'
p1414
aI64
aI872
aa(lp1415
S'http://server.genobyte.us/ethan/weed_cover_images/goreLab_08_09_2016/split/DSC05997_2.JPG'
p1416
aI1534
aI1908
aa(lp1417
S'http://server.genobyte.us/ethan/weed_cover_images/flyTerra_2016_08_19/split/DSC00327_2.JPG'
p1418
aI455
aI61
aa(lp1419
S'http://server.genobyte.us/ethan/weed_cover_images/flyTerra_2016_08_19/split/DSC00317_47.JPG'
p1420
aI673
aI457
aa(lp1421
S'http://server.genobyte.us/ethan/weed_cover_images/flyTerra_2016_08_19/split/DSC00351_42.JPG'
p1422
aI435
aI343
aa(lp1423
S'http://server.genobyte.us/ethan/weed_cover_images/goreLab_08_10_2016/flight_1/split/IMG_2083_2.JPG'
p1424
aI710
aI883
aa(lp1425
S'http://server.genobyte.us/ethan/weed_cover_images/flyTerra_2016_08_19/split/DSC00353_2.JPG'
p1426
aI722
aI284
aa(lp1427
S'http://server.genobyte.us/ethan/weed_cover_images/flyTerra_2016_08_19/split/DSC00350_26.JPG'
p1428
aI267
aI130
aa(lp1429
S'http://server.genobyte.us/ethan/weed_cover_images/flyTerra_2016_08_19/split/DSC00326_31.JPG'
p1430
aI300
aI645
aa(lp1431
S'http://server.genobyte.us/ethan/weed_cover_images/flyTerra_2016_08_19/split/DSC00350_8.JPG'
p1432
aI483
aI285
aa(lp1433
S'http://server.genobyte.us/ethan/weed_cover_images/flyTerra_2016_08_19/split/DSC00348_39.JPG'
p1434
aI829
aI658
aa(lp1435
S'http://server.genobyte.us/ethan/weed_cover_images/flyTerra_2016_08_19/split/DSC00321_5.JPG'
p1436
aI665
aI364
aa(lp1437
S'http://server.genobyte.us/ethan/weed_cover_images/flyTerra_2016_08_19/split/DSC00347_30.JPG'
p1438
aI548
aI500
aa(lp1439
S'http://server.genobyte.us/ethan/weed_cover_images/flyTerra_2016_08_19/split/DSC00327_17.JPG'
p1440
aI934
aI812
aa(lp1441
S'http://server.genobyte.us/ethan/weed_cover_images/goreLab_08_10_2016/flight_2/IMG_1440.JPG'
p1442
aI701
aI631
aa(lp1443
S'http://server.genobyte.us/ethan/weed_cover_images/flyTerra_2016_08_19/split/DSC00357_47.JPG'
p1444
aI433
aI175
aa(lp1445
S'http://server.genobyte.us/ethan/weed_cover_images/flyTerra_2016_08_19/split/DSC00349_42.JPG'
p1446
aI930
aI468
aa(lp1447
S'http://server.genobyte.us/ethan/weed_cover_images/flyTerra_2016_08_19/split/DSC00361_33.JPG'
p1448
aI421
aI745
aa(lp1449
S'http://server.genobyte.us/ethan/weed_cover_images/flyTerra_2016_08_19/split/DSC00318_15.JPG'
p1450
aI652
aI652
aa(lp1451
S'http://server.genobyte.us/ethan/weed_cover_images/flyTerra_2016_08_19/split/DSC00360_7.JPG'
p1452
aI893
aI585
aa(lp1453
S'http://server.genobyte.us/ethan/weed_cover_images/flyTerra_2016_08_19/split/DSC00317_38.JPG'
p1454
aI401
aI286
aa(lp1455
S'http://server.genobyte.us/ethan/weed_cover_images/goreLab_08_09_2016/split/DSC05902_3.JPG'
p1456
aI2527
aI161
aa(lp1457
S'http://server.genobyte.us/ethan/weed_cover_images/flyTerra_2016_08_19/split/DSC00317_28.JPG'
p1458
aI518
aI711
aa(lp1459
S'http://server.genobyte.us/ethan/weed_cover_images/flyTerra_2016_08_19/split/DSC00316_19.JPG'
p1460
aI253
aI191
aa(lp1461
S'http://server.genobyte.us/ethan/weed_cover_images/flyTerra_2016_08_19/split/DSC00349_10.JPG'
p1462
aI561
aI34
aa(lp1463
S'http://server.genobyte.us/ethan/weed_cover_images/flyTerra_2016_08_19/split/DSC00327_31.JPG'
p1464
aI74
aI680
aa(lp1465
S'http://server.genobyte.us/ethan/weed_cover_images/flyTerra_2016_08_19/split/DSC00333_6.JPG'
p1466
aI101
aI356
aa(lp1467
S'http://server.genobyte.us/ethan/weed_cover_images/flyTerra_2016_08_19/split/DSC00359_32.JPG'
p1468
aI217
aI211
aa(lp1469
S'http://server.genobyte.us/ethan/weed_cover_images/flyTerra_2016_08_19/split/DSC00331_9.JPG'
p1470
aI646
aI98
aa(lp1471
S'http://server.genobyte.us/ethan/weed_cover_images/flyTerra_2016_08_19/split/DSC00349_11.JPG'
p1472
aI546
aI466
aa(lp1473
S'http://server.genobyte.us/ethan/weed_cover_images/flyTerra_2016_08_19/split/DSC00347_28.JPG'
p1474
aI443
aI48
aa(lp1475
S'http://server.genobyte.us/ethan/weed_cover_images/flyTerra_2016_08_19/split/DSC00327_0.JPG'
p1476
aI677
aI246
aa(lp1477
S'http://server.genobyte.us/ethan/weed_cover_images/flyTerra_2016_08_19/split/DSC00319_42.JPG'
p1478
aI64
aI693
aa(lp1479
S'http://server.genobyte.us/ethan/weed_cover_images/flyTerra_2016_08_19/split/DSC00353_15.JPG'
p1480
aI642
aI58
aa(lp1481
S'http://server.genobyte.us/ethan/weed_cover_images/flyTerra_2016_08_19/split/DSC00317_3.JPG'
p1482
aI49
aI873
aa(lp1483
S'http://server.genobyte.us/ethan/weed_cover_images/flyTerra_2016_08_19/split/DSC00354_34.JPG'
p1484
aI345
aI686
aa(lp1485
S'http://server.genobyte.us/ethan/weed_cover_images/flyTerra_2016_08_19/split/DSC00346_27.JPG'
p1486
aI493
aI172
aa(lp1487
S'http://server.genobyte.us/ethan/weed_cover_images/goreLab_08_09_2016/split/DSC05895_0.JPG'
p1488
aI602
aI157
aa(lp1489
S'http://server.genobyte.us/ethan/weed_cover_images/goreLab_08_09_2016/split/DSC05860_2.JPG'
p1490
aI1448
aI797
aa(lp1491
S'http://server.genobyte.us/ethan/weed_cover_images/flyTerra_2016_08_19/split/DSC00332_7.JPG'
p1492
aI659
aI603
aa(lp1493
S'http://server.genobyte.us/ethan/weed_cover_images/flyTerra_2016_08_19/split/DSC00363_5.JPG'
p1494
aI201
aI446
aa(lp1495
S'http://server.genobyte.us/ethan/weed_cover_images/flyTerra_2016_08_19/split/DSC00323_20.JPG'
p1496
aI699
aI313
aa(lp1497
S'http://server.genobyte.us/ethan/weed_cover_images/flyTerra_2016_08_19/split/DSC00350_16.JPG'
p1498
aI450
aI405
aa(lp1499
S'http://server.genobyte.us/ethan/weed_cover_images/flyTerra_2016_08_19/split/DSC00322_43.JPG'
p1500
aI540
aI590
aa(lp1501
S'http://server.genobyte.us/ethan/weed_cover_images/goreLab_08_09_2016/split/DSC05992_2.JPG'
p1502
aI2915
aI512
aa(lp1503
S'http://server.genobyte.us/ethan/weed_cover_images/flyTerra_2016_08_19/split/DSC00359_10.JPG'
p1504
aI67
aI746
aa(lp1505
S'http://server.genobyte.us/ethan/weed_cover_images/flyTerra_2016_08_19/split/DSC00330_1.JPG'
p1506
aI988
aI131
aa(lp1507
S'http://server.genobyte.us/ethan/weed_cover_images/flyTerra_2016_08_19/split/DSC00349_29.JPG'
p1508
aI794
aI180
aa(lp1509
S'http://server.genobyte.us/ethan/weed_cover_images/flyTerra_2016_08_19/split/DSC00346_2.JPG'
p1510
aI171
aI345
aa(lp1511
S'http://server.genobyte.us/ethan/weed_cover_images/flyTerra_2016_08_19/split/DSC00324_38.JPG'
p1512
aI594
aI762
aa(lp1513
S'http://server.genobyte.us/ethan/weed_cover_images/flyTerra_2016_08_19/split/DSC00352_21.JPG'
p1514
aI487
aI205
aa(lp1515
S'http://server.genobyte.us/ethan/weed_cover_images/flyTerra_2016_08_19/split/DSC00344_44.JPG'
p1516
aI382
aI586
aa(lp1517
S'http://server.genobyte.us/ethan/weed_cover_images/flyTerra_2016_08_19/split/DSC00316_8.JPG'
p1518
aI12
aI836
aa(lp1519
S'http://server.genobyte.us/ethan/weed_cover_images/goreLab_08_10_2016/flight_2/IMG_1344.JPG'
p1520
aI1087
aI2264
aa(lp1521
S'http://server.genobyte.us/ethan/weed_cover_images/flyTerra_2016_08_19/split/DSC00360_13.JPG'
p1522
aI628
aI798
aa(lp1523
S'http://server.genobyte.us/ethan/weed_cover_images/goreLab_08_10_2016/flight_1/split/IMG_2233_2.JPG'
p1524
aI970
aI1247
aa(lp1525
S'http://server.genobyte.us/ethan/weed_cover_images/flyTerra_2016_08_19/split/DSC00315_38.JPG'
p1526
aI287
aI506
aa(lp1527
S'http://server.genobyte.us/ethan/weed_cover_images/flyTerra_2016_08_19/split/DSC00333_24.JPG'
p1528
aI419
aI511
aa(lp1529
S'http://server.genobyte.us/ethan/weed_cover_images/flyTerra_2016_08_19/split/DSC00344_15.JPG'
p1530
aI107
aI446
aa(lp1531
S'http://server.genobyte.us/ethan/weed_cover_images/flyTerra_2016_08_19/split/DSC00353_45.JPG'
p1532
aI544
aI376
aa(lp1533
S'http://server.genobyte.us/ethan/weed_cover_images/goreLab_08_10_2016/flight_1/split/IMG_2210_0.JPG'
p1534
aI937
aI174
aa(lp1535
S'http://server.genobyte.us/ethan/weed_cover_images/goreLab_08_10_2016/flight_2/IMG_1400.JPG'
p1536
aI3541
aI670
aa(lp1537
S'http://server.genobyte.us/ethan/weed_cover_images/flyTerra_2016_08_19/split/DSC00350_45.JPG'
p1538
aI562
aI146
aa(lp1539
S'http://server.genobyte.us/ethan/weed_cover_images/goreLab_08_09_2016/split/DSC05955_1.JPG'
p1540
aI983
aI1624
aa(lp1541
S'http://server.genobyte.us/ethan/weed_cover_images/flyTerra_2016_08_19/split/DSC00357_0.JPG'
p1542
aI654
aI643
aa(lp1543
S'http://server.genobyte.us/ethan/weed_cover_images/flyTerra_2016_08_19/split/DSC00353_1.JPG'
p1544
aI10
aI783
aa(lp1545
S'http://server.genobyte.us/ethan/weed_cover_images/flyTerra_2016_08_19/split/DSC00362_32.JPG'
p1546
aI852
aI655
aa(lp1547
S'http://server.genobyte.us/ethan/weed_cover_images/flyTerra_2016_08_19/split/DSC00315_9.JPG'
p1548
aI94
aI745
aa(lp1549
S'http://server.genobyte.us/ethan/weed_cover_images/flyTerra_2016_08_19/split/DSC00349_33.JPG'
p1550
aI340
aI460
aa(lp1551
S'http://server.genobyte.us/ethan/weed_cover_images/flyTerra_2016_08_19/split/DSC00333_4.JPG'
p1552
aI75
aI465
aa(lp1553
S'http://server.genobyte.us/ethan/weed_cover_images/flyTerra_2016_08_19/split/DSC00357_22.JPG'
p1554
aI737
aI16
aa(lp1555
S'http://server.genobyte.us/ethan/weed_cover_images/flyTerra_2016_08_19/split/DSC00358_45.JPG'
p1556
aI549
aI546
aa(lp1557
S'http://server.genobyte.us/ethan/weed_cover_images/flyTerra_2016_08_19/split/DSC00359_6.JPG'
p1558
aI524
aI76
aa(lp1559
S'http://server.genobyte.us/ethan/weed_cover_images/goreLab_08_09_2016/split/DSC05964_2.JPG'
p1560
aI424
aI1543
aa(lp1561
S'http://server.genobyte.us/ethan/weed_cover_images/goreLab_08_09_2016/split/DSC05965_3.JPG'
p1562
aI1497
aI1804
aa(lp1563
S'http://server.genobyte.us/ethan/weed_cover_images/flyTerra_2016_08_19/split/DSC00333_16.JPG'
p1564
aI118
aI808
aa(lp1565
S'http://server.genobyte.us/ethan/weed_cover_images/flyTerra_2016_08_19/split/DSC00319_12.JPG'
p1566
aI493
aI263
aa(lp1567
S'http://server.genobyte.us/ethan/weed_cover_images/flyTerra_2016_08_19/split/DSC00358_31.JPG'
p1568
aI494
aI39
aa(lp1569
S'http://server.genobyte.us/ethan/weed_cover_images/flyTerra_2016_08_19/split/DSC00330_32.JPG'
p1570
aI958
aI871
aa(lp1571
S'http://server.genobyte.us/ethan/weed_cover_images/flyTerra_2016_08_19/split/DSC00360_5.JPG'
p1572
aI394
aI686
aa(lp1573
S'http://server.genobyte.us/ethan/weed_cover_images/flyTerra_2016_08_19/split/DSC00362_31.JPG'
p1574
aI592
aI497
aa(lp1575
S'http://server.genobyte.us/ethan/weed_cover_images/flyTerra_2016_08_19/split/DSC00357_17.JPG'
p1576
aI28
aI246
aa(lp1577
S'http://server.genobyte.us/ethan/weed_cover_images/flyTerra_2016_08_19/split/DSC00316_25.JPG'
p1578
aI344
aI123
aa(lp1579
S'http://server.genobyte.us/ethan/weed_cover_images/goreLab_08_09_2016/split/DSC05789_1.JPG'
p1580
aI2069
aI357
aa(lp1581
S'http://server.genobyte.us/ethan/weed_cover_images/flyTerra_2016_08_19/split/DSC00347_45.JPG'
p1582
aI315
aI169
aa(lp1583
S'http://server.genobyte.us/ethan/weed_cover_images/flyTerra_2016_08_19/split/DSC00332_29.JPG'
p1584
aI62
aI468
aa(lp1585
S'http://server.genobyte.us/ethan/weed_cover_images/flyTerra_2016_08_19/split/DSC00320_13.JPG'
p1586
aI511
aI597
aa(lp1587
S'http://server.genobyte.us/ethan/weed_cover_images/goreLab_08_09_2016/split/DSC05988_2.JPG'
p1588
aI1117
aI231
aa(lp1589
S'http://server.genobyte.us/ethan/weed_cover_images/goreLab_08_10_2016/flight_1/split/IMG_2226_3.JPG'
p1590
aI276
aI63
aa(lp1591
S'http://server.genobyte.us/ethan/weed_cover_images/flyTerra_2016_08_19/split/DSC00330_2.JPG'
p1592
aI910
aI234
aa(lp1593
S'http://server.genobyte.us/ethan/weed_cover_images/flyTerra_2016_08_19/split/DSC00331_5.JPG'
p1594
aI564
aI608
aa(lp1595
S'http://server.genobyte.us/ethan/weed_cover_images/flyTerra_2016_08_19/split/DSC00326_37.JPG'
p1596
aI447
aI54
aa(lp1597
S'http://server.genobyte.us/ethan/weed_cover_images/goreLab_08_10_2016/flight_1/split/IMG_2188_1.JPG'
p1598
aI24
aI1452
aa(lp1599
S'http://server.genobyte.us/ethan/weed_cover_images/flyTerra_2016_08_19/split/DSC00361_9.JPG'
p1600
aI480
aI830
aa(lp1601
S'http://server.genobyte.us/ethan/weed_cover_images/goreLab_08_09_2016/split/DSC05954_1.JPG'
p1602
aI1227
aI467
aa(lp1603
S'http://server.genobyte.us/ethan/weed_cover_images/flyTerra_2016_08_19/split/DSC00363_8.JPG'
p1604
aI190
aI722
aa(lp1605
S'http://server.genobyte.us/ethan/weed_cover_images/goreLab_08_09_2016/split/DSC05899_0.JPG'
p1606
aI1481
aI1018
aa(lp1607
S'http://server.genobyte.us/ethan/weed_cover_images/flyTerra_2016_08_19/split/DSC00330_24.JPG'
p1608
aI169
aI254
aa(lp1609
S'http://server.genobyte.us/ethan/weed_cover_images/goreLab_08_09_2016/split/DSC05959_1.JPG'
p1610
aI2605
aI493
aa(lp1611
S'http://server.genobyte.us/ethan/weed_cover_images/flyTerra_2016_08_19/split/DSC00331_39.JPG'
p1612
aI233
aI756
aa(lp1613
S'http://server.genobyte.us/ethan/weed_cover_images/goreLab_08_09_2016/split/DSC05902_2.JPG'
p1614
aI1469
aI1449
aa(lp1615
S'http://server.genobyte.us/ethan/weed_cover_images/goreLab_08_10_2016/flight_2/IMG_1346.JPG'
p1616
aI3627
aI1878
aa(lp1617
S'http://server.genobyte.us/ethan/weed_cover_images/flyTerra_2016_08_19/split/DSC00328_42.JPG'
p1618
aI91
aI801
aa(lp1619
S'http://server.genobyte.us/ethan/weed_cover_images/flyTerra_2016_08_19/split/DSC00321_7.JPG'
p1620
aI233
aI514
aa(lp1621
S'http://server.genobyte.us/ethan/weed_cover_images/flyTerra_2016_08_19/split/DSC00354_46.JPG'
p1622
aI649
aI152
aa(lp1623
S'http://server.genobyte.us/ethan/weed_cover_images/goreLab_08_10_2016/flight_2/IMG_1360.JPG'
p1624
aI1194
aI1485
aa(lp1625
S'http://server.genobyte.us/ethan/weed_cover_images/goreLab_08_09_2016/split/DSC05894_3.JPG'
p1626
aI2280
aI40
aa(lp1627
S'http://server.genobyte.us/ethan/weed_cover_images/goreLab_08_09_2016/split/DSC05962_1.JPG'
p1628
aI525
aI98
aa(lp1629
S'http://server.genobyte.us/ethan/weed_cover_images/goreLab_08_09_2016/split/DSC05956_3.JPG'
p1630
aI643
aI1004
aa(lp1631
S'http://server.genobyte.us/ethan/weed_cover_images/flyTerra_2016_08_19/split/DSC00352_30.JPG'
p1632
aI29
aI152
aa(lp1633
S'http://server.genobyte.us/ethan/weed_cover_images/flyTerra_2016_08_19/split/DSC00329_13.JPG'
p1634
aI793
aI311
aa(lp1635
S'http://server.genobyte.us/ethan/weed_cover_images/flyTerra_2016_08_19/split/DSC00362_45.JPG'
p1636
aI434
aI338
aa(lp1637
S'http://server.genobyte.us/ethan/weed_cover_images/goreLab_08_09_2016/split/DSC05987_1.JPG'
p1638
aI1491
aI676
aa(lp1639
S'http://server.genobyte.us/ethan/weed_cover_images/flyTerra_2016_08_19/split/DSC00333_7.JPG'
p1640
aI727
aI278
aa(lp1641
S'http://server.genobyte.us/ethan/weed_cover_images/flyTerra_2016_08_19/split/DSC00332_47.JPG'
p1642
aI229
aI298
aa(lp1643
S'http://server.genobyte.us/ethan/weed_cover_images/flyTerra_2016_08_19/split/DSC00319_29.JPG'
p1644
aI261
aI234
aa(lp1645
S'http://server.genobyte.us/ethan/weed_cover_images/flyTerra_2016_08_19/split/DSC00348_7.JPG'
p1646
aI200
aI354
aa(lp1647
S'http://server.genobyte.us/ethan/weed_cover_images/flyTerra_2016_08_19/split/DSC00358_25.JPG'
p1648
aI639
aI807
aa(lp1649
S'http://server.genobyte.us/ethan/weed_cover_images/flyTerra_2016_08_19/split/DSC00317_42.JPG'
p1650
aI936
aI286
aa(lp1651
S'http://server.genobyte.us/ethan/weed_cover_images/flyTerra_2016_08_19/split/DSC00345_12.JPG'
p1652
aI213
aI878
aa(lp1653
S'http://server.genobyte.us/ethan/weed_cover_images/flyTerra_2016_08_19/split/DSC00331_30.JPG'
p1654
aI772
aI530
aa(lp1655
S'http://server.genobyte.us/ethan/weed_cover_images/flyTerra_2016_08_19/split/DSC00317_13.JPG'
p1656
aI170
aI100
aa(lp1657
S'http://server.genobyte.us/ethan/weed_cover_images/flyTerra_2016_08_19/split/DSC00324_20.JPG'
p1658
aI938
aI695
aa(lp1659
S'http://server.genobyte.us/ethan/weed_cover_images/flyTerra_2016_08_19/split/DSC00361_45.JPG'
p1660
aI354
aI240
aa(lp1661
S'http://server.genobyte.us/ethan/weed_cover_images/flyTerra_2016_08_19/split/DSC00320_26.JPG'
p1662
aI119
aI739
aa(lp1663
S'http://server.genobyte.us/ethan/weed_cover_images/flyTerra_2016_08_19/split/DSC00316_23.JPG'
p1664
aI988
aI115
aa(lp1665
S'http://server.genobyte.us/ethan/weed_cover_images/flyTerra_2016_08_19/split/DSC00322_37.JPG'
p1666
aI286
aI281
aa(lp1667
S'http://server.genobyte.us/ethan/weed_cover_images/goreLab_08_09_2016/split/DSC05857_0.JPG'
p1668
aI2844
aI1539
aa(lp1669
S'http://server.genobyte.us/ethan/weed_cover_images/flyTerra_2016_08_19/split/DSC00350_39.JPG'
p1670
aI26
aI137
aa(lp1671
S'http://server.genobyte.us/ethan/weed_cover_images/flyTerra_2016_08_19/split/DSC00332_2.JPG'
p1672
aI990
aI297
aa(lp1673
S'http://server.genobyte.us/ethan/weed_cover_images/flyTerra_2016_08_19/split/DSC00327_15.JPG'
p1674
aI946
aI63
aa(lp1675
S'http://server.genobyte.us/ethan/weed_cover_images/goreLab_08_09_2016/split/DSC05867_0.JPG'
p1676
aI1858
aI1565
aa(lp1677
S'http://server.genobyte.us/ethan/weed_cover_images/flyTerra_2016_08_19/split/DSC00353_17.JPG'
p1678
aI680
aI536
aa(lp1679
S'http://server.genobyte.us/ethan/weed_cover_images/flyTerra_2016_08_19/split/DSC00357_37.JPG'
p1680
aI473
aI469
aa(lp1681
S'http://server.genobyte.us/ethan/weed_cover_images/goreLab_08_09_2016/split/DSC05893_3.JPG'
p1682
aI2715
aI1617
aa(lp1683
S'http://server.genobyte.us/ethan/weed_cover_images/flyTerra_2016_08_19/split/DSC00325_20.JPG'
p1684
aI470
aI841
aa(lp1685
S'http://server.genobyte.us/ethan/weed_cover_images/flyTerra_2016_08_19/split/DSC00328_47.JPG'
p1686
aI955
aI653
aa(lp1687
S'http://server.genobyte.us/ethan/weed_cover_images/flyTerra_2016_08_19/split/DSC00328_26.JPG'
p1688
aI33
aI209
aa(lp1689
S'http://server.genobyte.us/ethan/weed_cover_images/flyTerra_2016_08_19/split/DSC00363_31.JPG'
p1690
aI287
aI701
aa(lp1691
S'http://server.genobyte.us/ethan/weed_cover_images/flyTerra_2016_08_19/split/DSC00353_19.JPG'
p1692
aI413
aI190
aa(lp1693
S'http://server.genobyte.us/ethan/weed_cover_images/flyTerra_2016_08_19/split/DSC00321_33.JPG'
p1694
aI981
aI320
aa(lp1695
S'http://server.genobyte.us/ethan/weed_cover_images/flyTerra_2016_08_19/split/DSC00316_31.JPG'
p1696
aI825
aI765
aa(lp1697
S'http://server.genobyte.us/ethan/weed_cover_images/flyTerra_2016_08_19/split/DSC00326_16.JPG'
p1698
aI870
aI399
aa(lp1699
S'http://server.genobyte.us/ethan/weed_cover_images/flyTerra_2016_08_19/split/DSC00352_35.JPG'
p1700
aI693
aI537
aa(lp1701
S'http://server.genobyte.us/ethan/weed_cover_images/flyTerra_2016_08_19/split/DSC00327_12.JPG'
p1702
aI828
aI600
aa(lp1703
S'http://server.genobyte.us/ethan/weed_cover_images/goreLab_08_09_2016/split/DSC05897_3.JPG'
p1704
aI2431
aI1898
aa(lp1705
S'http://server.genobyte.us/ethan/weed_cover_images/flyTerra_2016_08_19/split/DSC00359_27.JPG'
p1706
aI656
aI409
aa(lp1707
S'http://server.genobyte.us/ethan/weed_cover_images/flyTerra_2016_08_19/split/DSC00355_26.JPG'
p1708
aI296
aI426
aa(lp1709
S'http://server.genobyte.us/ethan/weed_cover_images/flyTerra_2016_08_19/split/DSC00325_35.JPG'
p1710
aI852
aI608
aa(lp1711
S'http://server.genobyte.us/ethan/weed_cover_images/flyTerra_2016_08_19/split/DSC00316_21.JPG'
p1712
aI421
aI262
aa(lp1713
S'http://server.genobyte.us/ethan/weed_cover_images/flyTerra_2016_08_19/split/DSC00346_43.JPG'
p1714
aI836
aI742
aa(lp1715
S'http://server.genobyte.us/ethan/weed_cover_images/flyTerra_2016_08_19/split/DSC00354_27.JPG'
p1716
aI74
aI125
aa(lp1717
S'http://server.genobyte.us/ethan/weed_cover_images/flyTerra_2016_08_19/split/DSC00317_43.JPG'
p1718
aI102
aI659
aa(lp1719
S'http://server.genobyte.us/ethan/weed_cover_images/flyTerra_2016_08_19/split/DSC00355_15.JPG'
p1720
aI184
aI110
aa(lp1721
S'http://server.genobyte.us/ethan/weed_cover_images/goreLab_08_10_2016/flight_1/split/IMG_2090_1.JPG'
p1722
aI586
aI141
aa(lp1723
S'http://server.genobyte.us/ethan/weed_cover_images/goreLab_08_10_2016/flight_1/split/IMG_2224_1.JPG'
p1724
aI1857
aI708
aa(lp1725
S'http://server.genobyte.us/ethan/weed_cover_images/flyTerra_2016_08_19/split/DSC00319_19.JPG'
p1726
aI271
aI337
aa(lp1727
S'http://server.genobyte.us/ethan/weed_cover_images/flyTerra_2016_08_19/split/DSC00358_14.JPG'
p1728
aI398
aI857
aa(lp1729
S'http://server.genobyte.us/ethan/weed_cover_images/flyTerra_2016_08_19/split/DSC00332_15.JPG'
p1730
aI682
aI482
aa(lp1731
S'http://server.genobyte.us/ethan/weed_cover_images/flyTerra_2016_08_19/split/DSC00331_42.JPG'
p1732
aI312
aI661
aa(lp1733
S'http://server.genobyte.us/ethan/weed_cover_images/flyTerra_2016_08_19/split/DSC00354_12.JPG'
p1734
aI435
aI662
aa(lp1735
S'http://server.genobyte.us/ethan/weed_cover_images/goreLab_08_09_2016/split/DSC05996_2.JPG'
p1736
aI229
aI1664
aa(lp1737
S'http://server.genobyte.us/ethan/weed_cover_images/flyTerra_2016_08_19/split/DSC00333_2.JPG'
p1738
aI852
aI503
aa(lp1739
S'http://server.genobyte.us/ethan/weed_cover_images/flyTerra_2016_08_19/split/DSC00363_13.JPG'
p1740
aI68
aI426
aa(lp1741
S'http://server.genobyte.us/ethan/weed_cover_images/flyTerra_2016_08_19/split/DSC00320_28.JPG'
p1742
aI205
aI570
aa(lp1743
S'http://server.genobyte.us/ethan/weed_cover_images/flyTerra_2016_08_19/split/DSC00321_32.JPG'
p1744
aI652
aI153
aa(lp1745
S'http://server.genobyte.us/ethan/weed_cover_images/flyTerra_2016_08_19/split/DSC00361_7.JPG'
p1746
aI853
aI74
aa(lp1747
S'http://server.genobyte.us/ethan/weed_cover_images/flyTerra_2016_08_19/split/DSC00347_42.JPG'
p1748
aI573
aI89
aa(lp1749
S'http://server.genobyte.us/ethan/weed_cover_images/flyTerra_2016_08_19/split/DSC00332_0.JPG'
p1750
aI122
aI511
aa(lp1751
S'http://server.genobyte.us/ethan/weed_cover_images/goreLab_08_09_2016/split/DSC05896_1.JPG'
p1752
aI1897
aI873
aa(lp1753
S'http://server.genobyte.us/ethan/weed_cover_images/flyTerra_2016_08_19/split/DSC00328_31.JPG'
p1754
aI147
aI205
aa(lp1755
S'http://server.genobyte.us/ethan/weed_cover_images/flyTerra_2016_08_19/split/DSC00344_40.JPG'
p1756
aI362
aI403
aa(lp1757
S'http://server.genobyte.us/ethan/weed_cover_images/flyTerra_2016_08_19/split/DSC00362_33.JPG'
p1758
aI816
aI716
aa(lp1759
S'http://server.genobyte.us/ethan/weed_cover_images/flyTerra_2016_08_19/split/DSC00330_39.JPG'
p1760
aI682
aI476
aa(lp1761
S'http://server.genobyte.us/ethan/weed_cover_images/flyTerra_2016_08_19/split/DSC00316_44.JPG'
p1762
aI596
aI228
aa(lp1763
S'http://server.genobyte.us/ethan/weed_cover_images/flyTerra_2016_08_19/split/DSC00350_11.JPG'
p1764
aI914
aI614
aa(lp1765
S'http://server.genobyte.us/ethan/weed_cover_images/flyTerra_2016_08_19/split/DSC00348_25.JPG'
p1766
aI165
aI459
aa(lp1767
S'http://server.genobyte.us/ethan/weed_cover_images/flyTerra_2016_08_19/split/DSC00353_21.JPG'
p1768
aI918
aI33
aa(lp1769
S'http://server.genobyte.us/ethan/weed_cover_images/flyTerra_2016_08_19/split/DSC00330_27.JPG'
p1770
aI758
aI545
aa(lp1771
S'http://server.genobyte.us/ethan/weed_cover_images/goreLab_08_09_2016/split/DSC05895_2.JPG'
p1772
aI2282
aI11
aa(lp1773
S'http://server.genobyte.us/ethan/weed_cover_images/flyTerra_2016_08_19/split/DSC00362_8.JPG'
p1774
aI462
aI47
aa(lp1775
S'http://server.genobyte.us/ethan/weed_cover_images/flyTerra_2016_08_19/split/DSC00333_39.JPG'
p1776
aI725
aI363
aa(lp1777
S'http://server.genobyte.us/ethan/weed_cover_images/flyTerra_2016_08_19/split/DSC00354_43.JPG'
p1778
aI43
aI325
aa(lp1779
S'http://server.genobyte.us/ethan/weed_cover_images/flyTerra_2016_08_19/split/DSC00345_47.JPG'
p1780
aI65
aI846
aa(lp1781
S'http://server.genobyte.us/ethan/weed_cover_images/flyTerra_2016_08_19/split/DSC00345_8.JPG'
p1782
aI581
aI173
aa(lp1783
S'http://server.genobyte.us/ethan/weed_cover_images/flyTerra_2016_08_19/split/DSC00361_42.JPG'
p1784
aI174
aI694
aa(lp1785
S'http://server.genobyte.us/ethan/weed_cover_images/flyTerra_2016_08_19/split/DSC00354_41.JPG'
p1786
aI420
aI121
aa(lp1787
S'http://server.genobyte.us/ethan/weed_cover_images/flyTerra_2016_08_19/split/DSC00318_26.JPG'
p1788
aI353
aI233
aa(lp1789
S'http://server.genobyte.us/ethan/weed_cover_images/goreLab_08_10_2016/flight_1/split/IMG_2187_1.JPG'
p1790
aI840
aI754
aa(lp1791
S'http://server.genobyte.us/ethan/weed_cover_images/flyTerra_2016_08_19/split/DSC00333_34.JPG'
p1792
aI387
aI828
aa(lp1793
S'http://server.genobyte.us/ethan/weed_cover_images/flyTerra_2016_08_19/split/DSC00350_29.JPG'
p1794
aI512
aI470
aa(lp1795
S'http://server.genobyte.us/ethan/weed_cover_images/flyTerra_2016_08_19/split/DSC00362_18.JPG'
p1796
aI74
aI443
aa(lp1797
S'http://server.genobyte.us/ethan/weed_cover_images/flyTerra_2016_08_19/split/DSC00345_19.JPG'
p1798
aI629
aI510
aa(lp1799
S'http://server.genobyte.us/ethan/weed_cover_images/flyTerra_2016_08_19/split/DSC00322_12.JPG'
p1800
aI36
aI401
aa(lp1801
S'http://server.genobyte.us/ethan/weed_cover_images/flyTerra_2016_08_19/split/DSC00353_46.JPG'
p1802
aI564
aI756
aa(lp1803
S'http://server.genobyte.us/ethan/weed_cover_images/flyTerra_2016_08_19/split/DSC00318_23.JPG'
p1804
aI904
aI255
aa(lp1805
S'http://server.genobyte.us/ethan/weed_cover_images/flyTerra_2016_08_19/split/DSC00352_32.JPG'
p1806
aI53
aI659
aa(lp1807
S'http://server.genobyte.us/ethan/weed_cover_images/flyTerra_2016_08_19/split/DSC00345_43.JPG'
p1808
aI285
aI681
aa(lp1809
S'http://server.genobyte.us/ethan/weed_cover_images/flyTerra_2016_08_19/split/DSC00362_3.JPG'
p1810
aI173
aI142
aa(lp1811
S'http://server.genobyte.us/ethan/weed_cover_images/flyTerra_2016_08_19/split/DSC00348_32.JPG'
p1812
aI794
aI93
aa(lp1813
S'http://server.genobyte.us/ethan/weed_cover_images/flyTerra_2016_08_19/split/DSC00352_40.JPG'
p1814
aI344
aI97
aa(lp1815
S'http://server.genobyte.us/ethan/weed_cover_images/flyTerra_2016_08_19/split/DSC00349_26.JPG'
p1816
aI444
aI250
aa(lp1817
S'http://server.genobyte.us/ethan/weed_cover_images/flyTerra_2016_08_19/split/DSC00327_39.JPG'
p1818
aI60
aI791
aa(lp1819
S'http://server.genobyte.us/ethan/weed_cover_images/flyTerra_2016_08_19/split/DSC00354_11.JPG'
p1820
aI46
aI766
aa(lp1821
S'http://server.genobyte.us/ethan/weed_cover_images/goreLab_08_09_2016/split/DSC05855_3.JPG'
p1822
aI2879
aI969
aa(lp1823
S'http://server.genobyte.us/ethan/weed_cover_images/flyTerra_2016_08_19/split/DSC00330_7.JPG'
p1824
aI893
aI550
aa(lp1825
S'http://server.genobyte.us/ethan/weed_cover_images/flyTerra_2016_08_19/split/DSC00349_38.JPG'
p1826
aI839
aI293
aa(lp1827
S'http://server.genobyte.us/ethan/weed_cover_images/flyTerra_2016_08_19/split/DSC00328_24.JPG'
p1828
aI981
aI618
aa(lp1829
S'http://server.genobyte.us/ethan/weed_cover_images/goreLab_08_10_2016/flight_1/split/IMG_2224_2.JPG'
p1830
aI492
aI1419
aa(lp1831
S'http://server.genobyte.us/ethan/weed_cover_images/goreLab_08_09_2016/split/DSC05786_1.JPG'
p1832
aI2348
aI1656
aa(lp1833
S'http://server.genobyte.us/ethan/weed_cover_images/flyTerra_2016_08_19/split/DSC00347_23.JPG'
p1834
aI98
aI89
aa(lp1835
S'http://server.genobyte.us/ethan/weed_cover_images/flyTerra_2016_08_19/split/DSC00363_30.JPG'
p1836
aI247
aI128
aa(lp1837
S'http://server.genobyte.us/ethan/weed_cover_images/flyTerra_2016_08_19/split/DSC00355_8.JPG'
p1838
aI866
aI146
aa(lp1839
S'http://server.genobyte.us/ethan/weed_cover_images/flyTerra_2016_08_19/split/DSC00330_40.JPG'
p1840
aI406
aI512
aa(lp1841
S'http://server.genobyte.us/ethan/weed_cover_images/flyTerra_2016_08_19/split/DSC00323_8.JPG'
p1842
aI881
aI377
aa(lp1843
S'http://server.genobyte.us/ethan/weed_cover_images/flyTerra_2016_08_19/split/DSC00317_8.JPG'
p1844
aI439
aI75
aa(lp1845
S'http://server.genobyte.us/ethan/weed_cover_images/flyTerra_2016_08_19/split/DSC00360_15.JPG'
p1846
aI885
aI643
aa(lp1847
S'http://server.genobyte.us/ethan/weed_cover_images/flyTerra_2016_08_19/split/DSC00355_38.JPG'
p1848
aI660
aI679
aa(lp1849
S'http://server.genobyte.us/ethan/weed_cover_images/flyTerra_2016_08_19/split/DSC00351_8.JPG'
p1850
aI45
aI780
aa(lp1851
S'http://server.genobyte.us/ethan/weed_cover_images/flyTerra_2016_08_19/split/DSC00325_27.JPG'
p1852
aI742
aI466
aa(lp1853
S'http://server.genobyte.us/ethan/weed_cover_images/flyTerra_2016_08_19/split/DSC00333_31.JPG'
p1854
aI43
aI376
aa(lp1855
S'http://server.genobyte.us/ethan/weed_cover_images/flyTerra_2016_08_19/split/DSC00329_12.JPG'
p1856
aI942
aI5
aa(lp1857
S'http://server.genobyte.us/ethan/weed_cover_images/flyTerra_2016_08_19/split/DSC00358_26.JPG'
p1858
aI527
aI139
aa(lp1859
S'http://server.genobyte.us/ethan/weed_cover_images/goreLab_08_10_2016/flight_1/split/IMG_2210_2.JPG'
p1860
aI1302
aI246
aa(lp1861
S'http://server.genobyte.us/ethan/weed_cover_images/flyTerra_2016_08_19/split/DSC00360_20.JPG'
p1862
aI641
aI7
aa(lp1863
S'http://server.genobyte.us/ethan/weed_cover_images/flyTerra_2016_08_19/split/DSC00327_22.JPG'
p1864
aI451
aI186
aa(lp1865
S'http://server.genobyte.us/ethan/weed_cover_images/flyTerra_2016_08_19/split/DSC00331_36.JPG'
p1866
aI648
aI328
aa(lp1867
S'http://server.genobyte.us/ethan/weed_cover_images/flyTerra_2016_08_19/split/DSC00344_38.JPG'
p1868
aI497
aI852
aa(lp1869
S'http://server.genobyte.us/ethan/weed_cover_images/flyTerra_2016_08_19/split/DSC00347_1.JPG'
p1870
aI85
aI397
aa(lp1871
S'http://server.genobyte.us/ethan/weed_cover_images/goreLab_08_09_2016/split/DSC05790_0.JPG'
p1872
aI1154
aI769
aa(lp1873
S'http://server.genobyte.us/ethan/weed_cover_images/flyTerra_2016_08_19/split/DSC00355_41.JPG'
p1874
aI590
aI187
aa(lp1875
S'http://server.genobyte.us/ethan/weed_cover_images/flyTerra_2016_08_19/split/DSC00320_29.JPG'
p1876
aI765
aI116
aa(lp1877
S'http://server.genobyte.us/ethan/weed_cover_images/flyTerra_2016_08_19/split/DSC00319_27.JPG'
p1878
aI149
aI825
aa(lp1879
S'http://server.genobyte.us/ethan/weed_cover_images/flyTerra_2016_08_19/split/DSC00361_30.JPG'
p1880
aI645
aI119
aa(lp1881
S'http://server.genobyte.us/ethan/weed_cover_images/flyTerra_2016_08_19/split/DSC00325_12.JPG'
p1882
aI905
aI31
aa(lp1883
S'http://server.genobyte.us/ethan/weed_cover_images/flyTerra_2016_08_19/split/DSC00329_5.JPG'
p1884
aI820
aI390
aa(lp1885
S'http://server.genobyte.us/ethan/weed_cover_images/goreLab_08_10_2016/flight_1/split/IMG_2210_1.JPG'
p1886
aI406
aI887
aa(lp1887
S'http://server.genobyte.us/ethan/weed_cover_images/flyTerra_2016_08_19/split/DSC00330_6.JPG'
p1888
aI65
aI522
aa(lp1889
S'http://server.genobyte.us/ethan/weed_cover_images/flyTerra_2016_08_19/split/DSC00358_16.JPG'
p1890
aI424
aI239
aa(lp1891
S'http://server.genobyte.us/ethan/weed_cover_images/flyTerra_2016_08_19/split/DSC00355_39.JPG'
p1892
aI9
aI232
aa(lp1893
S'http://server.genobyte.us/ethan/weed_cover_images/flyTerra_2016_08_19/split/DSC00332_19.JPG'
p1894
aI636
aI616
aa(lp1895
S'http://server.genobyte.us/ethan/weed_cover_images/flyTerra_2016_08_19/split/DSC00355_47.JPG'
p1896
aI956
aI870
aa(lp1897
S'http://server.genobyte.us/ethan/weed_cover_images/flyTerra_2016_08_19/split/DSC00317_25.JPG'
p1898
aI478
aI76
aa(lp1899
S'http://server.genobyte.us/ethan/weed_cover_images/goreLab_08_09_2016/split/DSC05858_3.JPG'
p1900
aI310
aI43
aa(lp1901
S'http://server.genobyte.us/ethan/weed_cover_images/flyTerra_2016_08_19/split/DSC00328_44.JPG'
p1902
aI938
aI65
aa(lp1903
S'http://server.genobyte.us/ethan/weed_cover_images/flyTerra_2016_08_19/split/DSC00324_37.JPG'
p1904
aI815
aI142
aa(lp1905
S'http://server.genobyte.us/ethan/weed_cover_images/flyTerra_2016_08_19/split/DSC00318_21.JPG'
p1906
aI127
aI87
aa(lp1907
S'http://server.genobyte.us/ethan/weed_cover_images/flyTerra_2016_08_19/split/DSC00345_21.JPG'
p1908
aI68
aI522
aa(lp1909
S'http://server.genobyte.us/ethan/weed_cover_images/flyTerra_2016_08_19/split/DSC00353_27.JPG'
p1910
aI425
aI675
aa(lp1911
S'http://server.genobyte.us/ethan/weed_cover_images/flyTerra_2016_08_19/split/DSC00329_44.JPG'
p1912
aI878
aI307
aa(lp1913
S'http://server.genobyte.us/ethan/weed_cover_images/flyTerra_2016_08_19/split/DSC00360_14.JPG'
p1914
aI486
aI512
aa(lp1915
S'http://server.genobyte.us/ethan/weed_cover_images/flyTerra_2016_08_19/split/DSC00361_26.JPG'
p1916
aI671
aI326
aa(lp1917
S'http://server.genobyte.us/ethan/weed_cover_images/flyTerra_2016_08_19/split/DSC00357_16.JPG'
p1918
aI328
aI713
aa(lp1919
S'http://server.genobyte.us/ethan/weed_cover_images/flyTerra_2016_08_19/split/DSC00351_15.JPG'
p1920
aI138
aI21
aa(lp1921
S'http://server.genobyte.us/ethan/weed_cover_images/flyTerra_2016_08_19/split/DSC00353_7.JPG'
p1922
aI674
aI773
aa(lp1923
S'http://server.genobyte.us/ethan/weed_cover_images/goreLab_08_10_2016/flight_1/split/IMG_2092_1.JPG'
p1924
aI120
aI1318
aa(lp1925
S'http://server.genobyte.us/ethan/weed_cover_images/flyTerra_2016_08_19/split/DSC00347_12.JPG'
p1926
aI729
aI583
aa(lp1927
S'http://server.genobyte.us/ethan/weed_cover_images/goreLab_08_09_2016/split/DSC05996_3.JPG'
p1928
aI478
aI1113
aa(lp1929
S'http://server.genobyte.us/ethan/weed_cover_images/flyTerra_2016_08_19/split/DSC00331_16.JPG'
p1930
aI813
aI560
aa(lp1931
S'http://server.genobyte.us/ethan/weed_cover_images/flyTerra_2016_08_19/split/DSC00359_19.JPG'
p1932
aI436
aI716
aa(lp1933
S'http://server.genobyte.us/ethan/weed_cover_images/flyTerra_2016_08_19/split/DSC00358_5.JPG'
p1934
aI620
aI601
aa(lp1935
S'http://server.genobyte.us/ethan/weed_cover_images/flyTerra_2016_08_19/split/DSC00360_19.JPG'
p1936
aI320
aI580
aa(lp1937
S'http://server.genobyte.us/ethan/weed_cover_images/flyTerra_2016_08_19/split/DSC00329_16.JPG'
p1938
aI319
aI829
aa(lp1939
S'http://server.genobyte.us/ethan/weed_cover_images/flyTerra_2016_08_19/split/DSC00356_18.JPG'
p1940
aI205
aI830
aa(lp1941
S'http://server.genobyte.us/ethan/weed_cover_images/flyTerra_2016_08_19/split/DSC00350_2.JPG'
p1942
aI962
aI485
aa(lp1943
S'http://server.genobyte.us/ethan/weed_cover_images/goreLab_08_09_2016/split/DSC05988_0.JPG'
p1944
aI81
aI321
aa(lp1945
S'http://server.genobyte.us/ethan/weed_cover_images/flyTerra_2016_08_19/split/DSC00329_24.JPG'
p1946
aI763
aI825
aa(lp1947
S'http://server.genobyte.us/ethan/weed_cover_images/flyTerra_2016_08_19/split/DSC00346_36.JPG'
p1948
aI783
aI304
aa(lp1949
S'http://server.genobyte.us/ethan/weed_cover_images/flyTerra_2016_08_19/split/DSC00323_36.JPG'
p1950
aI336
aI11
aa(lp1951
S'http://server.genobyte.us/ethan/weed_cover_images/flyTerra_2016_08_19/split/DSC00318_47.JPG'
p1952
aI801
aI195
aa(lp1953
S'http://server.genobyte.us/ethan/weed_cover_images/flyTerra_2016_08_19/split/DSC00324_23.JPG'
p1954
aI101
aI174
aa(lp1955
S'http://server.genobyte.us/ethan/weed_cover_images/flyTerra_2016_08_19/split/DSC00354_23.JPG'
p1956
aI338
aI839
aa(lp1957
S'http://server.genobyte.us/ethan/weed_cover_images/goreLab_08_09_2016/split/DSC05862_2.JPG'
p1958
aI1405
aI527
aa(lp1959
S'http://server.genobyte.us/ethan/weed_cover_images/goreLab_08_10_2016/flight_2/IMG_1402.JPG'
p1960
aI310
aI506
aa(lp1961
S'http://server.genobyte.us/ethan/weed_cover_images/flyTerra_2016_08_19/split/DSC00332_36.JPG'
p1962
aI371
aI497
aa(lp1963
S'http://server.genobyte.us/ethan/weed_cover_images/flyTerra_2016_08_19/split/DSC00348_41.JPG'
p1964
aI807
aI589
aa(lp1965
S'http://server.genobyte.us/ethan/weed_cover_images/flyTerra_2016_08_19/split/DSC00345_46.JPG'
p1966
aI499
aI663
aa(lp1967
S'http://server.genobyte.us/ethan/weed_cover_images/flyTerra_2016_08_19/split/DSC00320_42.JPG'
p1968
aI520
aI27
aa(lp1969
S'http://server.genobyte.us/ethan/weed_cover_images/flyTerra_2016_08_19/split/DSC00324_11.JPG'
p1970
aI249
aI313
aa(lp1971
S'http://server.genobyte.us/ethan/weed_cover_images/flyTerra_2016_08_19/split/DSC00353_3.JPG'
p1972
aI217
aI450
aa(lp1973
S'http://server.genobyte.us/ethan/weed_cover_images/flyTerra_2016_08_19/split/DSC00322_3.JPG'
p1974
aI633
aI541
aa(lp1975
S'http://server.genobyte.us/ethan/weed_cover_images/flyTerra_2016_08_19/split/DSC00362_30.JPG'
p1976
aI665
aI59
aa(lp1977
S'http://server.genobyte.us/ethan/weed_cover_images/goreLab_08_09_2016/split/DSC05958_3.JPG'
p1978
aI1894
aI878
aa(lp1979
S'http://server.genobyte.us/ethan/weed_cover_images/goreLab_08_09_2016/split/DSC05789_0.JPG'
p1980
aI971
aI149
aa(lp1981
S'http://server.genobyte.us/ethan/weed_cover_images/flyTerra_2016_08_19/split/DSC00333_46.JPG'
p1982
aI80
aI440
aa(lp1983
S'http://server.genobyte.us/ethan/weed_cover_images/flyTerra_2016_08_19/split/DSC00323_47.JPG'
p1984
aI6
aI733
aa(lp1985
S'http://server.genobyte.us/ethan/weed_cover_images/flyTerra_2016_08_19/split/DSC00317_5.JPG'
p1986
aI98
aI78
aa(lp1987
S'http://server.genobyte.us/ethan/weed_cover_images/flyTerra_2016_08_19/split/DSC00351_2.JPG'
p1988
aI712
aI766
aa(lp1989
S'http://server.genobyte.us/ethan/weed_cover_images/flyTerra_2016_08_19/split/DSC00357_19.JPG'
p1990
aI425
aI552
aa(lp1991
S'http://server.genobyte.us/ethan/weed_cover_images/flyTerra_2016_08_19/split/DSC00331_7.JPG'
p1992
aI582
aI776
aa(lp1993
S'http://server.genobyte.us/ethan/weed_cover_images/flyTerra_2016_08_19/split/DSC00345_40.JPG'
p1994
aI377
aI456
aa(lp1995
S'http://server.genobyte.us/ethan/weed_cover_images/flyTerra_2016_08_19/split/DSC00324_10.JPG'
p1996
aI463
aI453
aa(lp1997
S'http://server.genobyte.us/ethan/weed_cover_images/flyTerra_2016_08_19/split/DSC00358_2.JPG'
p1998
aI347
aI558
aa(lp1999
S'http://server.genobyte.us/ethan/weed_cover_images/flyTerra_2016_08_19/split/DSC00324_41.JPG'
p2000
aI277
aI81
aa.