(lp0
S'http://128.84.3.178/ethan/weed_cover_images/goreLab_08_09_2016/split/DSC05790_3.JPG'
p1
aS'http://128.84.3.178/ethan/weed_cover_images/goreLab_08_09_2016/split/DSC05900_3.JPG'
p2
aS'http://128.84.3.178/ethan/weed_cover_images/goreLab_08_09_2016/split/DSC05863_1.JPG'
p3
aS'http://128.84.3.178/ethan/weed_cover_images/goreLab_08_09_2016/split/DSC05866_2.JPG'
p4
aS'http://128.84.3.178/ethan/weed_cover_images/goreLab_08_09_2016/split/DSC05785_2.JPG'
p5
aS'http://128.84.3.178/ethan/weed_cover_images/goreLab_08_09_2016/split/DSC05893_0.JPG'
p6
aS'http://128.84.3.178/ethan/weed_cover_images/goreLab_08_09_2016/split/DSC05999_2.JPG'
p7
aS'http://128.84.3.178/ethan/weed_cover_images/goreLab_08_09_2016/split/DSC05896_3.JPG'
p8
aS'http://128.84.3.178/ethan/weed_cover_images/goreLab_08_09_2016/split/DSC05784_0.JPG'
p9
aS'http://128.84.3.178/ethan/weed_cover_images/goreLab_08_09_2016/split/DSC05988_3.JPG'
p10
aS'http://128.84.3.178/ethan/weed_cover_images/goreLab_08_09_2016/split/DSC05954_0.JPG'
p11
aS'http://128.84.3.178/ethan/weed_cover_images/goreLab_08_09_2016/split/DSC05901_2.JPG'
p12
aS'http://128.84.3.178/ethan/weed_cover_images/goreLab_08_09_2016/split/DSC05995_2.JPG'
p13
aS'http://128.84.3.178/ethan/weed_cover_images/goreLab_08_09_2016/split/DSC05997_1.JPG'
p14
aS'http://128.84.3.178/ethan/weed_cover_images/goreLab_08_09_2016/split/DSC05867_3.JPG'
p15
aS'http://128.84.3.178/ethan/weed_cover_images/goreLab_08_09_2016/split/DSC05786_0.JPG'
p16
aS'http://128.84.3.178/ethan/weed_cover_images/goreLab_08_09_2016/split/DSC05857_2.JPG'
p17
aS'http://128.84.3.178/ethan/weed_cover_images/goreLab_08_09_2016/split/DSC05956_2.JPG'
p18
aS'http://128.84.3.178/ethan/weed_cover_images/goreLab_08_09_2016/split/DSC05897_1.JPG'
p19
aS'http://128.84.3.178/ethan/weed_cover_images/goreLab_08_09_2016/split/DSC05793_3.JPG'
p20
aS'http://128.84.3.178/ethan/weed_cover_images/goreLab_08_09_2016/split/DSC05992_0.JPG'
p21
aS'http://128.84.3.178/ethan/weed_cover_images/goreLab_08_10_2016/flight_2/IMG_1399.JPG'
p22
aS'http://128.84.3.178/ethan/weed_cover_images/goreLab_08_09_2016/split/DSC05795_0.JPG'
p23
aS'http://128.84.3.178/ethan/weed_cover_images/goreLab_08_09_2016/split/DSC05866_0.JPG'
p24
aS'http://128.84.3.178/ethan/weed_cover_images/goreLab_08_09_2016/split/DSC05899_3.JPG'
p25
aS'http://128.84.3.178/ethan/weed_cover_images/goreLab_08_09_2016/split/DSC05855_2.JPG'
p26
aS'http://128.84.3.178/ethan/weed_cover_images/goreLab_08_09_2016/split/DSC05965_2.JPG'
p27
aS'http://128.84.3.178/ethan/weed_cover_images/goreLab_08_10_2016/flight_2/IMG_1387.JPG'
p28
aS'http://128.84.3.178/ethan/weed_cover_images/goreLab_08_09_2016/split/DSC05997_0.JPG'
p29
aS'http://128.84.3.178/ethan/weed_cover_images/goreLab_08_09_2016/split/DSC05992_3.JPG'
p30
aS'http://128.84.3.178/ethan/weed_cover_images/goreLab_08_09_2016/split/DSC05963_3.JPG'
p31
aS'http://128.84.3.178/ethan/weed_cover_images/goreLab_08_09_2016/split/DSC05963_2.JPG'
p32
aS'http://128.84.3.178/ethan/weed_cover_images/goreLab_08_09_2016/split/DSC05991_0.JPG'
p33
aS'http://128.84.3.178/ethan/weed_cover_images/goreLab_08_09_2016/split/DSC05991_2.JPG'
p34
aS'http://128.84.3.178/ethan/weed_cover_images/goreLab_08_10_2016/flight_2/IMG_1359.JPG'
p35
aS'http://128.84.3.178/ethan/weed_cover_images/goreLab_08_09_2016/split/DSC05859_0.JPG'
p36
aS'http://128.84.3.178/ethan/weed_cover_images/goreLab_08_09_2016/split/DSC05991_1.JPG'
p37
aS'http://128.84.3.178/ethan/weed_cover_images/goreLab_08_09_2016/split/DSC05965_0.JPG'
p38
aS'http://128.84.3.178/ethan/weed_cover_images/goreLab_08_09_2016/split/DSC05987_2.JPG'
p39
aS'http://128.84.3.178/ethan/weed_cover_images/goreLab_08_09_2016/split/DSC05890_1.JPG'
p40
aS'http://128.84.3.178/ethan/weed_cover_images/goreLab_08_10_2016/flight_2/IMG_1426.JPG'
p41
aS'http://128.84.3.178/ethan/weed_cover_images/goreLab_08_09_2016/split/DSC05795_3.JPG'
p42
aS'http://128.84.3.178/ethan/weed_cover_images/goreLab_08_09_2016/split/DSC05863_0.JPG'
p43
aS'http://128.84.3.178/ethan/weed_cover_images/goreLab_08_10_2016/flight_2/IMG_1348.JPG'
p44
aS'http://128.84.3.178/ethan/weed_cover_images/goreLab_08_10_2016/flight_2/IMG_1853.JPG'
p45
aS'http://128.84.3.178/ethan/weed_cover_images/goreLab_08_09_2016/split/DSC05791_1.JPG'
p46
aS'http://128.84.3.178/ethan/weed_cover_images/goreLab_08_10_2016/flight_2/IMG_1442.JPG'
p47
aS'http://128.84.3.178/ethan/weed_cover_images/goreLab_08_09_2016/split/DSC05989_2.JPG'
p48
aS'http://128.84.3.178/ethan/weed_cover_images/goreLab_08_09_2016/split/DSC05890_3.JPG'
p49
aS'http://128.84.3.178/ethan/weed_cover_images/goreLab_08_09_2016/split/DSC05963_0.JPG'
p50
aS'http://128.84.3.178/ethan/weed_cover_images/goreLab_08_09_2016/split/DSC05902_1.JPG'
p51
aS'http://128.84.3.178/ethan/weed_cover_images/goreLab_08_09_2016/split/DSC05889_2.JPG'
p52
aS'http://128.84.3.178/ethan/weed_cover_images/goreLab_08_09_2016/split/DSC05994_2.JPG'
p53
aS'http://128.84.3.178/ethan/weed_cover_images/goreLab_08_09_2016/split/DSC05856_0.JPG'
p54
aS'http://128.84.3.178/ethan/weed_cover_images/goreLab_08_09_2016/split/DSC05961_3.JPG'
p55
aS'http://128.84.3.178/ethan/weed_cover_images/goreLab_08_09_2016/split/DSC05784_1.JPG'
p56
aS'http://128.84.3.178/ethan/weed_cover_images/goreLab_08_09_2016/split/DSC05960_0.JPG'
p57
aS'http://128.84.3.178/ethan/weed_cover_images/goreLab_08_09_2016/split/DSC05861_3.JPG'
p58
aS'http://128.84.3.178/ethan/weed_cover_images/goreLab_08_09_2016/split/DSC05791_0.JPG'
p59
aS'http://128.84.3.178/ethan/weed_cover_images/goreLab_08_09_2016/split/DSC05895_1.JPG'
p60
aS'http://128.84.3.178/ethan/weed_cover_images/goreLab_08_10_2016/flight_2/IMG_1398.JPG'
p61
aS'http://128.84.3.178/ethan/weed_cover_images/goreLab_08_09_2016/split/DSC05961_2.JPG'
p62
aS'http://128.84.3.178/ethan/weed_cover_images/goreLab_08_10_2016/flight_2/IMG_1864.JPG'
p63
aS'http://128.84.3.178/ethan/weed_cover_images/goreLab_08_09_2016/split/DSC05989_0.JPG'
p64
aS'http://128.84.3.178/ethan/weed_cover_images/goreLab_08_09_2016/split/DSC05987_0.JPG'
p65
aS'http://128.84.3.178/ethan/weed_cover_images/goreLab_08_09_2016/split/DSC05957_3.JPG'
p66
aS'http://128.84.3.178/ethan/weed_cover_images/goreLab_08_09_2016/split/DSC05892_1.JPG'
p67
aS'http://128.84.3.178/ethan/weed_cover_images/goreLab_08_10_2016/flight_2/IMG_1345.JPG'
p68
aS'http://128.84.3.178/ethan/weed_cover_images/goreLab_08_09_2016/split/DSC05787_2.JPG'
p69
aS'http://128.84.3.178/ethan/weed_cover_images/goreLab_08_09_2016/split/DSC05855_0.JPG'
p70
aS'http://128.84.3.178/ethan/weed_cover_images/goreLab_08_09_2016/split/DSC05863_2.JPG'
p71
aS'http://128.84.3.178/ethan/weed_cover_images/goreLab_08_09_2016/split/DSC05786_2.JPG'
p72
aS'http://128.84.3.178/ethan/weed_cover_images/goreLab_08_09_2016/split/DSC05892_3.JPG'
p73
aS'http://128.84.3.178/ethan/weed_cover_images/goreLab_08_09_2016/split/DSC05957_1.JPG'
p74
aS'http://128.84.3.178/ethan/weed_cover_images/goreLab_08_09_2016/split/DSC05793_2.JPG'
p75
aS'http://128.84.3.178/ethan/weed_cover_images/goreLab_08_09_2016/split/DSC05860_0.JPG'
p76
aS'http://128.84.3.178/ethan/weed_cover_images/goreLab_08_09_2016/split/DSC05864_2.JPG'
p77
aS'http://128.84.3.178/ethan/weed_cover_images/goreLab_08_09_2016/split/DSC05993_0.JPG'
p78
aS'http://128.84.3.178/ethan/weed_cover_images/goreLab_08_09_2016/split/DSC05994_3.JPG'
p79
aS'http://128.84.3.178/ethan/weed_cover_images/goreLab_08_09_2016/split/DSC05783_3.JPG'
p80
aS'http://128.84.3.178/ethan/weed_cover_images/goreLab_08_09_2016/split/DSC05787_3.JPG'
p81
aS'http://128.84.3.178/ethan/weed_cover_images/goreLab_08_09_2016/split/DSC05790_2.JPG'
p82
aS'http://128.84.3.178/ethan/weed_cover_images/goreLab_08_10_2016/flight_2/IMG_1443.JPG'
p83
aS'http://128.84.3.178/ethan/weed_cover_images/goreLab_08_09_2016/split/DSC05889_0.JPG'
p84
aS'http://128.84.3.178/ethan/weed_cover_images/goreLab_08_09_2016/split/DSC05999_1.JPG'
p85
aS'http://128.84.3.178/ethan/weed_cover_images/goreLab_08_10_2016/flight_2/IMG_1478.JPG'
p86
aS'http://128.84.3.178/ethan/weed_cover_images/goreLab_08_09_2016/split/DSC05859_1.JPG'
p87
aS'http://128.84.3.178/ethan/weed_cover_images/goreLab_08_09_2016/split/DSC05784_3.JPG'
p88
aS'http://128.84.3.178/ethan/weed_cover_images/goreLab_08_09_2016/split/DSC05958_1.JPG'
p89
aS'http://128.84.3.178/ethan/weed_cover_images/goreLab_08_09_2016/split/DSC05865_1.JPG'
p90
aS'http://128.84.3.178/ethan/weed_cover_images/goreLab_08_09_2016/split/DSC05791_3.JPG'
p91
aS'http://128.84.3.178/ethan/weed_cover_images/goreLab_08_09_2016/split/DSC05956_0.JPG'
p92
aS'http://128.84.3.178/ethan/weed_cover_images/goreLab_08_10_2016/flight_2/IMG_1710.JPG'
p93
aS'http://128.84.3.178/ethan/weed_cover_images/goreLab_08_09_2016/split/DSC05865_2.JPG'
p94
aS'http://128.84.3.178/ethan/weed_cover_images/goreLab_08_09_2016/split/DSC05789_2.JPG'
p95
aS'http://128.84.3.178/ethan/weed_cover_images/goreLab_08_09_2016/split/DSC05900_0.JPG'
p96
aS'http://128.84.3.178/ethan/weed_cover_images/goreLab_08_09_2016/split/DSC05891_3.JPG'
p97
aS'http://128.84.3.178/ethan/weed_cover_images/goreLab_08_09_2016/split/DSC05961_0.JPG'
p98
aS'http://128.84.3.178/ethan/weed_cover_images/goreLab_08_09_2016/split/DSC05993_1.JPG'
p99
aS'http://128.84.3.178/ethan/weed_cover_images/goreLab_08_09_2016/split/DSC05857_3.JPG'
p100
aS'http://128.84.3.178/ethan/weed_cover_images/goreLab_08_10_2016/flight_2/IMG_1861.JPG'
p101
aS'http://128.84.3.178/ethan/weed_cover_images/goreLab_08_09_2016/split/DSC05958_0.JPG'
p102
aS'http://128.84.3.178/ethan/weed_cover_images/goreLab_08_09_2016/split/DSC05901_3.JPG'
p103
aS'http://128.84.3.178/ethan/weed_cover_images/goreLab_08_09_2016/split/DSC05956_1.JPG'
p104
aS'http://128.84.3.178/ethan/weed_cover_images/goreLab_08_09_2016/split/DSC05859_3.JPG'
p105
aS'http://128.84.3.178/ethan/weed_cover_images/goreLab_08_09_2016/split/DSC05997_2.JPG'
p106
aS'http://128.84.3.178/ethan/weed_cover_images/goreLab_08_10_2016/flight_2/IMG_1440.JPG'
p107
aS'http://128.84.3.178/ethan/weed_cover_images/goreLab_08_09_2016/split/DSC05902_3.JPG'
p108
aS'http://128.84.3.178/ethan/weed_cover_images/goreLab_08_09_2016/split/DSC05895_0.JPG'
p109
aS'http://128.84.3.178/ethan/weed_cover_images/goreLab_08_09_2016/split/DSC05860_2.JPG'
p110
aS'http://128.84.3.178/ethan/weed_cover_images/goreLab_08_09_2016/split/DSC05992_2.JPG'
p111
aS'http://128.84.3.178/ethan/weed_cover_images/goreLab_08_10_2016/flight_2/IMG_1344.JPG'
p112
aS'http://128.84.3.178/ethan/weed_cover_images/goreLab_08_10_2016/flight_2/IMG_1400.JPG'
p113
aS'http://128.84.3.178/ethan/weed_cover_images/goreLab_08_09_2016/split/DSC05955_1.JPG'
p114
aS'http://128.84.3.178/ethan/weed_cover_images/goreLab_08_09_2016/split/DSC05964_2.JPG'
p115
aS'http://128.84.3.178/ethan/weed_cover_images/goreLab_08_09_2016/split/DSC05965_3.JPG'
p116
aS'http://128.84.3.178/ethan/weed_cover_images/goreLab_08_09_2016/split/DSC05789_1.JPG'
p117
aS'http://128.84.3.178/ethan/weed_cover_images/goreLab_08_09_2016/split/DSC05988_2.JPG'
p118
aS'http://128.84.3.178/ethan/weed_cover_images/goreLab_08_09_2016/split/DSC05954_1.JPG'
p119
aS'http://128.84.3.178/ethan/weed_cover_images/goreLab_08_09_2016/split/DSC05899_0.JPG'
p120
aS'http://128.84.3.178/ethan/weed_cover_images/goreLab_08_09_2016/split/DSC05959_1.JPG'
p121
aS'http://128.84.3.178/ethan/weed_cover_images/goreLab_08_09_2016/split/DSC05902_2.JPG'
p122
aS'http://128.84.3.178/ethan/weed_cover_images/goreLab_08_10_2016/flight_2/IMG_1346.JPG'
p123
aS'http://128.84.3.178/ethan/weed_cover_images/goreLab_08_10_2016/flight_2/IMG_1360.JPG'
p124
aS'http://128.84.3.178/ethan/weed_cover_images/goreLab_08_09_2016/split/DSC05894_3.JPG'
p125
aS'http://128.84.3.178/ethan/weed_cover_images/goreLab_08_09_2016/split/DSC05962_1.JPG'
p126
aS'http://128.84.3.178/ethan/weed_cover_images/goreLab_08_09_2016/split/DSC05956_3.JPG'
p127
aS'http://128.84.3.178/ethan/weed_cover_images/goreLab_08_09_2016/split/DSC05987_1.JPG'
p128
aS'http://128.84.3.178/ethan/weed_cover_images/goreLab_08_09_2016/split/DSC05857_0.JPG'
p129
aS'http://128.84.3.178/ethan/weed_cover_images/goreLab_08_09_2016/split/DSC05867_0.JPG'
p130
aS'http://128.84.3.178/ethan/weed_cover_images/goreLab_08_09_2016/split/DSC05893_3.JPG'
p131
aS'http://128.84.3.178/ethan/weed_cover_images/goreLab_08_09_2016/split/DSC05897_3.JPG'
p132
aS'http://128.84.3.178/ethan/weed_cover_images/goreLab_08_09_2016/split/DSC05996_2.JPG'
p133
aS'http://128.84.3.178/ethan/weed_cover_images/goreLab_08_09_2016/split/DSC05896_1.JPG'
p134
aS'http://128.84.3.178/ethan/weed_cover_images/goreLab_08_09_2016/split/DSC05895_2.JPG'
p135
aS'http://128.84.3.178/ethan/weed_cover_images/goreLab_08_09_2016/split/DSC05855_3.JPG'
p136
aS'http://128.84.3.178/ethan/weed_cover_images/goreLab_08_09_2016/split/DSC05786_1.JPG'
p137
aS'http://128.84.3.178/ethan/weed_cover_images/goreLab_08_09_2016/split/DSC05790_0.JPG'
p138
aS'http://128.84.3.178/ethan/weed_cover_images/goreLab_08_09_2016/split/DSC05858_3.JPG'
p139
aS'http://128.84.3.178/ethan/weed_cover_images/goreLab_08_09_2016/split/DSC05996_3.JPG'
p140
aS'http://128.84.3.178/ethan/weed_cover_images/goreLab_08_09_2016/split/DSC05988_0.JPG'
p141
aS'http://128.84.3.178/ethan/weed_cover_images/goreLab_08_09_2016/split/DSC05862_2.JPG'
p142
aS'http://128.84.3.178/ethan/weed_cover_images/goreLab_08_10_2016/flight_2/IMG_1402.JPG'
p143
aS'http://128.84.3.178/ethan/weed_cover_images/goreLab_08_09_2016/split/DSC05958_3.JPG'
p144
aS'http://128.84.3.178/ethan/weed_cover_images/goreLab_08_09_2016/split/DSC05789_0.JPG'
p145
a.