(lp0
S'http://server.genobyte.us/ethan/weed_cover_images/goreLab_08_12_2016/DSC07806.JPG'
p1
aS'http://server.genobyte.us/ethan/weed_cover_images/goreLab_08_12_2016/DSC08234.JPG'
p2
aS'http://server.genobyte.us/ethan/weed_cover_images/goreLab_08_12_2016/DSC08137.JPG'
p3
aS'http://server.genobyte.us/ethan/weed_cover_images/goreLab_08_12_2016/DSC07818.JPG'
p4
aS'http://server.genobyte.us/ethan/weed_cover_images/goreLab_08_12_2016/DSC07917.JPG'
p5
aS'http://server.genobyte.us/ethan/weed_cover_images/goreLab_08_12_2016/DSC08241.JPG'
p6
aS'http://server.genobyte.us/ethan/weed_cover_images/goreLab_08_12_2016/DSC07924.JPG'
p7
aS'http://server.genobyte.us/ethan/weed_cover_images/goreLab_08_12_2016/DSC07909.JPG'
p8
aS'http://server.genobyte.us/ethan/weed_cover_images/goreLab_08_12_2016/DSC08136.JPG'
p9
aS'http://server.genobyte.us/ethan/weed_cover_images/goreLab_08_12_2016/DSC08142.JPG'
p10
aS'http://server.genobyte.us/ethan/weed_cover_images/goreLab_08_12_2016/DSC07836.JPG'
p11
aS'http://server.genobyte.us/ethan/weed_cover_images/goreLab_08_12_2016/DSC07918.JPG'
p12
aS'http://server.genobyte.us/ethan/weed_cover_images/goreLab_08_12_2016/DSC08080.JPG'
p13
aS'http://server.genobyte.us/ethan/weed_cover_images/goreLab_08_12_2016/DSC08036.JPG'
p14
aS'http://server.genobyte.us/ethan/weed_cover_images/goreLab_08_12_2016/DSC07826.JPG'
p15
aS'http://server.genobyte.us/ethan/weed_cover_images/goreLab_08_12_2016/DSC07979.JPG'
p16
aS'http://server.genobyte.us/ethan/weed_cover_images/goreLab_08_12_2016/DSC08021.JPG'
p17
aS'http://server.genobyte.us/ethan/weed_cover_images/goreLab_08_12_2016/DSC08066.JPG'
p18
aS'http://server.genobyte.us/ethan/weed_cover_images/goreLab_08_12_2016/DSC08014.JPG'
p19
aS'http://server.genobyte.us/ethan/weed_cover_images/goreLab_08_12_2016/DSC08231.JPG'
p20
aS'http://server.genobyte.us/ethan/weed_cover_images/goreLab_08_12_2016/DSC08116.JPG'
p21
aS'http://server.genobyte.us/ethan/weed_cover_images/goreLab_08_12_2016/DSC08147.JPG'
p22
aS'http://server.genobyte.us/ethan/weed_cover_images/goreLab_08_12_2016/DSC07913.JPG'
p23
aS'http://server.genobyte.us/ethan/weed_cover_images/goreLab_08_12_2016/DSC08132.JPG'
p24
aS'http://server.genobyte.us/ethan/weed_cover_images/goreLab_08_12_2016/DSC08063.JPG'
p25
aS'http://server.genobyte.us/ethan/weed_cover_images/goreLab_08_12_2016/DSC08240.JPG'
p26
aS'http://server.genobyte.us/ethan/weed_cover_images/goreLab_08_12_2016/DSC08038.JPG'
p27
aS'http://server.genobyte.us/ethan/weed_cover_images/goreLab_08_12_2016/DSC08230.JPG'
p28
aS'http://server.genobyte.us/ethan/weed_cover_images/goreLab_08_12_2016/DSC08041.JPG'
p29
aS'http://server.genobyte.us/ethan/weed_cover_images/goreLab_08_12_2016/DSC07910.JPG'
p30
aS'http://server.genobyte.us/ethan/weed_cover_images/goreLab_08_12_2016/DSC07934.JPG'
p31
aS'http://server.genobyte.us/ethan/weed_cover_images/goreLab_08_12_2016/DSC08088.JPG'
p32
aS'http://server.genobyte.us/ethan/weed_cover_images/goreLab_08_12_2016/DSC08068.JPG'
p33
aS'http://server.genobyte.us/ethan/weed_cover_images/goreLab_08_12_2016/DSC07911.JPG'
p34
aS'http://server.genobyte.us/ethan/weed_cover_images/goreLab_08_12_2016/DSC07807.JPG'
p35
aS'http://server.genobyte.us/ethan/weed_cover_images/goreLab_08_12_2016/DSC07985.JPG'
p36
aS'http://server.genobyte.us/ethan/weed_cover_images/goreLab_08_12_2016/DSC07830.JPG'
p37
aS'http://server.genobyte.us/ethan/weed_cover_images/goreLab_08_12_2016/DSC07960.JPG'
p38
aS'http://server.genobyte.us/ethan/weed_cover_images/goreLab_08_12_2016/DSC07828.JPG'
p39
aS'http://server.genobyte.us/ethan/weed_cover_images/goreLab_08_12_2016/DSC08251.JPG'
p40
aS'http://server.genobyte.us/ethan/weed_cover_images/goreLab_08_12_2016/DSC08025.JPG'
p41
aS'http://server.genobyte.us/ethan/weed_cover_images/goreLab_08_12_2016/DSC08085.JPG'
p42
aS'http://server.genobyte.us/ethan/weed_cover_images/goreLab_08_12_2016/DSC07833.JPG'
p43
aS'http://server.genobyte.us/ethan/weed_cover_images/goreLab_08_12_2016/DSC07919.JPG'
p44
aS'http://server.genobyte.us/ethan/weed_cover_images/goreLab_08_12_2016/DSC07989.JPG'
p45
aS'http://server.genobyte.us/ethan/weed_cover_images/goreLab_08_12_2016/DSC08124.JPG'
p46
aS'http://server.genobyte.us/ethan/weed_cover_images/goreLab_08_12_2016/DSC07824.JPG'
p47
aS'http://server.genobyte.us/ethan/weed_cover_images/goreLab_08_12_2016/DSC07959.JPG'
p48
aS'http://server.genobyte.us/ethan/weed_cover_images/goreLab_08_12_2016/DSC08013.JPG'
p49
aS'http://server.genobyte.us/ethan/weed_cover_images/goreLab_08_12_2016/DSC07929.JPG'
p50
aS'http://server.genobyte.us/ethan/weed_cover_images/goreLab_08_12_2016/DSC08148.JPG'
p51
aS'http://server.genobyte.us/ethan/weed_cover_images/goreLab_08_12_2016/DSC07915.JPG'
p52
aS'http://server.genobyte.us/ethan/weed_cover_images/goreLab_08_12_2016/DSC08065.JPG'
p53
aS'http://server.genobyte.us/ethan/weed_cover_images/goreLab_08_12_2016/DSC08067.JPG'
p54
aS'http://server.genobyte.us/ethan/weed_cover_images/goreLab_08_12_2016/DSC07914.JPG'
p55
aS'http://server.genobyte.us/ethan/weed_cover_images/goreLab_08_12_2016/DSC08078.JPG'
p56
aS'http://server.genobyte.us/ethan/weed_cover_images/goreLab_08_12_2016/DSC07820.JPG'
p57
aS'http://server.genobyte.us/ethan/weed_cover_images/goreLab_08_12_2016/DSC07936.JPG'
p58
aS'http://server.genobyte.us/ethan/weed_cover_images/goreLab_08_12_2016/DSC08236.JPG'
p59
aS'http://server.genobyte.us/ethan/weed_cover_images/goreLab_08_12_2016/DSC08062.JPG'
p60
aS'http://server.genobyte.us/ethan/weed_cover_images/goreLab_08_12_2016/DSC08010.JPG'
p61
aS'http://server.genobyte.us/ethan/weed_cover_images/goreLab_08_12_2016/DSC08077.JPG'
p62
aS'http://server.genobyte.us/ethan/weed_cover_images/goreLab_08_12_2016/DSC08114.JPG'
p63
aS'http://server.genobyte.us/ethan/weed_cover_images/goreLab_08_12_2016/DSC07970.JPG'
p64
aS'http://server.genobyte.us/ethan/weed_cover_images/goreLab_08_12_2016/DSC08033.JPG'
p65
aS'http://server.genobyte.us/ethan/weed_cover_images/goreLab_08_12_2016/DSC08011.JPG'
p66
aS'http://server.genobyte.us/ethan/weed_cover_images/goreLab_08_12_2016/DSC08247.JPG'
p67
aS'http://server.genobyte.us/ethan/weed_cover_images/goreLab_08_12_2016/DSC08089.JPG'
p68
aS'http://server.genobyte.us/ethan/weed_cover_images/goreLab_08_12_2016/DSC08242.JPG'
p69
aS'http://server.genobyte.us/ethan/weed_cover_images/goreLab_08_12_2016/DSC07923.JPG'
p70
aS'http://server.genobyte.us/ethan/weed_cover_images/goreLab_08_12_2016/DSC07957.JPG'
p71
aS'http://server.genobyte.us/ethan/weed_cover_images/goreLab_08_12_2016/DSC07965.JPG'
p72
aS'http://server.genobyte.us/ethan/weed_cover_images/goreLab_08_12_2016/DSC08091.JPG'
p73
aS'http://server.genobyte.us/ethan/weed_cover_images/goreLab_08_12_2016/DSC08035.JPG'
p74
aS'http://server.genobyte.us/ethan/weed_cover_images/goreLab_08_12_2016/DSC07930.JPG'
p75
aS'http://server.genobyte.us/ethan/weed_cover_images/goreLab_08_12_2016/DSC07978.JPG'
p76
aS'http://server.genobyte.us/ethan/weed_cover_images/goreLab_08_12_2016/DSC08015.JPG'
p77
aS'http://server.genobyte.us/ethan/weed_cover_images/goreLab_08_12_2016/DSC07834.JPG'
p78
aS'http://server.genobyte.us/ethan/weed_cover_images/goreLab_08_12_2016/DSC08090.JPG'
p79
aS'http://server.genobyte.us/ethan/weed_cover_images/goreLab_08_12_2016/DSC07968.JPG'
p80
aS'http://server.genobyte.us/ethan/weed_cover_images/goreLab_08_12_2016/DSC08027.JPG'
p81
aS'http://server.genobyte.us/ethan/weed_cover_images/goreLab_08_12_2016/DSC07984.JPG'
p82
aS'http://server.genobyte.us/ethan/weed_cover_images/goreLab_08_12_2016/DSC07928.JPG'
p83
aS'http://server.genobyte.us/ethan/weed_cover_images/goreLab_08_12_2016/DSC07912.JPG'
p84
aS'http://server.genobyte.us/ethan/weed_cover_images/goreLab_08_12_2016/DSC08120.JPG'
p85
aS'http://server.genobyte.us/ethan/weed_cover_images/goreLab_08_12_2016/DSC08064.JPG'
p86
aS'http://server.genobyte.us/ethan/weed_cover_images/goreLab_08_12_2016/DSC07974.JPG'
p87
aS'http://server.genobyte.us/ethan/weed_cover_images/goreLab_08_12_2016/DSC08042.JPG'
p88
aS'http://server.genobyte.us/ethan/weed_cover_images/goreLab_08_12_2016/DSC08233.JPG'
p89
aS'http://server.genobyte.us/ethan/weed_cover_images/goreLab_08_12_2016/DSC07983.JPG'
p90
aS'http://server.genobyte.us/ethan/weed_cover_images/goreLab_08_12_2016/DSC07937.JPG'
p91
aS'http://server.genobyte.us/ethan/weed_cover_images/goreLab_08_12_2016/DSC07987.JPG'
p92
aS'http://server.genobyte.us/ethan/weed_cover_images/goreLab_08_12_2016/DSC08248.JPG'
p93
aS'http://server.genobyte.us/ethan/weed_cover_images/goreLab_08_12_2016/DSC08139.JPG'
p94
aS'http://server.genobyte.us/ethan/weed_cover_images/goreLab_08_12_2016/DSC07938.JPG'
p95
aS'http://server.genobyte.us/ethan/weed_cover_images/goreLab_08_12_2016/DSC08130.JPG'
p96
aS'http://server.genobyte.us/ethan/weed_cover_images/goreLab_08_12_2016/DSC08244.JPG'
p97
aS'http://server.genobyte.us/ethan/weed_cover_images/goreLab_08_12_2016/DSC07916.JPG'
p98
aS'http://server.genobyte.us/ethan/weed_cover_images/goreLab_08_12_2016/DSC08143.JPG'
p99
aS'http://server.genobyte.us/ethan/weed_cover_images/goreLab_08_12_2016/DSC08113.JPG'
p100
aS'http://server.genobyte.us/ethan/weed_cover_images/goreLab_08_12_2016/DSC07809.JPG'
p101
aS'http://server.genobyte.us/ethan/weed_cover_images/goreLab_08_12_2016/DSC08135.JPG'
p102
aS'http://server.genobyte.us/ethan/weed_cover_images/goreLab_08_12_2016/DSC08039.JPG'
p103
aS'http://server.genobyte.us/ethan/weed_cover_images/goreLab_08_12_2016/DSC08250.JPG'
p104
aS'http://server.genobyte.us/ethan/weed_cover_images/goreLab_08_12_2016/DSC08237.JPG'
p105
aS'http://server.genobyte.us/ethan/weed_cover_images/goreLab_08_12_2016/DSC07969.JPG'
p106
aS'http://server.genobyte.us/ethan/weed_cover_images/goreLab_08_12_2016/DSC07832.JPG'
p107
aS'http://server.genobyte.us/ethan/weed_cover_images/goreLab_08_12_2016/DSC08070.JPG'
p108
aS'http://server.genobyte.us/ethan/weed_cover_images/goreLab_08_12_2016/DSC08019.JPG'
p109
aS'http://server.genobyte.us/ethan/weed_cover_images/goreLab_08_12_2016/DSC07908.JPG'
p110
aS'http://server.genobyte.us/ethan/weed_cover_images/goreLab_08_12_2016/DSC08117.JPG'
p111
aS'http://server.genobyte.us/ethan/weed_cover_images/goreLab_08_12_2016/DSC07925.JPG'
p112
aS'http://server.genobyte.us/ethan/weed_cover_images/goreLab_08_12_2016/DSC08094.JPG'
p113
aS'http://server.genobyte.us/ethan/weed_cover_images/goreLab_08_12_2016/DSC07822.JPG'
p114
aS'http://server.genobyte.us/ethan/weed_cover_images/goreLab_08_12_2016/DSC08118.JPG'
p115
aS'http://server.genobyte.us/ethan/weed_cover_images/goreLab_08_12_2016/DSC07967.JPG'
p116
aS'http://server.genobyte.us/ethan/weed_cover_images/goreLab_08_12_2016/DSC08037.JPG'
p117
aS'http://server.genobyte.us/ethan/weed_cover_images/goreLab_08_12_2016/DSC07812.JPG'
p118
aS'http://server.genobyte.us/ethan/weed_cover_images/goreLab_08_12_2016/DSC08128.JPG'
p119
aS'http://server.genobyte.us/ethan/weed_cover_images/goreLab_08_12_2016/DSC08235.JPG'
p120
aS'http://server.genobyte.us/ethan/weed_cover_images/goreLab_08_12_2016/DSC08022.JPG'
p121
aS'http://server.genobyte.us/ethan/weed_cover_images/goreLab_08_12_2016/DSC08245.JPG'
p122
aS'http://server.genobyte.us/ethan/weed_cover_images/goreLab_08_12_2016/DSC08081.JPG'
p123
aS'http://server.genobyte.us/ethan/weed_cover_images/goreLab_08_12_2016/DSC07973.JPG'
p124
aS'http://server.genobyte.us/ethan/weed_cover_images/goreLab_08_12_2016/DSC07808.JPG'
p125
aS'http://server.genobyte.us/ethan/weed_cover_images/goreLab_08_12_2016/DSC08145.JPG'
p126
aS'http://server.genobyte.us/ethan/weed_cover_images/goreLab_08_12_2016/DSC07920.JPG'
p127
aS'http://server.genobyte.us/ethan/weed_cover_images/goreLab_08_12_2016/DSC08131.JPG'
p128
aS'http://server.genobyte.us/ethan/weed_cover_images/goreLab_08_12_2016/DSC08243.JPG'
p129
aS'http://server.genobyte.us/ethan/weed_cover_images/goreLab_08_12_2016/DSC07816.JPG'
p130
aS'http://server.genobyte.us/ethan/weed_cover_images/goreLab_08_12_2016/DSC07964.JPG'
p131
aS'http://server.genobyte.us/ethan/weed_cover_images/goreLab_08_12_2016/DSC07956.JPG'
p132
aS'http://server.genobyte.us/ethan/weed_cover_images/goreLab_08_12_2016/DSC08140.JPG'
p133
aS'http://server.genobyte.us/ethan/weed_cover_images/goreLab_08_12_2016/DSC08076.JPG'
p134
aS'http://server.genobyte.us/ethan/weed_cover_images/goreLab_08_12_2016/DSC08129.JPG'
p135
aS'http://server.genobyte.us/ethan/weed_cover_images/goreLab_08_12_2016/DSC08074.JPG'
p136
aS'http://server.genobyte.us/ethan/weed_cover_images/goreLab_08_12_2016/DSC07921.JPG'
p137
aS'http://server.genobyte.us/ethan/weed_cover_images/goreLab_08_12_2016/DSC08138.JPG'
p138
aS'http://server.genobyte.us/ethan/weed_cover_images/goreLab_08_12_2016/DSC07815.JPG'
p139
aS'http://server.genobyte.us/ethan/weed_cover_images/goreLab_08_12_2016/DSC07931.JPG'
p140
aS'http://server.genobyte.us/ethan/weed_cover_images/goreLab_08_12_2016/DSC07907.JPG'
p141
aS'http://server.genobyte.us/ethan/weed_cover_images/goreLab_08_12_2016/DSC08024.JPG'
p142
aS'http://server.genobyte.us/ethan/weed_cover_images/goreLab_08_12_2016/DSC08071.JPG'
p143
aS'http://server.genobyte.us/ethan/weed_cover_images/goreLab_08_12_2016/DSC08093.JPG'
p144
aS'http://server.genobyte.us/ethan/weed_cover_images/goreLab_08_12_2016/DSC07814.JPG'
p145
aS'http://server.genobyte.us/ethan/weed_cover_images/goreLab_08_12_2016/DSC07975.JPG'
p146
aS'http://server.genobyte.us/ethan/weed_cover_images/goreLab_08_12_2016/DSC08017.JPG'
p147
aS'http://server.genobyte.us/ethan/weed_cover_images/goreLab_08_12_2016/DSC08092.JPG'
p148
aS'http://server.genobyte.us/ethan/weed_cover_images/goreLab_08_12_2016/DSC07980.JPG'
p149
aS'http://server.genobyte.us/ethan/weed_cover_images/goreLab_08_12_2016/DSC08069.JPG'
p150
aS'http://server.genobyte.us/ethan/weed_cover_images/goreLab_08_12_2016/DSC08030.JPG'
p151
aS'http://server.genobyte.us/ethan/weed_cover_images/goreLab_08_12_2016/DSC07976.JPG'
p152
aS'http://server.genobyte.us/ethan/weed_cover_images/goreLab_08_12_2016/DSC08012.JPG'
p153
aS'http://server.genobyte.us/ethan/weed_cover_images/goreLab_08_12_2016/DSC07810.JPG'
p154
aS'http://server.genobyte.us/ethan/weed_cover_images/goreLab_08_12_2016/DSC08040.JPG'
p155
aS'http://server.genobyte.us/ethan/weed_cover_images/goreLab_08_12_2016/DSC08009.JPG'
p156
aS'http://server.genobyte.us/ethan/weed_cover_images/goreLab_08_12_2016/DSC07823.JPG'
p157
aS'http://server.genobyte.us/ethan/weed_cover_images/goreLab_08_12_2016/DSC07988.JPG'
p158
aS'http://server.genobyte.us/ethan/weed_cover_images/goreLab_08_12_2016/DSC08238.JPG'
p159
aS'http://server.genobyte.us/ethan/weed_cover_images/goreLab_08_12_2016/DSC07933.JPG'
p160
aS'http://server.genobyte.us/ethan/weed_cover_images/goreLab_08_12_2016/DSC08146.JPG'
p161
aS'http://server.genobyte.us/ethan/weed_cover_images/goreLab_08_12_2016/DSC07825.JPG'
p162
aS'http://server.genobyte.us/ethan/weed_cover_images/goreLab_08_12_2016/DSC08144.JPG'
p163
aS'http://server.genobyte.us/ethan/weed_cover_images/goreLab_08_12_2016/DSC07811.JPG'
p164
aS'http://server.genobyte.us/ethan/weed_cover_images/goreLab_08_12_2016/DSC08034.JPG'
p165
aS'http://server.genobyte.us/ethan/weed_cover_images/goreLab_08_12_2016/DSC07927.JPG'
p166
aS'http://server.genobyte.us/ethan/weed_cover_images/goreLab_08_12_2016/DSC08141.JPG'
p167
aS'http://server.genobyte.us/ethan/weed_cover_images/goreLab_08_12_2016/DSC07972.JPG'
p168
aS'http://server.genobyte.us/ethan/weed_cover_images/goreLab_08_12_2016/DSC07835.JPG'
p169
aS'http://server.genobyte.us/ethan/weed_cover_images/goreLab_08_12_2016/DSC08084.JPG'
p170
aS'http://server.genobyte.us/ethan/weed_cover_images/goreLab_08_12_2016/DSC07821.JPG'
p171
aS'http://server.genobyte.us/ethan/weed_cover_images/goreLab_08_12_2016/DSC07804.JPG'
p172
aS'http://server.genobyte.us/ethan/weed_cover_images/goreLab_08_12_2016/DSC08029.JPG'
p173
aS'http://server.genobyte.us/ethan/weed_cover_images/goreLab_08_12_2016/DSC07966.JPG'
p174
aS'http://server.genobyte.us/ethan/weed_cover_images/goreLab_08_12_2016/DSC08127.JPG'
p175
aS'http://server.genobyte.us/ethan/weed_cover_images/goreLab_08_12_2016/DSC07805.JPG'
p176
aS'http://server.genobyte.us/ethan/weed_cover_images/goreLab_08_12_2016/DSC08115.JPG'
p177
aS'http://server.genobyte.us/ethan/weed_cover_images/goreLab_08_12_2016/DSC07986.JPG'
p178
aS'http://server.genobyte.us/ethan/weed_cover_images/goreLab_08_12_2016/DSC08232.JPG'
p179
aS'http://server.genobyte.us/ethan/weed_cover_images/goreLab_08_12_2016/DSC08073.JPG'
p180
aS'http://server.genobyte.us/ethan/weed_cover_images/goreLab_08_12_2016/DSC08023.JPG'
p181
aS'http://server.genobyte.us/ethan/weed_cover_images/goreLab_08_12_2016/DSC07939.JPG'
p182
aS'http://server.genobyte.us/ethan/weed_cover_images/goreLab_08_12_2016/DSC07829.JPG'
p183
aS'http://server.genobyte.us/ethan/weed_cover_images/goreLab_08_12_2016/DSC08122.JPG'
p184
aS'http://server.genobyte.us/ethan/weed_cover_images/goreLab_08_12_2016/DSC08133.JPG'
p185
aS'http://server.genobyte.us/ethan/weed_cover_images/goreLab_08_12_2016/DSC08016.JPG'
p186
aS'http://server.genobyte.us/ethan/weed_cover_images/goreLab_08_12_2016/DSC08079.JPG'
p187
aS'http://server.genobyte.us/ethan/weed_cover_images/goreLab_08_12_2016/DSC08020.JPG'
p188
aS'http://server.genobyte.us/ethan/weed_cover_images/goreLab_08_12_2016/DSC07935.JPG'
p189
aS'http://server.genobyte.us/ethan/weed_cover_images/goreLab_08_12_2016/DSC08123.JPG'
p190
aS'http://server.genobyte.us/ethan/weed_cover_images/goreLab_08_12_2016/DSC07819.JPG'
p191
aS'http://server.genobyte.us/ethan/weed_cover_images/goreLab_08_12_2016/DSC07971.JPG'
p192
aS'http://server.genobyte.us/ethan/weed_cover_images/goreLab_08_12_2016/DSC08119.JPG'
p193
aS'http://server.genobyte.us/ethan/weed_cover_images/goreLab_08_12_2016/DSC08083.JPG'
p194
aS'http://server.genobyte.us/ethan/weed_cover_images/goreLab_08_12_2016/DSC08239.JPG'
p195
aS'http://server.genobyte.us/ethan/weed_cover_images/goreLab_08_12_2016/DSC07817.JPG'
p196
aS'http://server.genobyte.us/ethan/weed_cover_images/goreLab_08_12_2016/DSC07827.JPG'
p197
aS'http://server.genobyte.us/ethan/weed_cover_images/goreLab_08_12_2016/DSC08249.JPG'
p198
aS'http://server.genobyte.us/ethan/weed_cover_images/goreLab_08_12_2016/DSC08028.JPG'
p199
aS'http://server.genobyte.us/ethan/weed_cover_images/goreLab_08_12_2016/DSC07831.JPG'
p200
aS'http://server.genobyte.us/ethan/weed_cover_images/goreLab_08_12_2016/DSC07961.JPG'
p201
aS'http://server.genobyte.us/ethan/weed_cover_images/goreLab_08_12_2016/DSC07963.JPG'
p202
aS'http://server.genobyte.us/ethan/weed_cover_images/goreLab_08_12_2016/DSC07922.JPG'
p203
aS'http://server.genobyte.us/ethan/weed_cover_images/goreLab_08_12_2016/DSC08018.JPG'
p204
aS'http://server.genobyte.us/ethan/weed_cover_images/goreLab_08_12_2016/DSC08082.JPG'
p205
aS'http://server.genobyte.us/ethan/weed_cover_images/goreLab_08_12_2016/DSC08031.JPG'
p206
aS'http://server.genobyte.us/ethan/weed_cover_images/goreLab_08_12_2016/DSC08121.JPG'
p207
aS'http://server.genobyte.us/ethan/weed_cover_images/goreLab_08_12_2016/DSC08072.JPG'
p208
aS'http://server.genobyte.us/ethan/weed_cover_images/goreLab_08_12_2016/DSC07813.JPG'
p209
aS'http://server.genobyte.us/ethan/weed_cover_images/goreLab_08_12_2016/DSC08032.JPG'
p210
aS'http://server.genobyte.us/ethan/weed_cover_images/goreLab_08_12_2016/DSC07958.JPG'
p211
aS'http://server.genobyte.us/ethan/weed_cover_images/goreLab_08_12_2016/DSC07932.JPG'
p212
aS'http://server.genobyte.us/ethan/weed_cover_images/goreLab_08_12_2016/DSC08075.JPG'
p213
aS'http://server.genobyte.us/ethan/weed_cover_images/goreLab_08_12_2016/DSC08086.JPG'
p214
aS'http://server.genobyte.us/ethan/weed_cover_images/goreLab_08_12_2016/DSC08126.JPG'
p215
aS'http://server.genobyte.us/ethan/weed_cover_images/goreLab_08_12_2016/DSC08026.JPG'
p216
aS'http://server.genobyte.us/ethan/weed_cover_images/goreLab_08_12_2016/DSC07981.JPG'
p217
aS'http://server.genobyte.us/ethan/weed_cover_images/goreLab_08_12_2016/DSC07926.JPG'
p218
aS'http://server.genobyte.us/ethan/weed_cover_images/goreLab_08_12_2016/DSC07977.JPG'
p219
aS'http://server.genobyte.us/ethan/weed_cover_images/goreLab_08_12_2016/DSC08134.JPG'
p220
aS'http://server.genobyte.us/ethan/weed_cover_images/goreLab_08_12_2016/DSC08125.JPG'
p221
aS'http://server.genobyte.us/ethan/weed_cover_images/goreLab_08_12_2016/DSC07962.JPG'
p222
aS'http://server.genobyte.us/ethan/weed_cover_images/goreLab_08_12_2016/DSC07982.JPG'
p223
aS'http://server.genobyte.us/ethan/weed_cover_images/goreLab_08_12_2016/DSC08087.JPG'
p224
aS'http://server.genobyte.us/ethan/weed_cover_images/goreLab_08_12_2016/DSC08246.JPG'
p225
a.