(lp0
(lp1
(lp2
S'http://server.genobyte.us/ethan/weed_cover_images/goreLab_08_12_2016/DSC08038.JPG'
p3
aI707
aI2271
aa(lp4
S'http://server.genobyte.us/ethan/weed_cover_images/goreLab_08_12_2016/DSC08129.JPG'
p5
aI4872
aI2969
aa(lp6
S'http://server.genobyte.us/ethan/weed_cover_images/goreLab_08_12_2016/DSC07820.JPG'
p7
aI5576
aI2008
aa(lp8
S'http://server.genobyte.us/ethan/weed_cover_images/goreLab_08_12_2016/DSC08123.JPG'
p9
aI2459
aI2375
aa(lp10
S'http://server.genobyte.us/ethan/weed_cover_images/goreLab_08_12_2016/DSC07964.JPG'
p11
aI5141
aI3245
aa(lp12
S'http://server.genobyte.us/ethan/weed_cover_images/goreLab_08_12_2016/DSC07960.JPG'
p13
aI276
aI2991
aa(lp14
S'http://server.genobyte.us/ethan/weed_cover_images/goreLab_08_12_2016/DSC08026.JPG'
p15
aI3444
aI1610
aa(lp16
S'http://server.genobyte.us/ethan/weed_cover_images/goreLab_08_12_2016/DSC08084.JPG'
p17
aI88
aI3427
aa(lp18
S'http://server.genobyte.us/ethan/weed_cover_images/goreLab_08_12_2016/DSC08233.JPG'
p19
aI3479
aI771
aa(lp20
S'http://server.genobyte.us/ethan/weed_cover_images/goreLab_08_12_2016/DSC07933.JPG'
p21
aI4422
aI970
aa(lp22
S'http://server.genobyte.us/ethan/weed_cover_images/goreLab_08_12_2016/DSC07913.JPG'
p23
aI3872
aI3443
aa(lp24
S'http://server.genobyte.us/ethan/weed_cover_images/goreLab_08_12_2016/DSC07938.JPG'
p25
aI1324
aI1129
aa(lp26
S'http://server.genobyte.us/ethan/weed_cover_images/goreLab_08_12_2016/DSC08013.JPG'
p27
aI2869
aI3735
aa(lp28
S'http://server.genobyte.us/ethan/weed_cover_images/goreLab_08_12_2016/DSC07979.JPG'
p29
aI4195
aI2283
aa(lp30
S'http://server.genobyte.us/ethan/weed_cover_images/goreLab_08_12_2016/DSC07819.JPG'
p31
aI2692
aI3949
aa(lp32
S'http://server.genobyte.us/ethan/weed_cover_images/goreLab_08_12_2016/DSC08092.JPG'
p33
aI3971
aI1195
aa(lp34
S'http://server.genobyte.us/ethan/weed_cover_images/goreLab_08_12_2016/DSC08114.JPG'
p35
aI2612
aI59
aa(lp36
S'http://server.genobyte.us/ethan/weed_cover_images/goreLab_08_12_2016/DSC07986.JPG'
p37
aI4885
aI2299
aa(lp38
S'http://server.genobyte.us/ethan/weed_cover_images/goreLab_08_12_2016/DSC07988.JPG'
p39
aI5201
aI2205
aa(lp40
S'http://server.genobyte.us/ethan/weed_cover_images/goreLab_08_12_2016/DSC07834.JPG'
p41
aI4800
aI899
aa(lp42
S'http://server.genobyte.us/ethan/weed_cover_images/goreLab_08_12_2016/DSC08073.JPG'
p43
aI2669
aI2438
aa(lp44
S'http://server.genobyte.us/ethan/weed_cover_images/goreLab_08_12_2016/DSC07917.JPG'
p45
aI3222
aI2540
aa(lp46
S'http://server.genobyte.us/ethan/weed_cover_images/goreLab_08_12_2016/DSC08040.JPG'
p47
aI1906
aI2625
aa(lp48
S'http://server.genobyte.us/ethan/weed_cover_images/goreLab_08_12_2016/DSC08236.JPG'
p49
aI103
aI137
aa(lp50
S'http://server.genobyte.us/ethan/weed_cover_images/goreLab_08_12_2016/DSC07927.JPG'
p51
aI1019
aI3802
aa(lp52
S'http://server.genobyte.us/ethan/weed_cover_images/goreLab_08_12_2016/DSC07836.JPG'
p53
aI5950
aI3489
aa(lp54
S'http://server.genobyte.us/ethan/weed_cover_images/goreLab_08_12_2016/DSC07936.JPG'
p55
aI3425
aI2205
aa(lp56
S'http://server.genobyte.us/ethan/weed_cover_images/goreLab_08_12_2016/DSC07924.JPG'
p57
aI1477
aI2198
aa(lp58
S'http://server.genobyte.us/ethan/weed_cover_images/goreLab_08_12_2016/DSC08027.JPG'
p59
aI1606
aI1053
aa(lp60
S'http://server.genobyte.us/ethan/weed_cover_images/goreLab_08_12_2016/DSC08146.JPG'
p61
aI1662
aI1823
aa(lp62
S'http://server.genobyte.us/ethan/weed_cover_images/goreLab_08_12_2016/DSC07975.JPG'
p63
aI898
aI3100
aa(lp64
S'http://server.genobyte.us/ethan/weed_cover_images/goreLab_08_12_2016/DSC07965.JPG'
p65
aI782
aI2757
aa(lp66
S'http://server.genobyte.us/ethan/weed_cover_images/goreLab_08_12_2016/DSC08062.JPG'
p67
aI93
aI3939
aa(lp68
S'http://server.genobyte.us/ethan/weed_cover_images/goreLab_08_12_2016/DSC07934.JPG'
p69
aI3092
aI1958
aa(lp70
S'http://server.genobyte.us/ethan/weed_cover_images/goreLab_08_12_2016/DSC08250.JPG'
p71
aI1349
aI556
aa(lp72
S'http://server.genobyte.us/ethan/weed_cover_images/goreLab_08_12_2016/DSC08041.JPG'
p73
aI3134
aI132
aa(lp74
S'http://server.genobyte.us/ethan/weed_cover_images/goreLab_08_12_2016/DSC07978.JPG'
p75
aI2222
aI788
aa(lp76
S'http://server.genobyte.us/ethan/weed_cover_images/goreLab_08_12_2016/DSC07823.JPG'
p77
aI3930
aI2493
aa(lp78
S'http://server.genobyte.us/ethan/weed_cover_images/goreLab_08_12_2016/DSC08142.JPG'
p79
aI1017
aI2958
aa(lp80
S'http://server.genobyte.us/ethan/weed_cover_images/goreLab_08_12_2016/DSC08087.JPG'
p81
aI183
aI3957
aa(lp82
S'http://server.genobyte.us/ethan/weed_cover_images/goreLab_08_12_2016/DSC07835.JPG'
p83
aI5591
aI3102
aa(lp84
S'http://server.genobyte.us/ethan/weed_cover_images/goreLab_08_12_2016/DSC08237.JPG'
p85
aI4677
aI2699
aa(lp86
S'http://server.genobyte.us/ethan/weed_cover_images/goreLab_08_12_2016/DSC08117.JPG'
p87
aI1386
aI3357
aa(lp88
S'http://server.genobyte.us/ethan/weed_cover_images/goreLab_08_12_2016/DSC08126.JPG'
p89
aI3745
aI593
aa(lp90
S'http://server.genobyte.us/ethan/weed_cover_images/goreLab_08_12_2016/DSC08015.JPG'
p91
aI2187
aI1280
aa(lp92
S'http://server.genobyte.us/ethan/weed_cover_images/goreLab_08_12_2016/DSC07911.JPG'
p93
aI350
aI1320
aa(lp94
S'http://server.genobyte.us/ethan/weed_cover_images/goreLab_08_12_2016/DSC08093.JPG'
p95
aI2454
aI438
aa(lp96
S'http://server.genobyte.us/ethan/weed_cover_images/goreLab_08_12_2016/DSC07966.JPG'
p97
aI1371
aI3742
aa(lp98
S'http://server.genobyte.us/ethan/weed_cover_images/goreLab_08_12_2016/DSC08241.JPG'
p99
aI4582
aI2491
aa(lp100
S'http://server.genobyte.us/ethan/weed_cover_images/goreLab_08_12_2016/DSC07963.JPG'
p101
aI5474
aI140
aa(lp102
S'http://server.genobyte.us/ethan/weed_cover_images/goreLab_08_12_2016/DSC08070.JPG'
p103
aI4692
aI107
aa(lp104
S'http://server.genobyte.us/ethan/weed_cover_images/goreLab_08_12_2016/DSC07824.JPG'
p105
aI2223
aI1436
aa(lp106
S'http://server.genobyte.us/ethan/weed_cover_images/goreLab_08_12_2016/DSC08035.JPG'
p107
aI2527
aI83
aa(lp108
S'http://server.genobyte.us/ethan/weed_cover_images/goreLab_08_12_2016/DSC07919.JPG'
p109
aI1343
aI188
aa(lp110
S'http://server.genobyte.us/ethan/weed_cover_images/goreLab_08_12_2016/DSC08082.JPG'
p111
aI784
aI1432
aa(lp112
S'http://server.genobyte.us/ethan/weed_cover_images/goreLab_08_12_2016/DSC07830.JPG'
p113
aI5682
aI3615
aa(lp114
S'http://server.genobyte.us/ethan/weed_cover_images/goreLab_08_12_2016/DSC07809.JPG'
p115
aI1119
aI3831
aa(lp116
S'http://server.genobyte.us/ethan/weed_cover_images/goreLab_08_12_2016/DSC08145.JPG'
p117
aI2957
aI285
aa(lp118
S'http://server.genobyte.us/ethan/weed_cover_images/goreLab_08_12_2016/DSC08136.JPG'
p119
aI2994
aI1956
aa(lp120
S'http://server.genobyte.us/ethan/weed_cover_images/goreLab_08_12_2016/DSC08234.JPG'
p121
aI54
aI3135
aa(lp122
S'http://server.genobyte.us/ethan/weed_cover_images/goreLab_08_12_2016/DSC07932.JPG'
p123
aI2890
aI1870
aa(lp124
S'http://server.genobyte.us/ethan/weed_cover_images/goreLab_08_12_2016/DSC07962.JPG'
p125
aI614
aI581
aa(lp126
S'http://server.genobyte.us/ethan/weed_cover_images/goreLab_08_12_2016/DSC07970.JPG'
p127
aI3683
aI3760
aa(lp128
S'http://server.genobyte.us/ethan/weed_cover_images/goreLab_08_12_2016/DSC07958.JPG'
p129
aI1226
aI2453
aa(lp130
S'http://server.genobyte.us/ethan/weed_cover_images/goreLab_08_12_2016/DSC07812.JPG'
p131
aI5045
aI3127
aa(lp132
S'http://server.genobyte.us/ethan/weed_cover_images/goreLab_08_12_2016/DSC08029.JPG'
p133
aI4606
aI215
aa(lp134
S'http://server.genobyte.us/ethan/weed_cover_images/goreLab_08_12_2016/DSC08232.JPG'
p135
aI982
aI1472
aa(lp136
S'http://server.genobyte.us/ethan/weed_cover_images/goreLab_08_12_2016/DSC08039.JPG'
p137
aI1515
aI766
aa(lp138
S'http://server.genobyte.us/ethan/weed_cover_images/goreLab_08_12_2016/DSC07977.JPG'
p139
aI5675
aI113
aa(lp140
S'http://server.genobyte.us/ethan/weed_cover_images/goreLab_08_12_2016/DSC08231.JPG'
p141
aI1988
aI3255
aa(lp142
S'http://server.genobyte.us/ethan/weed_cover_images/goreLab_08_12_2016/DSC07972.JPG'
p143
aI3173
aI1257
aa(lp144
S'http://server.genobyte.us/ethan/weed_cover_images/goreLab_08_12_2016/DSC07984.JPG'
p145
aI1627
aI1941
aa(lp146
S'http://server.genobyte.us/ethan/weed_cover_images/goreLab_08_12_2016/DSC07817.JPG'
p147
aI5300
aI863
aa(lp148
S'http://server.genobyte.us/ethan/weed_cover_images/goreLab_08_12_2016/DSC08094.JPG'
p149
aI2127
aI431
aa(lp150
S'http://server.genobyte.us/ethan/weed_cover_images/goreLab_08_12_2016/DSC08064.JPG'
p151
aI5777
aI628
aa(lp152
S'http://server.genobyte.us/ethan/weed_cover_images/goreLab_08_12_2016/DSC07829.JPG'
p153
aI3907
aI705
aa(lp154
S'http://server.genobyte.us/ethan/weed_cover_images/goreLab_08_12_2016/DSC08014.JPG'
p155
aI5932
aI1947
aa(lp156
S'http://server.genobyte.us/ethan/weed_cover_images/goreLab_08_12_2016/DSC07985.JPG'
p157
aI3890
aI2924
aa(lp158
S'http://server.genobyte.us/ethan/weed_cover_images/goreLab_08_12_2016/DSC08131.JPG'
p159
aI889
aI2936
aa(lp160
S'http://server.genobyte.us/ethan/weed_cover_images/goreLab_08_12_2016/DSC08033.JPG'
p161
aI2419
aI1303
aa(lp162
S'http://server.genobyte.us/ethan/weed_cover_images/goreLab_08_12_2016/DSC07818.JPG'
p163
aI37
aI639
aa(lp164
S'http://server.genobyte.us/ethan/weed_cover_images/goreLab_08_12_2016/DSC07929.JPG'
p165
aI3295
aI3194
aa(lp166
S'http://server.genobyte.us/ethan/weed_cover_images/goreLab_08_12_2016/DSC08069.JPG'
p167
aI176
aI3528
aa(lp168
S'http://server.genobyte.us/ethan/weed_cover_images/goreLab_08_12_2016/DSC08130.JPG'
p169
aI3736
aI2013
aa(lp170
S'http://server.genobyte.us/ethan/weed_cover_images/goreLab_08_12_2016/DSC07968.JPG'
p171
aI1945
aI1784
aa(lp172
S'http://server.genobyte.us/ethan/weed_cover_images/goreLab_08_12_2016/DSC08124.JPG'
p173
aI5036
aI3748
aa(lp174
S'http://server.genobyte.us/ethan/weed_cover_images/goreLab_08_12_2016/DSC07925.JPG'
p175
aI3603
aI3651
aa(lp176
S'http://server.genobyte.us/ethan/weed_cover_images/goreLab_08_12_2016/DSC07822.JPG'
p177
aI557
aI1449
aa(lp178
S'http://server.genobyte.us/ethan/weed_cover_images/goreLab_08_12_2016/DSC08010.JPG'
p179
aI2927
aI1618
aa(lp180
S'http://server.genobyte.us/ethan/weed_cover_images/goreLab_08_12_2016/DSC08083.JPG'
p181
aI5514
aI271
aa(lp182
S'http://server.genobyte.us/ethan/weed_cover_images/goreLab_08_12_2016/DSC08090.JPG'
p183
aI1154
aI2644
aa(lp184
S'http://server.genobyte.us/ethan/weed_cover_images/goreLab_08_12_2016/DSC07821.JPG'
p185
aI2518
aI3892
aa(lp186
S'http://server.genobyte.us/ethan/weed_cover_images/goreLab_08_12_2016/DSC08132.JPG'
p187
aI4679
aI587
aa(lp188
S'http://server.genobyte.us/ethan/weed_cover_images/goreLab_08_12_2016/DSC08247.JPG'
p189
aI3869
aI3728
aa(lp190
S'http://server.genobyte.us/ethan/weed_cover_images/goreLab_08_12_2016/DSC07804.JPG'
p191
aI5944
aI3459
aa(lp192
S'http://server.genobyte.us/ethan/weed_cover_images/goreLab_08_12_2016/DSC08021.JPG'
p193
aI5844
aI2583
aa(lp194
S'http://server.genobyte.us/ethan/weed_cover_images/goreLab_08_12_2016/DSC08240.JPG'
p195
aI2745
aI514
aa(lp196
S'http://server.genobyte.us/ethan/weed_cover_images/goreLab_08_12_2016/DSC07915.JPG'
p197
aI598
aI302
aa(lp198
S'http://server.genobyte.us/ethan/weed_cover_images/goreLab_08_12_2016/DSC07920.JPG'
p199
aI3183
aI2557
aa(lp200
S'http://server.genobyte.us/ethan/weed_cover_images/goreLab_08_12_2016/DSC08081.JPG'
p201
aI1411
aI2504
aa(lp202
S'http://server.genobyte.us/ethan/weed_cover_images/goreLab_08_12_2016/DSC07959.JPG'
p203
aI493
aI791
aa(lp204
S'http://server.genobyte.us/ethan/weed_cover_images/goreLab_08_12_2016/DSC08148.JPG'
p205
aI310
aI3530
aa(lp206
S'http://server.genobyte.us/ethan/weed_cover_images/goreLab_08_12_2016/DSC07907.JPG'
p207
aI2395
aI3461
aa(lp208
S'http://server.genobyte.us/ethan/weed_cover_images/goreLab_08_12_2016/DSC07918.JPG'
p209
aI1928
aI3697
aa(lp210
S'http://server.genobyte.us/ethan/weed_cover_images/goreLab_08_12_2016/DSC08063.JPG'
p211
aI999
aI3393
aa(lp212
S'http://server.genobyte.us/ethan/weed_cover_images/goreLab_08_12_2016/DSC08243.JPG'
p213
aI5313
aI1559
aa(lp214
S'http://server.genobyte.us/ethan/weed_cover_images/goreLab_08_12_2016/DSC07832.JPG'
p215
aI920
aI1863
aa(lp216
S'http://server.genobyte.us/ethan/weed_cover_images/goreLab_08_12_2016/DSC08012.JPG'
p217
aI289
aI354
aa(lp218
S'http://server.genobyte.us/ethan/weed_cover_images/goreLab_08_12_2016/DSC08251.JPG'
p219
aI4205
aI321
aa(lp220
S'http://server.genobyte.us/ethan/weed_cover_images/goreLab_08_12_2016/DSC08239.JPG'
p221
aI3141
aI500
aa(lp222
S'http://server.genobyte.us/ethan/weed_cover_images/goreLab_08_12_2016/DSC08025.JPG'
p223
aI2796
aI1415
aa(lp224
S'http://server.genobyte.us/ethan/weed_cover_images/goreLab_08_12_2016/DSC08075.JPG'
p225
aI1310
aI155
aa(lp226
S'http://server.genobyte.us/ethan/weed_cover_images/goreLab_08_12_2016/DSC07981.JPG'
p227
aI4575
aI780
aa(lp228
S'http://server.genobyte.us/ethan/weed_cover_images/goreLab_08_12_2016/DSC08037.JPG'
p229
aI95
aI1853
aa(lp230
S'http://server.genobyte.us/ethan/weed_cover_images/goreLab_08_12_2016/DSC08009.JPG'
p231
aI5165
aI1171
aa(lp232
S'http://server.genobyte.us/ethan/weed_cover_images/goreLab_08_12_2016/DSC08030.JPG'
p233
aI4666
aI68
aa(lp234
S'http://server.genobyte.us/ethan/weed_cover_images/goreLab_08_12_2016/DSC07916.JPG'
p235
aI668
aI2747
aa(lp236
S'http://server.genobyte.us/ethan/weed_cover_images/goreLab_08_12_2016/DSC08134.JPG'
p237
aI4095
aI1211
aa(lp238
S'http://server.genobyte.us/ethan/weed_cover_images/goreLab_08_12_2016/DSC08245.JPG'
p239
aI1717
aI2924
aa(lp240
S'http://server.genobyte.us/ethan/weed_cover_images/goreLab_08_12_2016/DSC07982.JPG'
p241
aI3548
aI2851
aa(lp242
S'http://server.genobyte.us/ethan/weed_cover_images/goreLab_08_12_2016/DSC08036.JPG'
p243
aI3954
aI2951
aa(lp244
S'http://server.genobyte.us/ethan/weed_cover_images/goreLab_08_12_2016/DSC08248.JPG'
p245
aI4949
aI829
aa(lp246
S'http://server.genobyte.us/ethan/weed_cover_images/goreLab_08_12_2016/DSC08120.JPG'
p247
aI4027
aI2504
aa(lp248
S'http://server.genobyte.us/ethan/weed_cover_images/goreLab_08_12_2016/DSC07805.JPG'
p249
aI3962
aI355
aa(lp250
S'http://server.genobyte.us/ethan/weed_cover_images/goreLab_08_12_2016/DSC08076.JPG'
p251
aI5320
aI2422
aa(lp252
S'http://server.genobyte.us/ethan/weed_cover_images/goreLab_08_12_2016/DSC07937.JPG'
p253
aI715
aI2793
aa(lp254
S'http://server.genobyte.us/ethan/weed_cover_images/goreLab_08_12_2016/DSC08018.JPG'
p255
aI4736
aI410
aa(lp256
S'http://server.genobyte.us/ethan/weed_cover_images/goreLab_08_12_2016/DSC07935.JPG'
p257
aI1269
aI2003
aa(lp258
S'http://server.genobyte.us/ethan/weed_cover_images/goreLab_08_12_2016/DSC07971.JPG'
p259
aI5196
aI2685
aa(lp260
S'http://server.genobyte.us/ethan/weed_cover_images/goreLab_08_12_2016/DSC07961.JPG'
p261
aI2575
aI3245
aa(lp262
S'http://server.genobyte.us/ethan/weed_cover_images/goreLab_08_12_2016/DSC08230.JPG'
p263
aI4970
aI1211
aa(lp264
S'http://server.genobyte.us/ethan/weed_cover_images/goreLab_08_12_2016/DSC08024.JPG'
p265
aI1119
aI1205
aa(lp266
S'http://server.genobyte.us/ethan/weed_cover_images/goreLab_08_12_2016/DSC08065.JPG'
p267
aI2306
aI3422
aa(lp268
S'http://server.genobyte.us/ethan/weed_cover_images/goreLab_08_12_2016/DSC08113.JPG'
p269
aI357
aI2696
aa(lp270
S'http://server.genobyte.us/ethan/weed_cover_images/goreLab_08_12_2016/DSC07989.JPG'
p271
aI5271
aI2078
aa(lp272
S'http://server.genobyte.us/ethan/weed_cover_images/goreLab_08_12_2016/DSC08235.JPG'
p273
aI4824
aI2615
aa(lp274
S'http://server.genobyte.us/ethan/weed_cover_images/goreLab_08_12_2016/DSC08246.JPG'
p275
aI1552
aI367
aa(lp276
S'http://server.genobyte.us/ethan/weed_cover_images/goreLab_08_12_2016/DSC08067.JPG'
p277
aI2550
aI811
aa(lp278
S'http://server.genobyte.us/ethan/weed_cover_images/goreLab_08_12_2016/DSC08139.JPG'
p279
aI1494
aI3275
aa(lp280
S'http://server.genobyte.us/ethan/weed_cover_images/goreLab_08_12_2016/DSC08125.JPG'
p281
aI1065
aI2904
aa(lp282
S'http://server.genobyte.us/ethan/weed_cover_images/goreLab_08_12_2016/DSC08086.JPG'
p283
aI3320
aI2311
aa(lp284
S'http://server.genobyte.us/ethan/weed_cover_images/goreLab_08_12_2016/DSC07814.JPG'
p285
aI1689
aI2026
aa(lp286
S'http://server.genobyte.us/ethan/weed_cover_images/goreLab_08_12_2016/DSC07808.JPG'
p287
aI1573
aI2857
aa(lp288
S'http://server.genobyte.us/ethan/weed_cover_images/goreLab_08_12_2016/DSC08238.JPG'
p289
aI3711
aI2755
aa(lp290
S'http://server.genobyte.us/ethan/weed_cover_images/goreLab_08_12_2016/DSC08135.JPG'
p291
aI4697
aI7
aa(lp292
S'http://server.genobyte.us/ethan/weed_cover_images/goreLab_08_12_2016/DSC08017.JPG'
p293
aI633
aI3609
aa(lp294
S'http://server.genobyte.us/ethan/weed_cover_images/goreLab_08_12_2016/DSC07810.JPG'
p295
aI4858
aI3985
aa(lp296
S'http://server.genobyte.us/ethan/weed_cover_images/goreLab_08_12_2016/DSC08116.JPG'
p297
aI2791
aI2597
aa(lp298
S'http://server.genobyte.us/ethan/weed_cover_images/goreLab_08_12_2016/DSC08147.JPG'
p299
aI3121
aI2654
aa(lp300
S'http://server.genobyte.us/ethan/weed_cover_images/goreLab_08_12_2016/DSC07987.JPG'
p301
aI3735
aI3575
aa(lp302
S'http://server.genobyte.us/ethan/weed_cover_images/goreLab_08_12_2016/DSC07969.JPG'
p303
aI1249
aI3366
aa(lp304
S'http://server.genobyte.us/ethan/weed_cover_images/goreLab_08_12_2016/DSC08242.JPG'
p305
aI4243
aI271
aa(lp306
S'http://server.genobyte.us/ethan/weed_cover_images/goreLab_08_12_2016/DSC07806.JPG'
p307
aI4841
aI3548
aa(lp308
S'http://server.genobyte.us/ethan/weed_cover_images/goreLab_08_12_2016/DSC07923.JPG'
p309
aI3564
aI403
aa(lp310
S'http://server.genobyte.us/ethan/weed_cover_images/goreLab_08_12_2016/DSC07983.JPG'
p311
aI475
aI2672
aa(lp312
S'http://server.genobyte.us/ethan/weed_cover_images/goreLab_08_12_2016/DSC07811.JPG'
p313
aI2084
aI588
aa(lp314
S'http://server.genobyte.us/ethan/weed_cover_images/goreLab_08_12_2016/DSC08089.JPG'
p315
aI4647
aI3743
aaa(lp316
(lp317
S'http://server.genobyte.us/ethan/weed_cover_images/goreLab_08_12_2016/DSC08127.JPG'
p318
aI1760
aI2455
aa(lp319
S'http://server.genobyte.us/ethan/weed_cover_images/goreLab_08_12_2016/DSC08072.JPG'
p320
aI1911
aI1346
aa(lp321
S'http://server.genobyte.us/ethan/weed_cover_images/goreLab_08_12_2016/DSC07914.JPG'
p322
aI3482
aI2153
aa(lp323
S'http://server.genobyte.us/ethan/weed_cover_images/goreLab_08_12_2016/DSC08080.JPG'
p324
aI1004
aI804
aa(lp325
S'http://server.genobyte.us/ethan/weed_cover_images/goreLab_08_12_2016/DSC08066.JPG'
p326
aI285
aI900
aa(lp327
S'http://server.genobyte.us/ethan/weed_cover_images/goreLab_08_12_2016/DSC08138.JPG'
p328
aI2728
aI263
aa(lp329
S'http://server.genobyte.us/ethan/weed_cover_images/goreLab_08_12_2016/DSC08022.JPG'
p330
aI4630
aI1672
aa(lp331
S'http://server.genobyte.us/ethan/weed_cover_images/goreLab_08_12_2016/DSC08023.JPG'
p332
aI2496
aI2070
aa(lp333
S'http://server.genobyte.us/ethan/weed_cover_images/goreLab_08_12_2016/DSC07807.JPG'
p334
aI3966
aI3653
aa(lp335
S'http://server.genobyte.us/ethan/weed_cover_images/goreLab_08_12_2016/DSC07825.JPG'
p336
aI5412
aI666
aa(lp337
S'http://server.genobyte.us/ethan/weed_cover_images/goreLab_08_12_2016/DSC08032.JPG'
p338
aI2410
aI2395
aa(lp339
S'http://server.genobyte.us/ethan/weed_cover_images/goreLab_08_12_2016/DSC08031.JPG'
p340
aI464
aI2716
aa(lp341
S'http://server.genobyte.us/ethan/weed_cover_images/goreLab_08_12_2016/DSC08028.JPG'
p342
aI2384
aI2107
aa(lp343
S'http://server.genobyte.us/ethan/weed_cover_images/goreLab_08_12_2016/DSC08034.JPG'
p344
aI3755
aI3236
aa(lp345
S'http://server.genobyte.us/ethan/weed_cover_images/goreLab_08_12_2016/DSC07974.JPG'
p346
aI1187
aI2982
aa(lp347
S'http://server.genobyte.us/ethan/weed_cover_images/goreLab_08_12_2016/DSC08042.JPG'
p348
aI1320
aI739
aa(lp349
S'http://server.genobyte.us/ethan/weed_cover_images/goreLab_08_12_2016/DSC08141.JPG'
p350
aI2577
aI1518
aa(lp351
S'http://server.genobyte.us/ethan/weed_cover_images/goreLab_08_12_2016/DSC07922.JPG'
p352
aI3980
aI2422
aa(lp353
S'http://server.genobyte.us/ethan/weed_cover_images/goreLab_08_12_2016/DSC07828.JPG'
p354
aI5989
aI25
aa(lp355
S'http://server.genobyte.us/ethan/weed_cover_images/goreLab_08_12_2016/DSC07939.JPG'
p356
aI2660
aI3650
aa(lp357
S'http://server.genobyte.us/ethan/weed_cover_images/goreLab_08_12_2016/DSC07912.JPG'
p358
aI4626
aI3835
aa(lp359
S'http://server.genobyte.us/ethan/weed_cover_images/goreLab_08_12_2016/DSC07910.JPG'
p360
aI1470
aI2585
aa(lp361
S'http://server.genobyte.us/ethan/weed_cover_images/goreLab_08_12_2016/DSC07931.JPG'
p362
aI2281
aI2496
aa(lp363
S'http://server.genobyte.us/ethan/weed_cover_images/goreLab_08_12_2016/DSC07827.JPG'
p364
aI1957
aI2598
aa(lp365
S'http://server.genobyte.us/ethan/weed_cover_images/goreLab_08_12_2016/DSC07826.JPG'
p366
aI729
aI1216
aa(lp367
S'http://server.genobyte.us/ethan/weed_cover_images/goreLab_08_12_2016/DSC08122.JPG'
p368
aI4216
aI3395
aa(lp369
S'http://server.genobyte.us/ethan/weed_cover_images/goreLab_08_12_2016/DSC08119.JPG'
p370
aI3869
aI482
aa(lp371
S'http://server.genobyte.us/ethan/weed_cover_images/goreLab_08_12_2016/DSC07908.JPG'
p372
aI2178
aI1948
aa(lp373
S'http://server.genobyte.us/ethan/weed_cover_images/goreLab_08_12_2016/DSC08071.JPG'
p374
aI819
aI657
aa(lp375
S'http://server.genobyte.us/ethan/weed_cover_images/goreLab_08_12_2016/DSC07980.JPG'
p376
aI4375
aI3696
aa(lp377
S'http://server.genobyte.us/ethan/weed_cover_images/goreLab_08_12_2016/DSC07956.JPG'
p378
aI445
aI2698
aa(lp379
S'http://server.genobyte.us/ethan/weed_cover_images/goreLab_08_12_2016/DSC08118.JPG'
p380
aI5511
aI2255
aa(lp381
S'http://server.genobyte.us/ethan/weed_cover_images/goreLab_08_12_2016/DSC07926.JPG'
p382
aI1086
aI2243
aaa(lp383
(lp384
S'http://server.genobyte.us/ethan/weed_cover_images/goreLab_08_12_2016/DSC07957.JPG'
p385
aI1468
aI1400
aa(lp386
S'http://server.genobyte.us/ethan/weed_cover_images/goreLab_08_12_2016/DSC08068.JPG'
p387
aI5324
aI3712
aa(lp388
S'http://server.genobyte.us/ethan/weed_cover_images/goreLab_08_12_2016/DSC08121.JPG'
p389
aI4063
aI2105
aa(lp390
S'http://server.genobyte.us/ethan/weed_cover_images/goreLab_08_12_2016/DSC08079.JPG'
p391
aI5920
aI1302
aa(lp392
S'http://server.genobyte.us/ethan/weed_cover_images/goreLab_08_12_2016/DSC07928.JPG'
p393
aI5686
aI3788
aa(lp394
S'http://server.genobyte.us/ethan/weed_cover_images/goreLab_08_12_2016/DSC07816.JPG'
p395
aI2048
aI2978
aa(lp396
S'http://server.genobyte.us/ethan/weed_cover_images/goreLab_08_12_2016/DSC08091.JPG'
p397
aI3995
aI3095
aa(lp398
S'http://server.genobyte.us/ethan/weed_cover_images/goreLab_08_12_2016/DSC07815.JPG'
p399
aI3715
aI987
aa(lp400
S'http://server.genobyte.us/ethan/weed_cover_images/goreLab_08_12_2016/DSC08016.JPG'
p401
aI4224
aI3573
aa(lp402
S'http://server.genobyte.us/ethan/weed_cover_images/goreLab_08_12_2016/DSC08019.JPG'
p403
aI4358
aI2123
aa(lp404
S'http://server.genobyte.us/ethan/weed_cover_images/goreLab_08_12_2016/DSC08077.JPG'
p405
aI1019
aI739
aa(lp406
S'http://server.genobyte.us/ethan/weed_cover_images/goreLab_08_12_2016/DSC08128.JPG'
p407
aI1178
aI1890
aa(lp408
S'http://server.genobyte.us/ethan/weed_cover_images/goreLab_08_12_2016/DSC07967.JPG'
p409
aI3276
aI3098
aa(lp410
S'http://server.genobyte.us/ethan/weed_cover_images/goreLab_08_12_2016/DSC07976.JPG'
p411
aI91
aI1256
aa(lp412
S'http://server.genobyte.us/ethan/weed_cover_images/goreLab_08_12_2016/DSC07930.JPG'
p413
aI5558
aI596
aa(lp414
S'http://server.genobyte.us/ethan/weed_cover_images/goreLab_08_12_2016/DSC08133.JPG'
p415
aI4965
aI155
aa(lp416
S'http://server.genobyte.us/ethan/weed_cover_images/goreLab_08_12_2016/DSC07921.JPG'
p417
aI5890
aI517
aa(lp418
S'http://server.genobyte.us/ethan/weed_cover_images/goreLab_08_12_2016/DSC08137.JPG'
p419
aI4586
aI2665
aa(lp420
S'http://server.genobyte.us/ethan/weed_cover_images/goreLab_08_12_2016/DSC07831.JPG'
p421
aI522
aI3600
aa(lp422
S'http://server.genobyte.us/ethan/weed_cover_images/goreLab_08_12_2016/DSC08088.JPG'
p423
aI4078
aI3611
aa(lp424
S'http://server.genobyte.us/ethan/weed_cover_images/goreLab_08_12_2016/DSC08011.JPG'
p425
aI4995
aI2187
aa(lp426
S'http://server.genobyte.us/ethan/weed_cover_images/goreLab_08_12_2016/DSC07973.JPG'
p427
aI2940
aI487
aa(lp428
S'http://server.genobyte.us/ethan/weed_cover_images/goreLab_08_12_2016/DSC08144.JPG'
p429
aI590
aI2184
aa(lp430
S'http://server.genobyte.us/ethan/weed_cover_images/goreLab_08_12_2016/DSC08078.JPG'
p431
aI1629
aI3247
aa(lp432
S'http://server.genobyte.us/ethan/weed_cover_images/goreLab_08_12_2016/DSC07909.JPG'
p433
aI2459
aI1026
aa(lp434
S'http://server.genobyte.us/ethan/weed_cover_images/goreLab_08_12_2016/DSC08140.JPG'
p435
aI4007
aI3056
aa(lp436
S'http://server.genobyte.us/ethan/weed_cover_images/goreLab_08_12_2016/DSC08020.JPG'
p437
aI1632
aI861
aa(lp438
S'http://server.genobyte.us/ethan/weed_cover_images/goreLab_08_12_2016/DSC08244.JPG'
p439
aI2870
aI365
aa(lp440
S'http://server.genobyte.us/ethan/weed_cover_images/goreLab_08_12_2016/DSC08085.JPG'
p441
aI77
aI3322
aa(lp442
S'http://server.genobyte.us/ethan/weed_cover_images/goreLab_08_12_2016/DSC07833.JPG'
p443
aI4714
aI1857
aa(lp444
S'http://server.genobyte.us/ethan/weed_cover_images/goreLab_08_12_2016/DSC08143.JPG'
p445
aI1735
aI902
aa(lp446
S'http://server.genobyte.us/ethan/weed_cover_images/goreLab_08_12_2016/DSC08115.JPG'
p447
aI3416
aI1369
aa(lp448
S'http://server.genobyte.us/ethan/weed_cover_images/goreLab_08_12_2016/DSC07813.JPG'
p449
aI5533
aI1584
aaa(lp450
(lp451
S'http://server.genobyte.us/ethan/weed_cover_images/goreLab_08_12_2016/DSC08074.JPG'
p452
aI3689
aI1589
aa(lp453
S'http://server.genobyte.us/ethan/weed_cover_images/goreLab_08_12_2016/DSC08249.JPG'
p454
aI3422
aI951
aaa.